ARM GAS  C:\Users\zhmis\AppData\Local\Temp\ccuvnAL9.s 			page 1


   1              		.cpu cortex-m3
   2              		.arch armv7-m
   3              		.fpu softvfp
   4              		.eabi_attribute 20, 1
   5              		.eabi_attribute 21, 1
   6              		.eabi_attribute 23, 3
   7              		.eabi_attribute 24, 1
   8              		.eabi_attribute 25, 1
   9              		.eabi_attribute 26, 1
  10              		.eabi_attribute 30, 1
  11              		.eabi_attribute 34, 1
  12              		.eabi_attribute 18, 4
  13              		.file	"adc.c"
  14              		.text
  15              	.Ltext0:
  16              		.cfi_sections	.debug_frame
  17              		.file 1 "Core/Src/adc.c"
  18              		.section	.text.MX_ADC1_Init,"ax",%progbits
  19              		.align	1
  20              		.global	MX_ADC1_Init
  21              		.syntax unified
  22              		.thumb
  23              		.thumb_func
  25              	MX_ADC1_Init:
  26              	.LFB65:
   1:Core/Src/adc.c **** /* USER CODE BEGIN Header */
   2:Core/Src/adc.c **** /**
   3:Core/Src/adc.c ****   ******************************************************************************
   4:Core/Src/adc.c ****   * @file    adc.c
   5:Core/Src/adc.c ****   * @brief   This file provides code for the configuration
   6:Core/Src/adc.c ****   *          of the ADC instances.
   7:Core/Src/adc.c ****   ******************************************************************************
   8:Core/Src/adc.c ****   * @attention
   9:Core/Src/adc.c ****   *
  10:Core/Src/adc.c ****   * Copyright (c) 2025 STMicroelectronics.
  11:Core/Src/adc.c ****   * All rights reserved.
  12:Core/Src/adc.c ****   *
  13:Core/Src/adc.c ****   * This software is licensed under terms that can be found in the LICENSE file
  14:Core/Src/adc.c ****   * in the root directory of this software component.
  15:Core/Src/adc.c ****   * If no LICENSE file comes with this software, it is provided AS-IS.
  16:Core/Src/adc.c ****   *
  17:Core/Src/adc.c ****   ******************************************************************************
  18:Core/Src/adc.c ****   */
  19:Core/Src/adc.c **** /* USER CODE END Header */
  20:Core/Src/adc.c **** /* Includes ------------------------------------------------------------------*/
  21:Core/Src/adc.c **** #include "adc.h"
  22:Core/Src/adc.c **** 
  23:Core/Src/adc.c **** /* USER CODE BEGIN 0 */
  24:Core/Src/adc.c **** 
  25:Core/Src/adc.c **** /* USER CODE END 0 */
  26:Core/Src/adc.c **** 
  27:Core/Src/adc.c **** ADC_HandleTypeDef hadc1;
  28:Core/Src/adc.c **** 
  29:Core/Src/adc.c **** /* ADC1 init function */
  30:Core/Src/adc.c **** void MX_ADC1_Init(void)
  31:Core/Src/adc.c **** {
  27              		.loc 1 31 1 view -0
ARM GAS  C:\Users\zhmis\AppData\Local\Temp\ccuvnAL9.s 			page 2


  28              		.cfi_startproc
  29              		@ args = 0, pretend = 0, frame = 16
  30              		@ frame_needed = 0, uses_anonymous_args = 0
  31 0000 00B5     		push	{lr}
  32              		.cfi_def_cfa_offset 4
  33              		.cfi_offset 14, -4
  34 0002 85B0     		sub	sp, sp, #20
  35              		.cfi_def_cfa_offset 24
  32:Core/Src/adc.c **** 
  33:Core/Src/adc.c ****   /* USER CODE BEGIN ADC1_Init 0 */
  34:Core/Src/adc.c **** 
  35:Core/Src/adc.c ****   /* USER CODE END ADC1_Init 0 */
  36:Core/Src/adc.c **** 
  37:Core/Src/adc.c ****   ADC_ChannelConfTypeDef sConfig = {0};
  36              		.loc 1 37 3 view .LVU1
  37              		.loc 1 37 26 is_stmt 0 view .LVU2
  38 0004 0023     		movs	r3, #0
  39 0006 0193     		str	r3, [sp, #4]
  40 0008 0293     		str	r3, [sp, #8]
  41 000a 0393     		str	r3, [sp, #12]
  38:Core/Src/adc.c **** 
  39:Core/Src/adc.c ****   /* USER CODE BEGIN ADC1_Init 1 */
  40:Core/Src/adc.c **** 
  41:Core/Src/adc.c ****   /* USER CODE END ADC1_Init 1 */
  42:Core/Src/adc.c **** 
  43:Core/Src/adc.c ****   /** Common config
  44:Core/Src/adc.c ****   */
  45:Core/Src/adc.c ****   hadc1.Instance = ADC1;
  42              		.loc 1 45 3 is_stmt 1 view .LVU3
  43              		.loc 1 45 18 is_stmt 0 view .LVU4
  44 000c 1148     		ldr	r0, .L7
  45 000e 124A     		ldr	r2, .L7+4
  46 0010 0260     		str	r2, [r0]
  46:Core/Src/adc.c ****   hadc1.Init.ScanConvMode = ADC_SCAN_DISABLE;
  47              		.loc 1 46 3 is_stmt 1 view .LVU5
  48              		.loc 1 46 27 is_stmt 0 view .LVU6
  49 0012 8360     		str	r3, [r0, #8]
  47:Core/Src/adc.c ****   hadc1.Init.ContinuousConvMode = DISABLE;
  50              		.loc 1 47 3 is_stmt 1 view .LVU7
  51              		.loc 1 47 33 is_stmt 0 view .LVU8
  52 0014 0373     		strb	r3, [r0, #12]
  48:Core/Src/adc.c ****   hadc1.Init.DiscontinuousConvMode = DISABLE;
  53              		.loc 1 48 3 is_stmt 1 view .LVU9
  54              		.loc 1 48 36 is_stmt 0 view .LVU10
  55 0016 0375     		strb	r3, [r0, #20]
  49:Core/Src/adc.c ****   hadc1.Init.ExternalTrigConv = ADC_SOFTWARE_START;
  56              		.loc 1 49 3 is_stmt 1 view .LVU11
  57              		.loc 1 49 31 is_stmt 0 view .LVU12
  58 0018 4FF46022 		mov	r2, #917504
  59 001c C261     		str	r2, [r0, #28]
  50:Core/Src/adc.c ****   hadc1.Init.DataAlign = ADC_DATAALIGN_RIGHT;
  60              		.loc 1 50 3 is_stmt 1 view .LVU13
  61              		.loc 1 50 24 is_stmt 0 view .LVU14
  62 001e 4360     		str	r3, [r0, #4]
  51:Core/Src/adc.c ****   hadc1.Init.NbrOfConversion = 1;
  63              		.loc 1 51 3 is_stmt 1 view .LVU15
  64              		.loc 1 51 30 is_stmt 0 view .LVU16
ARM GAS  C:\Users\zhmis\AppData\Local\Temp\ccuvnAL9.s 			page 3


  65 0020 0123     		movs	r3, #1
  66 0022 0361     		str	r3, [r0, #16]
  52:Core/Src/adc.c ****   if (HAL_ADC_Init(&hadc1) != HAL_OK)
  67              		.loc 1 52 3 is_stmt 1 view .LVU17
  68              		.loc 1 52 7 is_stmt 0 view .LVU18
  69 0024 FFF7FEFF 		bl	HAL_ADC_Init
  70              	.LVL0:
  71              		.loc 1 52 6 discriminator 1 view .LVU19
  72 0028 68B9     		cbnz	r0, .L5
  73              	.L2:
  53:Core/Src/adc.c ****   {
  54:Core/Src/adc.c ****     Error_Handler();
  55:Core/Src/adc.c ****   }
  56:Core/Src/adc.c **** 
  57:Core/Src/adc.c ****   /** Configure Regular Channel
  58:Core/Src/adc.c ****   */
  59:Core/Src/adc.c ****   sConfig.Channel = ADC_CHANNEL_2;
  74              		.loc 1 59 3 is_stmt 1 view .LVU20
  75              		.loc 1 59 19 is_stmt 0 view .LVU21
  76 002a 0223     		movs	r3, #2
  77 002c 0193     		str	r3, [sp, #4]
  60:Core/Src/adc.c ****   sConfig.Rank = ADC_REGULAR_RANK_1;
  78              		.loc 1 60 3 is_stmt 1 view .LVU22
  79              		.loc 1 60 16 is_stmt 0 view .LVU23
  80 002e 0123     		movs	r3, #1
  81 0030 0293     		str	r3, [sp, #8]
  61:Core/Src/adc.c ****   sConfig.SamplingTime = ADC_SAMPLETIME_1CYCLE_5;
  82              		.loc 1 61 3 is_stmt 1 view .LVU24
  83              		.loc 1 61 24 is_stmt 0 view .LVU25
  84 0032 0023     		movs	r3, #0
  85 0034 0393     		str	r3, [sp, #12]
  62:Core/Src/adc.c ****   if (HAL_ADC_ConfigChannel(&hadc1, &sConfig) != HAL_OK)
  86              		.loc 1 62 3 is_stmt 1 view .LVU26
  87              		.loc 1 62 7 is_stmt 0 view .LVU27
  88 0036 01A9     		add	r1, sp, #4
  89 0038 0648     		ldr	r0, .L7
  90 003a FFF7FEFF 		bl	HAL_ADC_ConfigChannel
  91              	.LVL1:
  92              		.loc 1 62 6 discriminator 1 view .LVU28
  93 003e 28B9     		cbnz	r0, .L6
  94              	.L1:
  63:Core/Src/adc.c ****   {
  64:Core/Src/adc.c ****     Error_Handler();
  65:Core/Src/adc.c ****   }
  66:Core/Src/adc.c ****   /* USER CODE BEGIN ADC1_Init 2 */
  67:Core/Src/adc.c **** 
  68:Core/Src/adc.c ****   /* USER CODE END ADC1_Init 2 */
  69:Core/Src/adc.c **** 
  70:Core/Src/adc.c **** }
  95              		.loc 1 70 1 view .LVU29
  96 0040 05B0     		add	sp, sp, #20
  97              		.cfi_remember_state
  98              		.cfi_def_cfa_offset 4
  99              		@ sp needed
 100 0042 5DF804FB 		ldr	pc, [sp], #4
 101              	.L5:
 102              		.cfi_restore_state
ARM GAS  C:\Users\zhmis\AppData\Local\Temp\ccuvnAL9.s 			page 4


  54:Core/Src/adc.c ****   }
 103              		.loc 1 54 5 is_stmt 1 view .LVU30
 104 0046 FFF7FEFF 		bl	Error_Handler
 105              	.LVL2:
 106 004a EEE7     		b	.L2
 107              	.L6:
  64:Core/Src/adc.c ****   }
 108              		.loc 1 64 5 view .LVU31
 109 004c FFF7FEFF 		bl	Error_Handler
 110              	.LVL3:
 111              		.loc 1 70 1 is_stmt 0 view .LVU32
 112 0050 F6E7     		b	.L1
 113              	.L8:
 114 0052 00BF     		.align	2
 115              	.L7:
 116 0054 00000000 		.word	hadc1
 117 0058 00240140 		.word	1073816576
 118              		.cfi_endproc
 119              	.LFE65:
 121              		.section	.text.HAL_ADC_MspInit,"ax",%progbits
 122              		.align	1
 123              		.global	HAL_ADC_MspInit
 124              		.syntax unified
 125              		.thumb
 126              		.thumb_func
 128              	HAL_ADC_MspInit:
 129              	.LVL4:
 130              	.LFB66:
  71:Core/Src/adc.c **** 
  72:Core/Src/adc.c **** void HAL_ADC_MspInit(ADC_HandleTypeDef* adcHandle)
  73:Core/Src/adc.c **** {
 131              		.loc 1 73 1 is_stmt 1 view -0
 132              		.cfi_startproc
 133              		@ args = 0, pretend = 0, frame = 24
 134              		@ frame_needed = 0, uses_anonymous_args = 0
 135              		.loc 1 73 1 is_stmt 0 view .LVU34
 136 0000 00B5     		push	{lr}
 137              		.cfi_def_cfa_offset 4
 138              		.cfi_offset 14, -4
 139 0002 87B0     		sub	sp, sp, #28
 140              		.cfi_def_cfa_offset 32
  74:Core/Src/adc.c **** 
  75:Core/Src/adc.c ****   GPIO_InitTypeDef GPIO_InitStruct = {0};
 141              		.loc 1 75 3 is_stmt 1 view .LVU35
 142              		.loc 1 75 20 is_stmt 0 view .LVU36
 143 0004 0023     		movs	r3, #0
 144 0006 0293     		str	r3, [sp, #8]
 145 0008 0393     		str	r3, [sp, #12]
 146 000a 0493     		str	r3, [sp, #16]
 147 000c 0593     		str	r3, [sp, #20]
  76:Core/Src/adc.c ****   if(adcHandle->Instance==ADC1)
 148              		.loc 1 76 3 is_stmt 1 view .LVU37
 149              		.loc 1 76 15 is_stmt 0 view .LVU38
 150 000e 0268     		ldr	r2, [r0]
 151              		.loc 1 76 5 view .LVU39
 152 0010 114B     		ldr	r3, .L13
 153 0012 9A42     		cmp	r2, r3
ARM GAS  C:\Users\zhmis\AppData\Local\Temp\ccuvnAL9.s 			page 5


 154 0014 02D0     		beq	.L12
 155              	.LVL5:
 156              	.L9:
  77:Core/Src/adc.c ****   {
  78:Core/Src/adc.c ****   /* USER CODE BEGIN ADC1_MspInit 0 */
  79:Core/Src/adc.c **** 
  80:Core/Src/adc.c ****   /* USER CODE END ADC1_MspInit 0 */
  81:Core/Src/adc.c ****     /* ADC1 clock enable */
  82:Core/Src/adc.c ****     __HAL_RCC_ADC1_CLK_ENABLE();
  83:Core/Src/adc.c **** 
  84:Core/Src/adc.c ****     __HAL_RCC_GPIOA_CLK_ENABLE();
  85:Core/Src/adc.c ****     /**ADC1 GPIO Configuration
  86:Core/Src/adc.c ****     PA2     ------> ADC1_IN2
  87:Core/Src/adc.c ****     PA3     ------> ADC1_IN3
  88:Core/Src/adc.c ****     */
  89:Core/Src/adc.c ****     GPIO_InitStruct.Pin = CS2_Pin|CS1_Pin;
  90:Core/Src/adc.c ****     GPIO_InitStruct.Mode = GPIO_MODE_ANALOG;
  91:Core/Src/adc.c ****     HAL_GPIO_Init(GPIOA, &GPIO_InitStruct);
  92:Core/Src/adc.c **** 
  93:Core/Src/adc.c ****   /* USER CODE BEGIN ADC1_MspInit 1 */
  94:Core/Src/adc.c **** 
  95:Core/Src/adc.c ****   /* USER CODE END ADC1_MspInit 1 */
  96:Core/Src/adc.c ****   }
  97:Core/Src/adc.c **** }
 157              		.loc 1 97 1 view .LVU40
 158 0016 07B0     		add	sp, sp, #28
 159              		.cfi_remember_state
 160              		.cfi_def_cfa_offset 4
 161              		@ sp needed
 162 0018 5DF804FB 		ldr	pc, [sp], #4
 163              	.LVL6:
 164              	.L12:
 165              		.cfi_restore_state
  82:Core/Src/adc.c **** 
 166              		.loc 1 82 5 is_stmt 1 view .LVU41
 167              	.LBB2:
  82:Core/Src/adc.c **** 
 168              		.loc 1 82 5 view .LVU42
  82:Core/Src/adc.c **** 
 169              		.loc 1 82 5 view .LVU43
 170 001c 03F56C43 		add	r3, r3, #60416
 171 0020 9A69     		ldr	r2, [r3, #24]
 172 0022 42F40072 		orr	r2, r2, #512
 173 0026 9A61     		str	r2, [r3, #24]
  82:Core/Src/adc.c **** 
 174              		.loc 1 82 5 view .LVU44
 175 0028 9A69     		ldr	r2, [r3, #24]
 176 002a 02F40072 		and	r2, r2, #512
 177 002e 0092     		str	r2, [sp]
  82:Core/Src/adc.c **** 
 178              		.loc 1 82 5 view .LVU45
 179 0030 009A     		ldr	r2, [sp]
 180              	.LBE2:
  82:Core/Src/adc.c **** 
 181              		.loc 1 82 5 view .LVU46
  84:Core/Src/adc.c ****     /**ADC1 GPIO Configuration
 182              		.loc 1 84 5 view .LVU47
ARM GAS  C:\Users\zhmis\AppData\Local\Temp\ccuvnAL9.s 			page 6


 183              	.LBB3:
  84:Core/Src/adc.c ****     /**ADC1 GPIO Configuration
 184              		.loc 1 84 5 view .LVU48
  84:Core/Src/adc.c ****     /**ADC1 GPIO Configuration
 185              		.loc 1 84 5 view .LVU49
 186 0032 9A69     		ldr	r2, [r3, #24]
 187 0034 42F00402 		orr	r2, r2, #4
 188 0038 9A61     		str	r2, [r3, #24]
  84:Core/Src/adc.c ****     /**ADC1 GPIO Configuration
 189              		.loc 1 84 5 view .LVU50
 190 003a 9B69     		ldr	r3, [r3, #24]
 191 003c 03F00403 		and	r3, r3, #4
 192 0040 0193     		str	r3, [sp, #4]
  84:Core/Src/adc.c ****     /**ADC1 GPIO Configuration
 193              		.loc 1 84 5 view .LVU51
 194 0042 019B     		ldr	r3, [sp, #4]
 195              	.LBE3:
  84:Core/Src/adc.c ****     /**ADC1 GPIO Configuration
 196              		.loc 1 84 5 view .LVU52
  89:Core/Src/adc.c ****     GPIO_InitStruct.Mode = GPIO_MODE_ANALOG;
 197              		.loc 1 89 5 view .LVU53
  89:Core/Src/adc.c ****     GPIO_InitStruct.Mode = GPIO_MODE_ANALOG;
 198              		.loc 1 89 25 is_stmt 0 view .LVU54
 199 0044 0C23     		movs	r3, #12
 200 0046 0293     		str	r3, [sp, #8]
  90:Core/Src/adc.c ****     HAL_GPIO_Init(GPIOA, &GPIO_InitStruct);
 201              		.loc 1 90 5 is_stmt 1 view .LVU55
  90:Core/Src/adc.c ****     HAL_GPIO_Init(GPIOA, &GPIO_InitStruct);
 202              		.loc 1 90 26 is_stmt 0 view .LVU56
 203 0048 0323     		movs	r3, #3
 204 004a 0393     		str	r3, [sp, #12]
  91:Core/Src/adc.c **** 
 205              		.loc 1 91 5 is_stmt 1 view .LVU57
 206 004c 02A9     		add	r1, sp, #8
 207 004e 0348     		ldr	r0, .L13+4
 208              	.LVL7:
  91:Core/Src/adc.c **** 
 209              		.loc 1 91 5 is_stmt 0 view .LVU58
 210 0050 FFF7FEFF 		bl	HAL_GPIO_Init
 211              	.LVL8:
 212              		.loc 1 97 1 view .LVU59
 213 0054 DFE7     		b	.L9
 214              	.L14:
 215 0056 00BF     		.align	2
 216              	.L13:
 217 0058 00240140 		.word	1073816576
 218 005c 00080140 		.word	1073809408
 219              		.cfi_endproc
 220              	.LFE66:
 222              		.section	.text.HAL_ADC_MspDeInit,"ax",%progbits
 223              		.align	1
 224              		.global	HAL_ADC_MspDeInit
 225              		.syntax unified
 226              		.thumb
 227              		.thumb_func
 229              	HAL_ADC_MspDeInit:
 230              	.LVL9:
ARM GAS  C:\Users\zhmis\AppData\Local\Temp\ccuvnAL9.s 			page 7


 231              	.LFB67:
  98:Core/Src/adc.c **** 
  99:Core/Src/adc.c **** void HAL_ADC_MspDeInit(ADC_HandleTypeDef* adcHandle)
 100:Core/Src/adc.c **** {
 232              		.loc 1 100 1 is_stmt 1 view -0
 233              		.cfi_startproc
 234              		@ args = 0, pretend = 0, frame = 0
 235              		@ frame_needed = 0, uses_anonymous_args = 0
 236              		.loc 1 100 1 is_stmt 0 view .LVU61
 237 0000 08B5     		push	{r3, lr}
 238              		.cfi_def_cfa_offset 8
 239              		.cfi_offset 3, -8
 240              		.cfi_offset 14, -4
 101:Core/Src/adc.c **** 
 102:Core/Src/adc.c ****   if(adcHandle->Instance==ADC1)
 241              		.loc 1 102 3 is_stmt 1 view .LVU62
 242              		.loc 1 102 15 is_stmt 0 view .LVU63
 243 0002 0268     		ldr	r2, [r0]
 244              		.loc 1 102 5 view .LVU64
 245 0004 064B     		ldr	r3, .L19
 246 0006 9A42     		cmp	r2, r3
 247 0008 00D0     		beq	.L18
 248              	.LVL10:
 249              	.L15:
 103:Core/Src/adc.c ****   {
 104:Core/Src/adc.c ****   /* USER CODE BEGIN ADC1_MspDeInit 0 */
 105:Core/Src/adc.c **** 
 106:Core/Src/adc.c ****   /* USER CODE END ADC1_MspDeInit 0 */
 107:Core/Src/adc.c ****     /* Peripheral clock disable */
 108:Core/Src/adc.c ****     __HAL_RCC_ADC1_CLK_DISABLE();
 109:Core/Src/adc.c **** 
 110:Core/Src/adc.c ****     /**ADC1 GPIO Configuration
 111:Core/Src/adc.c ****     PA2     ------> ADC1_IN2
 112:Core/Src/adc.c ****     PA3     ------> ADC1_IN3
 113:Core/Src/adc.c ****     */
 114:Core/Src/adc.c ****     HAL_GPIO_DeInit(GPIOA, CS2_Pin|CS1_Pin);
 115:Core/Src/adc.c **** 
 116:Core/Src/adc.c ****   /* USER CODE BEGIN ADC1_MspDeInit 1 */
 117:Core/Src/adc.c **** 
 118:Core/Src/adc.c ****   /* USER CODE END ADC1_MspDeInit 1 */
 119:Core/Src/adc.c ****   }
 120:Core/Src/adc.c **** }
 250              		.loc 1 120 1 view .LVU65
 251 000a 08BD     		pop	{r3, pc}
 252              	.LVL11:
 253              	.L18:
 108:Core/Src/adc.c **** 
 254              		.loc 1 108 5 is_stmt 1 view .LVU66
 255 000c 054A     		ldr	r2, .L19+4
 256 000e 9369     		ldr	r3, [r2, #24]
 257 0010 23F40073 		bic	r3, r3, #512
 258 0014 9361     		str	r3, [r2, #24]
 114:Core/Src/adc.c **** 
 259              		.loc 1 114 5 view .LVU67
 260 0016 0C21     		movs	r1, #12
 261 0018 0348     		ldr	r0, .L19+8
 262              	.LVL12:
ARM GAS  C:\Users\zhmis\AppData\Local\Temp\ccuvnAL9.s 			page 8


 114:Core/Src/adc.c **** 
 263              		.loc 1 114 5 is_stmt 0 view .LVU68
 264 001a FFF7FEFF 		bl	HAL_GPIO_DeInit
 265              	.LVL13:
 266              		.loc 1 120 1 view .LVU69
 267 001e F4E7     		b	.L15
 268              	.L20:
 269              		.align	2
 270              	.L19:
 271 0020 00240140 		.word	1073816576
 272 0024 00100240 		.word	1073876992
 273 0028 00080140 		.word	1073809408
 274              		.cfi_endproc
 275              	.LFE67:
 277              		.global	hadc1
 278              		.section	.bss.hadc1,"aw",%nobits
 279              		.align	2
 282              	hadc1:
 283 0000 00000000 		.space	48
 283      00000000 
 283      00000000 
 283      00000000 
 283      00000000 
 284              		.text
 285              	.Letext0:
 286              		.file 2 "C:/Users/zhmis/AppData/Roaming/Code/User/globalStorage/bmd.stm32-for-vscode/@xpack-dev-to
 287              		.file 3 "C:/Users/zhmis/AppData/Roaming/Code/User/globalStorage/bmd.stm32-for-vscode/@xpack-dev-to
 288              		.file 4 "Drivers/CMSIS/Device/ST/STM32F1xx/Include/stm32f103xb.h"
 289              		.file 5 "Drivers/CMSIS/Device/ST/STM32F1xx/Include/stm32f1xx.h"
 290              		.file 6 "Drivers/STM32F1xx_HAL_Driver/Inc/stm32f1xx_hal_def.h"
 291              		.file 7 "Drivers/STM32F1xx_HAL_Driver/Inc/stm32f1xx_hal_gpio.h"
 292              		.file 8 "Drivers/STM32F1xx_HAL_Driver/Inc/stm32f1xx_hal_dma.h"
 293              		.file 9 "Drivers/STM32F1xx_HAL_Driver/Inc/stm32f1xx_hal_adc.h"
 294              		.file 10 "Core/Inc/adc.h"
 295              		.file 11 "Core/Inc/main.h"
ARM GAS  C:\Users\zhmis\AppData\Local\Temp\ccuvnAL9.s 			page 9

