ARM GAS  C:\Users\zhmis\AppData\Local\Temp\ccI0bOyu.s 			page 1


   1              		.cpu cortex-m3
   2              		.arch armv7-m
   3              		.fpu softvfp
   4              		.eabi_attribute 20, 1
   5              		.eabi_attribute 21, 1
   6              		.eabi_attribute 23, 3
   7              		.eabi_attribute 24, 1
   8              		.eabi_attribute 25, 1
   9              		.eabi_attribute 26, 1
  10              		.eabi_attribute 30, 1
  11              		.eabi_attribute 34, 1
  12              		.eabi_attribute 18, 4
  13              		.file	"adc_current.c"
  14              		.text
  15              	.Ltext0:
  16              		.cfi_sections	.debug_frame
  17              		.file 1 "Core/Src/adc_current.c"
  18              		.section	.text.adc_cur_init,"ax",%progbits
  19              		.align	1
  20              		.global	adc_cur_init
  21              		.syntax unified
  22              		.thumb
  23              		.thumb_func
  25              	adc_cur_init:
  26              	.LFB65:
   1:Core/Src/adc_current.c **** #include "adc_current.h"
   2:Core/Src/adc_current.c **** 
   3:Core/Src/adc_current.c **** volatile uint16_t adc[2];
   4:Core/Src/adc_current.c **** _iq18 current[2];
   5:Core/Src/adc_current.c **** EMA_iq18 filter1, filter2;
   6:Core/Src/adc_current.c **** 
   7:Core/Src/adc_current.c **** 
   8:Core/Src/adc_current.c **** // uint32_t check;
   9:Core/Src/adc_current.c **** 
  10:Core/Src/adc_current.c **** int16_t CS_ADC_M1_Offset = M1_ADC_OFFSET;
  11:Core/Src/adc_current.c **** int16_t CS_ADC_M2_Offset = M2_ADC_OFFSET;
  12:Core/Src/adc_current.c **** float CS_ADC_M1_Gain = 0.00107;
  13:Core/Src/adc_current.c **** float CS_ADC_M2_Gain = 0.00107;
  14:Core/Src/adc_current.c **** 
  15:Core/Src/adc_current.c **** void adc_cur_init()
  16:Core/Src/adc_current.c **** {
  27              		.loc 1 16 1 view -0
  28              		.cfi_startproc
  29              		@ args = 0, pretend = 0, frame = 0
  30              		@ frame_needed = 0, uses_anonymous_args = 0
  31 0000 F8B5     		push	{r3, r4, r5, r6, r7, lr}
  32              		.cfi_def_cfa_offset 24
  33              		.cfi_offset 3, -24
  34              		.cfi_offset 4, -20
  35              		.cfi_offset 5, -16
  36              		.cfi_offset 6, -12
  37              		.cfi_offset 7, -8
  38              		.cfi_offset 14, -4
  17:Core/Src/adc_current.c ****     // Starting DMA for capturing current measures from ADC
  18:Core/Src/adc_current.c ****     HAL_ADC_Start_DMA(&hadc1, (uint32_t *)adc, 2);
  39              		.loc 1 18 5 view .LVU1
  40 0002 0E4C     		ldr	r4, .L3
ARM GAS  C:\Users\zhmis\AppData\Local\Temp\ccI0bOyu.s 			page 2


  41 0004 0222     		movs	r2, #2
  42 0006 2146     		mov	r1, r4
  43 0008 0D48     		ldr	r0, .L3+4
  44 000a FFF7FEFF 		bl	HAL_ADC_Start_DMA
  45              	.LVL0:
  19:Core/Src/adc_current.c **** 
  20:Core/Src/adc_current.c ****     // Initia;lization of filters
  21:Core/Src/adc_current.c ****     initEMA_iq18(&filter1, 0.005, _IQ18(CS_ADC_M1_Offset));
  46              		.loc 1 21 5 view .LVU2
  47 000e 0D4E     		ldr	r6, .L3+8
  48 0010 B6F90020 		ldrsh	r2, [r6]
  49 0014 0C4F     		ldr	r7, .L3+12
  50 0016 9204     		lsls	r2, r2, #18
  51 0018 3946     		mov	r1, r7
  52 001a 0C48     		ldr	r0, .L3+16
  53 001c FFF7FEFF 		bl	initEMA_iq18
  54              	.LVL1:
  22:Core/Src/adc_current.c ****     initEMA_iq18(&filter2, 0.005, _IQ18(CS_ADC_M2_Offset));
  55              		.loc 1 22 5 view .LVU3
  56 0020 0B4D     		ldr	r5, .L3+20
  57 0022 B5F90020 		ldrsh	r2, [r5]
  58 0026 9204     		lsls	r2, r2, #18
  59 0028 3946     		mov	r1, r7
  60 002a 0A48     		ldr	r0, .L3+24
  61 002c FFF7FEFF 		bl	initEMA_iq18
  62              	.LVL2:
  23:Core/Src/adc_current.c ****     adc[0] = CS_ADC_M1_Offset;
  63              		.loc 1 23 5 view .LVU4
  64              		.loc 1 23 12 is_stmt 0 view .LVU5
  65 0030 3388     		ldrh	r3, [r6]
  66 0032 2380     		strh	r3, [r4]	@ movhi
  24:Core/Src/adc_current.c ****     adc[1] = CS_ADC_M2_Offset;
  67              		.loc 1 24 5 is_stmt 1 view .LVU6
  68              		.loc 1 24 12 is_stmt 0 view .LVU7
  69 0034 2B88     		ldrh	r3, [r5]
  70 0036 6380     		strh	r3, [r4, #2]	@ movhi
  25:Core/Src/adc_current.c **** }
  71              		.loc 1 25 1 view .LVU8
  72 0038 F8BD     		pop	{r3, r4, r5, r6, r7, pc}
  73              	.L4:
  74 003a 00BF     		.align	2
  75              	.L3:
  76 003c 00000000 		.word	adc
  77 0040 00000000 		.word	hadc1
  78 0044 00000000 		.word	CS_ADC_M1_Offset
  79 0048 0AD7A33B 		.word	1000593162
  80 004c 00000000 		.word	filter1
  81 0050 00000000 		.word	CS_ADC_M2_Offset
  82 0054 00000000 		.word	filter2
  83              		.cfi_endproc
  84              	.LFE65:
  86              		.global	__aeabi_fmul
  87              		.global	__aeabi_f2iz
  88              		.section	.text.adc_callback_handler,"ax",%progbits
  89              		.align	1
  90              		.global	adc_callback_handler
  91              		.syntax unified
ARM GAS  C:\Users\zhmis\AppData\Local\Temp\ccI0bOyu.s 			page 3


  92              		.thumb
  93              		.thumb_func
  95              	adc_callback_handler:
  96              	.LFB66:
  26:Core/Src/adc_current.c **** 
  27:Core/Src/adc_current.c **** void adc_callback_handler()
  28:Core/Src/adc_current.c **** {
  97              		.loc 1 28 1 is_stmt 1 view -0
  98              		.cfi_startproc
  99              		@ args = 0, pretend = 0, frame = 0
 100              		@ frame_needed = 0, uses_anonymous_args = 0
 101 0000 F8B5     		push	{r3, r4, r5, r6, r7, lr}
 102              		.cfi_def_cfa_offset 24
 103              		.cfi_offset 3, -24
 104              		.cfi_offset 4, -20
 105              		.cfi_offset 5, -16
 106              		.cfi_offset 6, -12
 107              		.cfi_offset 7, -8
 108              		.cfi_offset 14, -4
  29:Core/Src/adc_current.c ****     _iq18 adc0_filtered = updateEMA_iq18(&filter1, _IQ18(adc[0]));
 109              		.loc 1 29 5 view .LVU10
 110              		.loc 1 29 52 is_stmt 0 view .LVU11
 111 0002 184F     		ldr	r7, .L7
 112 0004 3988     		ldrh	r1, [r7]
 113              		.loc 1 29 27 view .LVU12
 114 0006 8904     		lsls	r1, r1, #18
 115 0008 1748     		ldr	r0, .L7+4
 116 000a FFF7FEFF 		bl	updateEMA_iq18
 117              	.LVL3:
 118 000e 0546     		mov	r5, r0
 119              	.LVL4:
  30:Core/Src/adc_current.c ****     current[0] = _IQ18mpy((adc0_filtered - _IQ18(CS_ADC_M1_Offset)), _IQ18(CS_ADC_M1_Gain));
 120              		.loc 1 30 5 is_stmt 1 view .LVU13
 121              		.loc 1 30 44 is_stmt 0 view .LVU14
 122 0010 164B     		ldr	r3, .L7+8
 123 0012 B3F90040 		ldrsh	r4, [r3]
 124 0016 A404     		lsls	r4, r4, #18
 125              		.loc 1 30 70 view .LVU15
 126 0018 4FF09141 		mov	r1, #1216348160
 127 001c 144B     		ldr	r3, .L7+12
 128 001e 1868     		ldr	r0, [r3]	@ float
 129              	.LVL5:
 130              		.loc 1 30 70 view .LVU16
 131 0020 FFF7FEFF 		bl	__aeabi_fmul
 132              	.LVL6:
 133              		.loc 1 30 18 view .LVU17
 134 0024 FFF7FEFF 		bl	__aeabi_f2iz
 135              	.LVL7:
 136 0028 0146     		mov	r1, r0
 137 002a 281B     		subs	r0, r5, r4
 138 002c FFF7FEFF 		bl	_IQ18mpy
 139              	.LVL8:
 140              		.loc 1 30 16 discriminator 1 view .LVU18
 141 0030 104E     		ldr	r6, .L7+16
 142 0032 3060     		str	r0, [r6]
  31:Core/Src/adc_current.c **** 
  32:Core/Src/adc_current.c ****     _iq18 adc1_filtered = updateEMA_iq18(&filter2, _IQ18(adc[1]));
ARM GAS  C:\Users\zhmis\AppData\Local\Temp\ccI0bOyu.s 			page 4


 143              		.loc 1 32 5 is_stmt 1 view .LVU19
 144              		.loc 1 32 52 is_stmt 0 view .LVU20
 145 0034 7988     		ldrh	r1, [r7, #2]
 146              		.loc 1 32 27 view .LVU21
 147 0036 8904     		lsls	r1, r1, #18
 148 0038 0F48     		ldr	r0, .L7+20
 149 003a FFF7FEFF 		bl	updateEMA_iq18
 150              	.LVL9:
 151 003e 0546     		mov	r5, r0
 152              	.LVL10:
  33:Core/Src/adc_current.c ****     current[1] = _IQ18mpy((adc1_filtered - _IQ18(CS_ADC_M2_Offset)), _IQ18(CS_ADC_M2_Gain));
 153              		.loc 1 33 5 is_stmt 1 view .LVU22
 154              		.loc 1 33 44 is_stmt 0 view .LVU23
 155 0040 0E4B     		ldr	r3, .L7+24
 156 0042 B3F90040 		ldrsh	r4, [r3]
 157 0046 A404     		lsls	r4, r4, #18
 158              		.loc 1 33 70 view .LVU24
 159 0048 4FF09141 		mov	r1, #1216348160
 160 004c 0C4B     		ldr	r3, .L7+28
 161 004e 1868     		ldr	r0, [r3]	@ float
 162              	.LVL11:
 163              		.loc 1 33 70 view .LVU25
 164 0050 FFF7FEFF 		bl	__aeabi_fmul
 165              	.LVL12:
 166              		.loc 1 33 18 view .LVU26
 167 0054 FFF7FEFF 		bl	__aeabi_f2iz
 168              	.LVL13:
 169 0058 0146     		mov	r1, r0
 170 005a 281B     		subs	r0, r5, r4
 171 005c FFF7FEFF 		bl	_IQ18mpy
 172              	.LVL14:
 173              		.loc 1 33 16 discriminator 1 view .LVU27
 174 0060 7060     		str	r0, [r6, #4]
  34:Core/Src/adc_current.c **** }
 175              		.loc 1 34 1 view .LVU28
 176 0062 F8BD     		pop	{r3, r4, r5, r6, r7, pc}
 177              	.LVL15:
 178              	.L8:
 179              		.loc 1 34 1 view .LVU29
 180              		.align	2
 181              	.L7:
 182 0064 00000000 		.word	adc
 183 0068 00000000 		.word	filter1
 184 006c 00000000 		.word	CS_ADC_M1_Offset
 185 0070 00000000 		.word	CS_ADC_M1_Gain
 186 0074 00000000 		.word	current
 187 0078 00000000 		.word	filter2
 188 007c 00000000 		.word	CS_ADC_M2_Offset
 189 0080 00000000 		.word	CS_ADC_M2_Gain
 190              		.cfi_endproc
 191              	.LFE66:
 193              		.section	.text.HAL_ADC_ConvCpltCallback,"ax",%progbits
 194              		.align	1
 195              		.global	HAL_ADC_ConvCpltCallback
 196              		.syntax unified
 197              		.thumb
 198              		.thumb_func
ARM GAS  C:\Users\zhmis\AppData\Local\Temp\ccI0bOyu.s 			page 5


 200              	HAL_ADC_ConvCpltCallback:
 201              	.LVL16:
 202              	.LFB67:
  35:Core/Src/adc_current.c **** 
  36:Core/Src/adc_current.c **** void HAL_ADC_ConvCpltCallback(ADC_HandleTypeDef *hadc)
  37:Core/Src/adc_current.c **** {
 203              		.loc 1 37 1 is_stmt 1 view -0
 204              		.cfi_startproc
 205              		@ args = 0, pretend = 0, frame = 0
 206              		@ frame_needed = 0, uses_anonymous_args = 0
 207              		.loc 1 37 1 is_stmt 0 view .LVU31
 208 0000 08B5     		push	{r3, lr}
 209              		.cfi_def_cfa_offset 8
 210              		.cfi_offset 3, -8
 211              		.cfi_offset 14, -4
  38:Core/Src/adc_current.c ****     adc_callback_handler();
 212              		.loc 1 38 5 is_stmt 1 view .LVU32
 213 0002 FFF7FEFF 		bl	adc_callback_handler
 214              	.LVL17:
  39:Core/Src/adc_current.c **** }...
 215              		.loc 1 39 1 is_stmt 0 view .LVU33
 216 0006 08BD     		pop	{r3, pc}
 217              		.cfi_endproc
 218              	.LFE67:
 220              		.global	CS_ADC_M2_Gain
 221              		.section	.data.CS_ADC_M2_Gain,"aw"
 222              		.align	2
 225              	CS_ADC_M2_Gain:
 226 0000 3E3F8C3A 		.word	982269758
 227              		.global	CS_ADC_M1_Gain
 228              		.section	.data.CS_ADC_M1_Gain,"aw"
 229              		.align	2
 232              	CS_ADC_M1_Gain:
 233 0000 3E3F8C3A 		.word	982269758
 234              		.global	CS_ADC_M2_Offset
 235              		.section	.data.CS_ADC_M2_Offset,"aw"
 236              		.align	1
 239              	CS_ADC_M2_Offset:
 240 0000 0108     		.short	2049
 241              		.global	CS_ADC_M1_Offset
 242              		.section	.data.CS_ADC_M1_Offset,"aw"
 243              		.align	1
 246              	CS_ADC_M1_Offset:
 247 0000 0808     		.short	2056
 248              		.global	filter2
 249              		.section	.bss.filter2,"aw",%nobits
 250              		.align	2
 253              	filter2:
 254 0000 00000000 		.space	8
 254      00000000 
 255              		.global	filter1
 256              		.section	.bss.filter1,"aw",%nobits
 257              		.align	2
 260              	filter1:
 261 0000 00000000 		.space	8
 261      00000000 
 262              		.global	current
ARM GAS  C:\Users\zhmis\AppData\Local\Temp\ccI0bOyu.s 			page 6


 263              		.section	.bss.current,"aw",%nobits
 264              		.align	2
 267              	current:
 268 0000 00000000 		.space	8
 268      00000000 
 269              		.global	adc
 270              		.section	.bss.adc,"aw",%nobits
 271              		.align	2
 274              	adc:
 275 0000 00000000 		.space	4
 276              		.text
 277              	.Letext0:
 278              		.file 2 "C:/Users/zhmis/AppData/Roaming/Code/User/globalStorage/bmd.stm32-for-vscode/@xpack-dev-to
 279              		.file 3 "C:/Users/zhmis/AppData/Roaming/Code/User/globalStorage/bmd.stm32-for-vscode/@xpack-dev-to
 280              		.file 4 "Drivers/CMSIS/Device/ST/STM32F1xx/Include/stm32f103xb.h"
 281              		.file 5 "Drivers/CMSIS/Device/ST/STM32F1xx/Include/stm32f1xx.h"
 282              		.file 6 "Drivers/STM32F1xx_HAL_Driver/Inc/stm32f1xx_hal_def.h"
 283              		.file 7 "Drivers/STM32F1xx_HAL_Driver/Inc/stm32f1xx_hal_dma.h"
 284              		.file 8 "Drivers/STM32F1xx_HAL_Driver/Inc/stm32f1xx_hal_adc.h"
 285              		.file 9 "Core/Inc/IQmathLib.h"
 286              		.file 10 "Core/Inc/ema_iq18.h"
 287              		.file 11 "Core/Inc/adc.h"
 288              		.file 12 "Core/Inc/adc_current.h"
ARM GAS  C:\Users\zhmis\AppData\Local\Temp\ccI0bOyu.s 			page 7

