ARM GAS  C:\Users\zhmis\AppData\Local\Temp\ccl44fcj.s 			page 1


   1              		.cpu cortex-m3
   2              		.arch armv7-m
   3              		.fpu softvfp
   4              		.eabi_attribute 20, 1
   5              		.eabi_attribute 21, 1
   6              		.eabi_attribute 23, 3
   7              		.eabi_attribute 24, 1
   8              		.eabi_attribute 25, 1
   9              		.eabi_attribute 26, 1
  10              		.eabi_attribute 30, 1
  11              		.eabi_attribute 34, 1
  12              		.eabi_attribute 18, 4
  13              		.file	"drv8106.c"
  14              		.text
  15              	.Ltext0:
  16              		.cfi_sections	.debug_frame
  17              		.file 1 "Core/Src/drv8106.c"
  18              		.section	.text.drv8106_read_reg_blocking,"ax",%progbits
  19              		.align	1
  20              		.global	drv8106_read_reg_blocking
  21              		.syntax unified
  22              		.thumb
  23              		.thumb_func
  25              	drv8106_read_reg_blocking:
  26              	.LVL0:
  27              	.LFB65:
   1:Core/Src/drv8106.c **** #include "drv8106.h"
   2:Core/Src/drv8106.c **** 
   3:Core/Src/drv8106.c **** void drv8106_read_reg_blocking(drv8106_spi* spi_inst, uint8_t reg_addr)
   4:Core/Src/drv8106.c **** {
  28              		.loc 1 4 1 view -0
  29              		.cfi_startproc
  30              		@ args = 0, pretend = 0, frame = 8
  31              		@ frame_needed = 0, uses_anonymous_args = 0
  32              		.loc 1 4 1 is_stmt 0 view .LVU1
  33 0000 10B5     		push	{r4, lr}
  34              		.cfi_def_cfa_offset 8
  35              		.cfi_offset 4, -8
  36              		.cfi_offset 14, -4
  37 0002 84B0     		sub	sp, sp, #16
  38              		.cfi_def_cfa_offset 24
  39 0004 0446     		mov	r4, r0
   5:Core/Src/drv8106.c ****     uint16_t tx = (reg_addr | DRV8106_READ_MASK) << 8;
  40              		.loc 1 5 5 is_stmt 1 view .LVU2
  41              		.loc 1 5 50 is_stmt 0 view .LVU3
  42 0006 41F04001 		orr	r1, r1, #64
  43              	.LVL1:
  44              		.loc 1 5 50 view .LVU4
  45 000a 0902     		lsls	r1, r1, #8
  46              		.loc 1 5 14 view .LVU5
  47 000c ADF80E10 		strh	r1, [sp, #14]	@ movhi
   6:Core/Src/drv8106.c **** 
   7:Core/Src/drv8106.c ****     HAL_GPIO_WritePin(spi_inst->CS_PORT, spi_inst->CS_PIN, GPIO_PIN_RESET);
  48              		.loc 1 7 5 is_stmt 1 view .LVU6
  49 0010 0022     		movs	r2, #0
  50 0012 0189     		ldrh	r1, [r0, #8]
  51 0014 4068     		ldr	r0, [r0, #4]
ARM GAS  C:\Users\zhmis\AppData\Local\Temp\ccl44fcj.s 			page 2


  52              	.LVL2:
  53              		.loc 1 7 5 is_stmt 0 view .LVU7
  54 0016 FFF7FEFF 		bl	HAL_GPIO_WritePin
  55              	.LVL3:
   8:Core/Src/drv8106.c ****     HAL_SPI_TransmitReceive(spi_inst->spi_handler_ptr, (uint8_t*)&tx, (uint8_t*)&spi_inst->rxbuff, 
  56              		.loc 1 8 5 is_stmt 1 view .LVU8
  57              		.loc 1 8 81 is_stmt 0 view .LVU9
  58 001a 2246     		mov	r2, r4
  59              		.loc 1 8 5 view .LVU10
  60 001c 52F80A0B 		ldr	r0, [r2], #10
  61 0020 4FF0FF33 		mov	r3, #-1
  62 0024 0093     		str	r3, [sp]
  63 0026 0123     		movs	r3, #1
  64 0028 0DF10E01 		add	r1, sp, #14
  65 002c FFF7FEFF 		bl	HAL_SPI_TransmitReceive
  66              	.LVL4:
   9:Core/Src/drv8106.c ****     HAL_GPIO_WritePin(spi_inst->CS_PORT, spi_inst->CS_PIN, GPIO_PIN_SET);
  67              		.loc 1 9 5 is_stmt 1 view .LVU11
  68 0030 0122     		movs	r2, #1
  69 0032 2189     		ldrh	r1, [r4, #8]
  70 0034 6068     		ldr	r0, [r4, #4]
  71 0036 FFF7FEFF 		bl	HAL_GPIO_WritePin
  72              	.LVL5:
  10:Core/Src/drv8106.c ****     // HAL_Delay(1); // in case it doesnt manage to flip CS
  11:Core/Src/drv8106.c **** }
  73              		.loc 1 11 1 is_stmt 0 view .LVU12
  74 003a 04B0     		add	sp, sp, #16
  75              		.cfi_def_cfa_offset 8
  76              		@ sp needed
  77 003c 10BD     		pop	{r4, pc}
  78              		.loc 1 11 1 view .LVU13
  79              		.cfi_endproc
  80              	.LFE65:
  82              		.section	.text.drv8106_write_reg_blocking,"ax",%progbits
  83              		.align	1
  84              		.global	drv8106_write_reg_blocking
  85              		.syntax unified
  86              		.thumb
  87              		.thumb_func
  89              	drv8106_write_reg_blocking:
  90              	.LVL6:
  91              	.LFB66:
  12:Core/Src/drv8106.c **** 
  13:Core/Src/drv8106.c **** void drv8106_write_reg_blocking(drv8106_spi* spi_inst, uint8_t reg_addr, uint8_t data){
  92              		.loc 1 13 87 is_stmt 1 view -0
  93              		.cfi_startproc
  94              		@ args = 0, pretend = 0, frame = 8
  95              		@ frame_needed = 0, uses_anonymous_args = 0
  96              		.loc 1 13 87 is_stmt 0 view .LVU15
  97 0000 10B5     		push	{r4, lr}
  98              		.cfi_def_cfa_offset 8
  99              		.cfi_offset 4, -8
 100              		.cfi_offset 14, -4
 101 0002 84B0     		sub	sp, sp, #16
 102              		.cfi_def_cfa_offset 24
 103 0004 0446     		mov	r4, r0
  14:Core/Src/drv8106.c ****     uint16_t tx;
ARM GAS  C:\Users\zhmis\AppData\Local\Temp\ccl44fcj.s 			page 3


 104              		.loc 1 14 5 is_stmt 1 view .LVU16
  15:Core/Src/drv8106.c ****     tx = (reg_addr << 8) | data;
 105              		.loc 1 15 5 view .LVU17
 106              		.loc 1 15 26 is_stmt 0 view .LVU18
 107 0006 42EA0122 		orr	r2, r2, r1, lsl #8
 108              	.LVL7:
 109              		.loc 1 15 8 view .LVU19
 110 000a ADF80E20 		strh	r2, [sp, #14]	@ movhi
  16:Core/Src/drv8106.c **** 
  17:Core/Src/drv8106.c ****     HAL_GPIO_WritePin(spi_inst->CS_PORT, spi_inst->CS_PIN, GPIO_PIN_RESET);
 111              		.loc 1 17 5 is_stmt 1 view .LVU20
 112 000e 0022     		movs	r2, #0
 113 0010 0189     		ldrh	r1, [r0, #8]
 114              	.LVL8:
 115              		.loc 1 17 5 is_stmt 0 view .LVU21
 116 0012 4068     		ldr	r0, [r0, #4]
 117              	.LVL9:
 118              		.loc 1 17 5 view .LVU22
 119 0014 FFF7FEFF 		bl	HAL_GPIO_WritePin
 120              	.LVL10:
  18:Core/Src/drv8106.c ****     HAL_SPI_TransmitReceive(spi_inst->spi_handler_ptr, (uint8_t*)&tx, (uint8_t*)&spi_inst->rxbuff, 
 121              		.loc 1 18 5 is_stmt 1 view .LVU23
 122              		.loc 1 18 81 is_stmt 0 view .LVU24
 123 0018 2246     		mov	r2, r4
 124              		.loc 1 18 5 view .LVU25
 125 001a 52F80A0B 		ldr	r0, [r2], #10
 126 001e 4FF0FF33 		mov	r3, #-1
 127 0022 0093     		str	r3, [sp]
 128 0024 0123     		movs	r3, #1
 129 0026 0DF10E01 		add	r1, sp, #14
 130 002a FFF7FEFF 		bl	HAL_SPI_TransmitReceive
 131              	.LVL11:
  19:Core/Src/drv8106.c ****     HAL_GPIO_WritePin(spi_inst->CS_PORT, spi_inst->CS_PIN, GPIO_PIN_SET);
 132              		.loc 1 19 5 is_stmt 1 view .LVU26
 133 002e 0122     		movs	r2, #1
 134 0030 2189     		ldrh	r1, [r4, #8]
 135 0032 6068     		ldr	r0, [r4, #4]
 136 0034 FFF7FEFF 		bl	HAL_GPIO_WritePin
 137              	.LVL12:
  20:Core/Src/drv8106.c ****     // HAL_Delay(1); // in case it doesnt manage to flip CS
  21:Core/Src/drv8106.c **** }
 138              		.loc 1 21 1 is_stmt 0 view .LVU27
 139 0038 04B0     		add	sp, sp, #16
 140              		.cfi_def_cfa_offset 8
 141              		@ sp needed
 142 003a 10BD     		pop	{r4, pc}
 143              		.loc 1 21 1 view .LVU28
 144              		.cfi_endproc
 145              	.LFE66:
 147              		.section	.text.drv8106_read_all_blocking,"ax",%progbits
 148              		.align	1
 149              		.global	drv8106_read_all_blocking
 150              		.syntax unified
 151              		.thumb
 152              		.thumb_func
 154              	drv8106_read_all_blocking:
 155              	.LVL13:
ARM GAS  C:\Users\zhmis\AppData\Local\Temp\ccl44fcj.s 			page 4


 156              	.LFB67:
  22:Core/Src/drv8106.c **** 
  23:Core/Src/drv8106.c **** 
  24:Core/Src/drv8106.c **** void drv8106_read_all_blocking(drv8106_spi* spi_inst){
 157              		.loc 1 24 54 is_stmt 1 view -0
 158              		.cfi_startproc
 159              		@ args = 0, pretend = 0, frame = 0
 160              		@ frame_needed = 0, uses_anonymous_args = 0
 161              		.loc 1 24 54 is_stmt 0 view .LVU30
 162 0000 10B5     		push	{r4, lr}
 163              		.cfi_def_cfa_offset 8
 164              		.cfi_offset 4, -8
 165              		.cfi_offset 14, -4
 166 0002 0446     		mov	r4, r0
  25:Core/Src/drv8106.c ****     drv8106_read_reg_blocking(spi_inst, DRV8106_IC_STAT_1);
 167              		.loc 1 25 5 is_stmt 1 view .LVU31
 168 0004 0021     		movs	r1, #0
 169 0006 FFF7FEFF 		bl	drv8106_read_reg_blocking
 170              	.LVL14:
  26:Core/Src/drv8106.c ****     spi_inst->register_map.IC_STAT_1 = (uint8_t)(spi_inst->rxbuff & 0xFF);
 171              		.loc 1 26 5 view .LVU32
 172              		.loc 1 26 40 is_stmt 0 view .LVU33
 173 000a A37A     		ldrb	r3, [r4, #10]	@ zero_extendqisi2
 174              		.loc 1 26 38 view .LVU34
 175 000c A373     		strb	r3, [r4, #14]
  27:Core/Src/drv8106.c **** 
  28:Core/Src/drv8106.c ****     //TODO:
  29:Core/Src/drv8106.c **** }
 176              		.loc 1 29 1 view .LVU35
 177 000e 10BD     		pop	{r4, pc}
 178              		.loc 1 29 1 view .LVU36
 179              		.cfi_endproc
 180              	.LFE67:
 182              		.section	.text.drv8106_reset_blocking,"ax",%progbits
 183              		.align	1
 184              		.global	drv8106_reset_blocking
 185              		.syntax unified
 186              		.thumb
 187              		.thumb_func
 189              	drv8106_reset_blocking:
 190              	.LVL15:
 191              	.LFB68:
  30:Core/Src/drv8106.c **** 
  31:Core/Src/drv8106.c **** void drv8106_reset_blocking(drv8106_spi* spi_inst){
 192              		.loc 1 31 51 is_stmt 1 view -0
 193              		.cfi_startproc
 194              		@ args = 0, pretend = 0, frame = 0
 195              		@ frame_needed = 0, uses_anonymous_args = 0
 196              		.loc 1 31 51 is_stmt 0 view .LVU38
 197 0000 10B5     		push	{r4, lr}
 198              		.cfi_def_cfa_offset 8
 199              		.cfi_offset 4, -8
 200              		.cfi_offset 14, -4
 201 0002 0446     		mov	r4, r0
  32:Core/Src/drv8106.c **** 
  33:Core/Src/drv8106.c ****     drv8106_write_reg_blocking(spi_inst, DRV8106_IC_CTRL, DRV8106_IC_CTRL_DEFAULT);
 202              		.loc 1 33 5 is_stmt 1 view .LVU39
ARM GAS  C:\Users\zhmis\AppData\Local\Temp\ccl44fcj.s 			page 5


 203 0004 0622     		movs	r2, #6
 204 0006 0421     		movs	r1, #4
 205 0008 FFF7FEFF 		bl	drv8106_write_reg_blocking
 206              	.LVL16:
  34:Core/Src/drv8106.c ****     drv8106_write_reg_blocking(spi_inst, DRV8106_BRG_CTRL, DRV8106_BRG_CTRL_DEFAULT);
 207              		.loc 1 34 5 view .LVU40
 208 000c 0022     		movs	r2, #0
 209 000e 0521     		movs	r1, #5
 210 0010 2046     		mov	r0, r4
 211 0012 FFF7FEFF 		bl	drv8106_write_reg_blocking
 212              	.LVL17:
  35:Core/Src/drv8106.c ****     drv8106_write_reg_blocking(spi_inst, DRV8106_DRV_CTRL_1, DRV8106_DRV_CTRL_1_DEFAULT);
 213              		.loc 1 35 5 view .LVU41
 214 0016 FF22     		movs	r2, #255
 215 0018 0621     		movs	r1, #6
 216 001a 2046     		mov	r0, r4
 217 001c FFF7FEFF 		bl	drv8106_write_reg_blocking
 218              	.LVL18:
  36:Core/Src/drv8106.c ****     drv8106_write_reg_blocking(spi_inst, DRV8106_DRV_CTRL_2, DRV8106_DRV_CTRL_2_DEFAULT);
 219              		.loc 1 36 5 view .LVU42
 220 0020 FF22     		movs	r2, #255
 221 0022 0721     		movs	r1, #7
 222 0024 2046     		mov	r0, r4
 223 0026 FFF7FEFF 		bl	drv8106_write_reg_blocking
 224              	.LVL19:
  37:Core/Src/drv8106.c ****     drv8106_write_reg_blocking(spi_inst, DRV8106_DRV_CTRL_3, DRV8106_DRV_CTRL_3_DEFAULT);
 225              		.loc 1 37 5 view .LVU43
 226 002a 2022     		movs	r2, #32
 227 002c 0821     		movs	r1, #8
 228 002e 2046     		mov	r0, r4
 229 0030 FFF7FEFF 		bl	drv8106_write_reg_blocking
 230              	.LVL20:
  38:Core/Src/drv8106.c ****     drv8106_write_reg_blocking(spi_inst, DRV8106_VDS_CTRL_1, DRV8106_VDS_CTRL_1_DEFAULT);
 231              		.loc 1 38 5 view .LVU44
 232 0034 2022     		movs	r2, #32
 233 0036 0921     		movs	r1, #9
 234 0038 2046     		mov	r0, r4
 235 003a FFF7FEFF 		bl	drv8106_write_reg_blocking
 236              	.LVL21:
  39:Core/Src/drv8106.c ****     drv8106_write_reg_blocking(spi_inst, DRV8106_VDS_CTRL_2, DRV8106_VDS_CTRL_2_DEFAULT);
 237              		.loc 1 39 5 view .LVU45
 238 003e DD22     		movs	r2, #221
 239 0040 0A21     		movs	r1, #10
 240 0042 2046     		mov	r0, r4
 241 0044 FFF7FEFF 		bl	drv8106_write_reg_blocking
 242              	.LVL22:
  40:Core/Src/drv8106.c ****     drv8106_write_reg_blocking(spi_inst, DRV8106_OLSC_CTRL, DRV8106_OLSC_CTRL_DEFAULT);
 243              		.loc 1 40 5 view .LVU46
 244 0048 0022     		movs	r2, #0
 245 004a 0B21     		movs	r1, #11
 246 004c 2046     		mov	r0, r4
 247 004e FFF7FEFF 		bl	drv8106_write_reg_blocking
 248              	.LVL23:
  41:Core/Src/drv8106.c ****     drv8106_write_reg_blocking(spi_inst, DRV8106_UVOV_CTRL, DRV8106_UVOV_CTRL_DEFAULT);
 249              		.loc 1 41 5 view .LVU47
 250 0052 1422     		movs	r2, #20
 251 0054 0C21     		movs	r1, #12
ARM GAS  C:\Users\zhmis\AppData\Local\Temp\ccl44fcj.s 			page 6


 252 0056 2046     		mov	r0, r4
 253 0058 FFF7FEFF 		bl	drv8106_write_reg_blocking
 254              	.LVL24:
  42:Core/Src/drv8106.c ****     drv8106_write_reg_blocking(spi_inst, DRV8106_CSA_CTRL, DRV8106_CSA_CTRL_DEFAULT);
 255              		.loc 1 42 5 view .LVU48
 256 005c 0122     		movs	r2, #1
 257 005e 0D21     		movs	r1, #13
 258 0060 2046     		mov	r0, r4
 259 0062 FFF7FEFF 		bl	drv8106_write_reg_blocking
 260              	.LVL25:
  43:Core/Src/drv8106.c ****     
  44:Core/Src/drv8106.c **** }...
 261              		.loc 1 44 1 is_stmt 0 view .LVU49
 262 0066 10BD     		pop	{r4, pc}
 263              		.loc 1 44 1 view .LVU50
 264              		.cfi_endproc
 265              	.LFE68:
 267              		.text
 268              	.Letext0:
 269              		.file 2 "C:/Users/zhmis/AppData/Roaming/Code/User/globalStorage/bmd.stm32-for-vscode/@xpack-dev-to
 270              		.file 3 "C:/Users/zhmis/AppData/Roaming/Code/User/globalStorage/bmd.stm32-for-vscode/@xpack-dev-to
 271              		.file 4 "Drivers/CMSIS/Device/ST/STM32F1xx/Include/stm32f103xb.h"
 272              		.file 5 "Drivers/STM32F1xx_HAL_Driver/Inc/stm32f1xx_hal_def.h"
 273              		.file 6 "Drivers/STM32F1xx_HAL_Driver/Inc/stm32f1xx_hal_gpio.h"
 274              		.file 7 "Drivers/STM32F1xx_HAL_Driver/Inc/stm32f1xx_hal_dma.h"
 275              		.file 8 "Drivers/STM32F1xx_HAL_Driver/Inc/stm32f1xx_hal_spi.h"
 276              		.file 9 "Core/Inc/drv8106.h"
ARM GAS  C:\Users\zhmis\AppData\Local\Temp\ccl44fcj.s 			page 7

