ARM GAS  C:\Users\zhmis\AppData\Local\Temp\ccl445hh.s 			page 1


   1              		.cpu cortex-m3
   2              		.arch armv7-m
   3              		.fpu softvfp
   4              		.eabi_attribute 20, 1
   5              		.eabi_attribute 21, 1
   6              		.eabi_attribute 23, 3
   7              		.eabi_attribute 24, 1
   8              		.eabi_attribute 25, 1
   9              		.eabi_attribute 26, 1
  10              		.eabi_attribute 30, 1
  11              		.eabi_attribute 34, 1
  12              		.eabi_attribute 18, 4
  13              		.file	"gpio.c"
  14              		.text
  15              	.Ltext0:
  16              		.cfi_sections	.debug_frame
  17              		.file 1 "Core/Src/gpio.c"
  18              		.section	.text.MX_GPIO_Init,"ax",%progbits
  19              		.align	1
  20              		.global	MX_GPIO_Init
  21              		.syntax unified
  22              		.thumb
  23              		.thumb_func
  25              	MX_GPIO_Init:
  26              	.LFB65:
   1:Core/Src/gpio.c **** /* USER CODE BEGIN Header */
   2:Core/Src/gpio.c **** /**
   3:Core/Src/gpio.c ****   ******************************************************************************
   4:Core/Src/gpio.c ****   * @file    gpio.c
   5:Core/Src/gpio.c ****   * @brief   This file provides code for the configuration
   6:Core/Src/gpio.c ****   *          of all used GPIO pins.
   7:Core/Src/gpio.c ****   ******************************************************************************
   8:Core/Src/gpio.c ****   * @attention
   9:Core/Src/gpio.c ****   *
  10:Core/Src/gpio.c ****   * Copyright (c) 2025 STMicroelectronics.
  11:Core/Src/gpio.c ****   * All rights reserved.
  12:Core/Src/gpio.c ****   *
  13:Core/Src/gpio.c ****   * This software is licensed under terms that can be found in the LICENSE file
  14:Core/Src/gpio.c ****   * in the root directory of this software component.
  15:Core/Src/gpio.c ****   * If no LICENSE file comes with this software, it is provided AS-IS.
  16:Core/Src/gpio.c ****   *
  17:Core/Src/gpio.c ****   ******************************************************************************
  18:Core/Src/gpio.c ****   */
  19:Core/Src/gpio.c **** /* USER CODE END Header */
  20:Core/Src/gpio.c **** 
  21:Core/Src/gpio.c **** /* Includes ------------------------------------------------------------------*/
  22:Core/Src/gpio.c **** #include "gpio.h"
  23:Core/Src/gpio.c **** 
  24:Core/Src/gpio.c **** /* USER CODE BEGIN 0 */
  25:Core/Src/gpio.c **** 
  26:Core/Src/gpio.c **** /* USER CODE END 0 */
  27:Core/Src/gpio.c **** 
  28:Core/Src/gpio.c **** /*----------------------------------------------------------------------------*/
  29:Core/Src/gpio.c **** /* Configure GPIO                                                             */
  30:Core/Src/gpio.c **** /*----------------------------------------------------------------------------*/
  31:Core/Src/gpio.c **** /* USER CODE BEGIN 1 */
  32:Core/Src/gpio.c **** 
ARM GAS  C:\Users\zhmis\AppData\Local\Temp\ccl445hh.s 			page 2


  33:Core/Src/gpio.c **** /* USER CODE END 1 */
  34:Core/Src/gpio.c **** 
  35:Core/Src/gpio.c **** /** Configure pins as
  36:Core/Src/gpio.c ****         * Analog
  37:Core/Src/gpio.c ****         * Input
  38:Core/Src/gpio.c ****         * Output
  39:Core/Src/gpio.c ****         * EVENT_OUT
  40:Core/Src/gpio.c ****         * EXTI
  41:Core/Src/gpio.c **** */
  42:Core/Src/gpio.c **** void MX_GPIO_Init(void)
  43:Core/Src/gpio.c **** {
  27              		.loc 1 43 1 view -0
  28              		.cfi_startproc
  29              		@ args = 0, pretend = 0, frame = 32
  30              		@ frame_needed = 0, uses_anonymous_args = 0
  31 0000 2DE9F047 		push	{r4, r5, r6, r7, r8, r9, r10, lr}
  32              		.cfi_def_cfa_offset 32
  33              		.cfi_offset 4, -32
  34              		.cfi_offset 5, -28
  35              		.cfi_offset 6, -24
  36              		.cfi_offset 7, -20
  37              		.cfi_offset 8, -16
  38              		.cfi_offset 9, -12
  39              		.cfi_offset 10, -8
  40              		.cfi_offset 14, -4
  41 0004 88B0     		sub	sp, sp, #32
  42              		.cfi_def_cfa_offset 64
  44:Core/Src/gpio.c **** 
  45:Core/Src/gpio.c ****   GPIO_InitTypeDef GPIO_InitStruct = {0};
  43              		.loc 1 45 3 view .LVU1
  44              		.loc 1 45 20 is_stmt 0 view .LVU2
  45 0006 0024     		movs	r4, #0
  46 0008 0494     		str	r4, [sp, #16]
  47 000a 0594     		str	r4, [sp, #20]
  48 000c 0694     		str	r4, [sp, #24]
  49 000e 0794     		str	r4, [sp, #28]
  46:Core/Src/gpio.c **** 
  47:Core/Src/gpio.c ****   /* GPIO Ports Clock Enable */
  48:Core/Src/gpio.c ****   __HAL_RCC_GPIOC_CLK_ENABLE();
  50              		.loc 1 48 3 is_stmt 1 view .LVU3
  51              	.LBB2:
  52              		.loc 1 48 3 view .LVU4
  53              		.loc 1 48 3 view .LVU5
  54 0010 4C4B     		ldr	r3, .L3
  55 0012 9A69     		ldr	r2, [r3, #24]
  56 0014 42F01002 		orr	r2, r2, #16
  57 0018 9A61     		str	r2, [r3, #24]
  58              		.loc 1 48 3 view .LVU6
  59 001a 9A69     		ldr	r2, [r3, #24]
  60 001c 02F01002 		and	r2, r2, #16
  61 0020 0092     		str	r2, [sp]
  62              		.loc 1 48 3 view .LVU7
  63 0022 009A     		ldr	r2, [sp]
  64              	.LBE2:
  65              		.loc 1 48 3 view .LVU8
  49:Core/Src/gpio.c ****   __HAL_RCC_GPIOD_CLK_ENABLE();
  66              		.loc 1 49 3 view .LVU9
ARM GAS  C:\Users\zhmis\AppData\Local\Temp\ccl445hh.s 			page 3


  67              	.LBB3:
  68              		.loc 1 49 3 view .LVU10
  69              		.loc 1 49 3 view .LVU11
  70 0024 9A69     		ldr	r2, [r3, #24]
  71 0026 42F02002 		orr	r2, r2, #32
  72 002a 9A61     		str	r2, [r3, #24]
  73              		.loc 1 49 3 view .LVU12
  74 002c 9A69     		ldr	r2, [r3, #24]
  75 002e 02F02002 		and	r2, r2, #32
  76 0032 0192     		str	r2, [sp, #4]
  77              		.loc 1 49 3 view .LVU13
  78 0034 019A     		ldr	r2, [sp, #4]
  79              	.LBE3:
  80              		.loc 1 49 3 view .LVU14
  50:Core/Src/gpio.c ****   __HAL_RCC_GPIOA_CLK_ENABLE();
  81              		.loc 1 50 3 view .LVU15
  82              	.LBB4:
  83              		.loc 1 50 3 view .LVU16
  84              		.loc 1 50 3 view .LVU17
  85 0036 9A69     		ldr	r2, [r3, #24]
  86 0038 42F00402 		orr	r2, r2, #4
  87 003c 9A61     		str	r2, [r3, #24]
  88              		.loc 1 50 3 view .LVU18
  89 003e 9A69     		ldr	r2, [r3, #24]
  90 0040 02F00402 		and	r2, r2, #4
  91 0044 0292     		str	r2, [sp, #8]
  92              		.loc 1 50 3 view .LVU19
  93 0046 029A     		ldr	r2, [sp, #8]
  94              	.LBE4:
  95              		.loc 1 50 3 view .LVU20
  51:Core/Src/gpio.c ****   __HAL_RCC_GPIOB_CLK_ENABLE();
  96              		.loc 1 51 3 view .LVU21
  97              	.LBB5:
  98              		.loc 1 51 3 view .LVU22
  99              		.loc 1 51 3 view .LVU23
 100 0048 9A69     		ldr	r2, [r3, #24]
 101 004a 42F00802 		orr	r2, r2, #8
 102 004e 9A61     		str	r2, [r3, #24]
 103              		.loc 1 51 3 view .LVU24
 104 0050 9B69     		ldr	r3, [r3, #24]
 105 0052 03F00803 		and	r3, r3, #8
 106 0056 0393     		str	r3, [sp, #12]
 107              		.loc 1 51 3 view .LVU25
 108 0058 039B     		ldr	r3, [sp, #12]
 109              	.LBE5:
 110              		.loc 1 51 3 view .LVU26
  52:Core/Src/gpio.c **** 
  53:Core/Src/gpio.c ****   /*Configure GPIO pin Output Level */
  54:Core/Src/gpio.c ****   HAL_GPIO_WritePin(GPIOC, BRIDGESLEEP1_Pin|DRVOFF2_Pin|SPI1_SS2_Pin|SPI1_SS3_Pin, GPIO_PIN_RESET);
 111              		.loc 1 54 3 view .LVU27
 112 005a DFF8EC90 		ldr	r9, .L3+4
 113 005e 2246     		mov	r2, r4
 114 0060 3C21     		movs	r1, #60
 115 0062 4846     		mov	r0, r9
 116 0064 FFF7FEFF 		bl	HAL_GPIO_WritePin
 117              	.LVL0:
  55:Core/Src/gpio.c **** 
ARM GAS  C:\Users\zhmis\AppData\Local\Temp\ccl445hh.s 			page 4


  56:Core/Src/gpio.c ****   /*Configure GPIO pin Output Level */
  57:Core/Src/gpio.c ****   HAL_GPIO_WritePin(GPIOA, DIR2_1_Pin|SPI1_SS1_Pin, GPIO_PIN_RESET);
 118              		.loc 1 57 3 view .LVU28
 119 0068 384E     		ldr	r6, .L3+8
 120 006a 2246     		mov	r2, r4
 121 006c 1221     		movs	r1, #18
 122 006e 3046     		mov	r0, r6
 123 0070 FFF7FEFF 		bl	HAL_GPIO_WritePin
 124              	.LVL1:
  58:Core/Src/gpio.c **** 
  59:Core/Src/gpio.c ****   /*Configure GPIO pin Output Level */
  60:Core/Src/gpio.c ****   HAL_GPIO_WritePin(GPIOB, SPI1_SS4_Pin|DIR1_1_Pin|HIZ1_Pin|HIZ2_Pin
 125              		.loc 1 60 3 view .LVU29
 126 0074 364F     		ldr	r7, .L3+12
 127 0076 2246     		mov	r2, r4
 128 0078 43F61701 		movw	r1, #14359
 129 007c 3846     		mov	r0, r7
 130 007e FFF7FEFF 		bl	HAL_GPIO_WritePin
 131              	.LVL2:
  61:Core/Src/gpio.c ****                           |DRVOFF1_Pin|BRIDGESLEEP2_Pin|IND_LED_Pin, GPIO_PIN_RESET);
  62:Core/Src/gpio.c **** 
  63:Core/Src/gpio.c ****   /*Configure GPIO pins : nFAULT_L2_Pin nFAULT_R2_Pin ENC1_Z_Pin ENC2_Z_Pin */
  64:Core/Src/gpio.c ****   GPIO_InitStruct.Pin = nFAULT_L2_Pin|nFAULT_R2_Pin|ENC1_Z_Pin|ENC2_Z_Pin;
 132              		.loc 1 64 3 view .LVU30
 133              		.loc 1 64 23 is_stmt 0 view .LVU31
 134 0082 40F20333 		movw	r3, #771
 135 0086 0493     		str	r3, [sp, #16]
  65:Core/Src/gpio.c ****   GPIO_InitStruct.Mode = GPIO_MODE_INPUT;
 136              		.loc 1 65 3 is_stmt 1 view .LVU32
 137              		.loc 1 65 24 is_stmt 0 view .LVU33
 138 0088 0594     		str	r4, [sp, #20]
  66:Core/Src/gpio.c ****   GPIO_InitStruct.Pull = GPIO_NOPULL;
 139              		.loc 1 66 3 is_stmt 1 view .LVU34
 140              		.loc 1 66 24 is_stmt 0 view .LVU35
 141 008a 0694     		str	r4, [sp, #24]
  67:Core/Src/gpio.c ****   HAL_GPIO_Init(GPIOC, &GPIO_InitStruct);
 142              		.loc 1 67 3 is_stmt 1 view .LVU36
 143 008c 04A9     		add	r1, sp, #16
 144 008e 4846     		mov	r0, r9
 145 0090 FFF7FEFF 		bl	HAL_GPIO_Init
 146              	.LVL3:
  68:Core/Src/gpio.c **** 
  69:Core/Src/gpio.c ****   /*Configure GPIO pins : BRIDGESLEEP1_Pin DRVOFF2_Pin */
  70:Core/Src/gpio.c ****   GPIO_InitStruct.Pin = BRIDGESLEEP1_Pin|DRVOFF2_Pin;
 147              		.loc 1 70 3 view .LVU37
 148              		.loc 1 70 23 is_stmt 0 view .LVU38
 149 0094 0C23     		movs	r3, #12
 150 0096 0493     		str	r3, [sp, #16]
  71:Core/Src/gpio.c ****   GPIO_InitStruct.Mode = GPIO_MODE_OUTPUT_PP;
 151              		.loc 1 71 3 is_stmt 1 view .LVU39
 152              		.loc 1 71 24 is_stmt 0 view .LVU40
 153 0098 0125     		movs	r5, #1
 154 009a 0595     		str	r5, [sp, #20]
  72:Core/Src/gpio.c ****   GPIO_InitStruct.Pull = GPIO_NOPULL;
 155              		.loc 1 72 3 is_stmt 1 view .LVU41
 156              		.loc 1 72 24 is_stmt 0 view .LVU42
 157 009c 0694     		str	r4, [sp, #24]
ARM GAS  C:\Users\zhmis\AppData\Local\Temp\ccl445hh.s 			page 5


  73:Core/Src/gpio.c ****   GPIO_InitStruct.Speed = GPIO_SPEED_FREQ_LOW;
 158              		.loc 1 73 3 is_stmt 1 view .LVU43
 159              		.loc 1 73 25 is_stmt 0 view .LVU44
 160 009e 4FF00208 		mov	r8, #2
 161 00a2 CDF81C80 		str	r8, [sp, #28]
  74:Core/Src/gpio.c ****   HAL_GPIO_Init(GPIOC, &GPIO_InitStruct);
 162              		.loc 1 74 3 is_stmt 1 view .LVU45
 163 00a6 04A9     		add	r1, sp, #16
 164 00a8 4846     		mov	r0, r9
 165 00aa FFF7FEFF 		bl	HAL_GPIO_Init
 166              	.LVL4:
  75:Core/Src/gpio.c **** 
  76:Core/Src/gpio.c ****   /*Configure GPIO pin : DIR2_1_Pin */
  77:Core/Src/gpio.c ****   GPIO_InitStruct.Pin = DIR2_1_Pin;
 167              		.loc 1 77 3 view .LVU46
 168              		.loc 1 77 23 is_stmt 0 view .LVU47
 169 00ae CDF81080 		str	r8, [sp, #16]
  78:Core/Src/gpio.c ****   GPIO_InitStruct.Mode = GPIO_MODE_OUTPUT_PP;
 170              		.loc 1 78 3 is_stmt 1 view .LVU48
 171              		.loc 1 78 24 is_stmt 0 view .LVU49
 172 00b2 0595     		str	r5, [sp, #20]
  79:Core/Src/gpio.c ****   GPIO_InitStruct.Pull = GPIO_NOPULL;
 173              		.loc 1 79 3 is_stmt 1 view .LVU50
 174              		.loc 1 79 24 is_stmt 0 view .LVU51
 175 00b4 0694     		str	r4, [sp, #24]
  80:Core/Src/gpio.c ****   GPIO_InitStruct.Speed = GPIO_SPEED_FREQ_LOW;
 176              		.loc 1 80 3 is_stmt 1 view .LVU52
 177              		.loc 1 80 25 is_stmt 0 view .LVU53
 178 00b6 CDF81C80 		str	r8, [sp, #28]
  81:Core/Src/gpio.c ****   HAL_GPIO_Init(DIR2_1_GPIO_Port, &GPIO_InitStruct);
 179              		.loc 1 81 3 is_stmt 1 view .LVU54
 180 00ba 04A9     		add	r1, sp, #16
 181 00bc 3046     		mov	r0, r6
 182 00be FFF7FEFF 		bl	HAL_GPIO_Init
 183              	.LVL5:
  82:Core/Src/gpio.c **** 
  83:Core/Src/gpio.c ****   /*Configure GPIO pin : SPI1_SS1_Pin */
  84:Core/Src/gpio.c ****   GPIO_InitStruct.Pin = SPI1_SS1_Pin;
 184              		.loc 1 84 3 view .LVU55
 185              		.loc 1 84 23 is_stmt 0 view .LVU56
 186 00c2 1023     		movs	r3, #16
 187 00c4 0493     		str	r3, [sp, #16]
  85:Core/Src/gpio.c ****   GPIO_InitStruct.Mode = GPIO_MODE_OUTPUT_PP;
 188              		.loc 1 85 3 is_stmt 1 view .LVU57
 189              		.loc 1 85 24 is_stmt 0 view .LVU58
 190 00c6 0595     		str	r5, [sp, #20]
  86:Core/Src/gpio.c ****   GPIO_InitStruct.Pull = GPIO_NOPULL;
 191              		.loc 1 86 3 is_stmt 1 view .LVU59
 192              		.loc 1 86 24 is_stmt 0 view .LVU60
 193 00c8 0694     		str	r4, [sp, #24]
  87:Core/Src/gpio.c ****   GPIO_InitStruct.Speed = GPIO_SPEED_FREQ_HIGH;
 194              		.loc 1 87 3 is_stmt 1 view .LVU61
 195              		.loc 1 87 25 is_stmt 0 view .LVU62
 196 00ca 4FF0030A 		mov	r10, #3
 197 00ce CDF81CA0 		str	r10, [sp, #28]
  88:Core/Src/gpio.c ****   HAL_GPIO_Init(SPI1_SS1_GPIO_Port, &GPIO_InitStruct);
 198              		.loc 1 88 3 is_stmt 1 view .LVU63
ARM GAS  C:\Users\zhmis\AppData\Local\Temp\ccl445hh.s 			page 6


 199 00d2 0DEB0301 		add	r1, sp, r3
 200 00d6 3046     		mov	r0, r6
 201 00d8 FFF7FEFF 		bl	HAL_GPIO_Init
 202              	.LVL6:
  89:Core/Src/gpio.c **** 
  90:Core/Src/gpio.c ****   /*Configure GPIO pins : SPI1_SS2_Pin SPI1_SS3_Pin */
  91:Core/Src/gpio.c ****   GPIO_InitStruct.Pin = SPI1_SS2_Pin|SPI1_SS3_Pin;
 203              		.loc 1 91 3 view .LVU64
 204              		.loc 1 91 23 is_stmt 0 view .LVU65
 205 00dc 3023     		movs	r3, #48
 206 00de 0493     		str	r3, [sp, #16]
  92:Core/Src/gpio.c ****   GPIO_InitStruct.Mode = GPIO_MODE_OUTPUT_PP;
 207              		.loc 1 92 3 is_stmt 1 view .LVU66
 208              		.loc 1 92 24 is_stmt 0 view .LVU67
 209 00e0 0595     		str	r5, [sp, #20]
  93:Core/Src/gpio.c ****   GPIO_InitStruct.Pull = GPIO_NOPULL;
 210              		.loc 1 93 3 is_stmt 1 view .LVU68
 211              		.loc 1 93 24 is_stmt 0 view .LVU69
 212 00e2 0694     		str	r4, [sp, #24]
  94:Core/Src/gpio.c ****   GPIO_InitStruct.Speed = GPIO_SPEED_FREQ_HIGH;
 213              		.loc 1 94 3 is_stmt 1 view .LVU70
 214              		.loc 1 94 25 is_stmt 0 view .LVU71
 215 00e4 CDF81CA0 		str	r10, [sp, #28]
  95:Core/Src/gpio.c ****   HAL_GPIO_Init(GPIOC, &GPIO_InitStruct);
 216              		.loc 1 95 3 is_stmt 1 view .LVU72
 217 00e8 04A9     		add	r1, sp, #16
 218 00ea 4846     		mov	r0, r9
 219 00ec FFF7FEFF 		bl	HAL_GPIO_Init
 220              	.LVL7:
  96:Core/Src/gpio.c **** 
  97:Core/Src/gpio.c ****   /*Configure GPIO pin : SPI1_SS4_Pin */
  98:Core/Src/gpio.c ****   GPIO_InitStruct.Pin = SPI1_SS4_Pin;
 221              		.loc 1 98 3 view .LVU73
 222              		.loc 1 98 23 is_stmt 0 view .LVU74
 223 00f0 0495     		str	r5, [sp, #16]
  99:Core/Src/gpio.c ****   GPIO_InitStruct.Mode = GPIO_MODE_OUTPUT_PP;
 224              		.loc 1 99 3 is_stmt 1 view .LVU75
 225              		.loc 1 99 24 is_stmt 0 view .LVU76
 226 00f2 0595     		str	r5, [sp, #20]
 100:Core/Src/gpio.c ****   GPIO_InitStruct.Pull = GPIO_NOPULL;
 227              		.loc 1 100 3 is_stmt 1 view .LVU77
 228              		.loc 1 100 24 is_stmt 0 view .LVU78
 229 00f4 0694     		str	r4, [sp, #24]
 101:Core/Src/gpio.c ****   GPIO_InitStruct.Speed = GPIO_SPEED_FREQ_HIGH;
 230              		.loc 1 101 3 is_stmt 1 view .LVU79
 231              		.loc 1 101 25 is_stmt 0 view .LVU80
 232 00f6 CDF81CA0 		str	r10, [sp, #28]
 102:Core/Src/gpio.c ****   HAL_GPIO_Init(SPI1_SS4_GPIO_Port, &GPIO_InitStruct);
 233              		.loc 1 102 3 is_stmt 1 view .LVU81
 234 00fa 04A9     		add	r1, sp, #16
 235 00fc 3846     		mov	r0, r7
 236 00fe FFF7FEFF 		bl	HAL_GPIO_Init
 237              	.LVL8:
 103:Core/Src/gpio.c **** 
 104:Core/Src/gpio.c ****   /*Configure GPIO pins : DIR1_1_Pin HIZ1_Pin HIZ2_Pin DRVOFF1_Pin
 105:Core/Src/gpio.c ****                            BRIDGESLEEP2_Pin IND_LED_Pin */
 106:Core/Src/gpio.c ****   GPIO_InitStruct.Pin = DIR1_1_Pin|HIZ1_Pin|HIZ2_Pin|DRVOFF1_Pin
ARM GAS  C:\Users\zhmis\AppData\Local\Temp\ccl445hh.s 			page 7


 238              		.loc 1 106 3 view .LVU82
 239              		.loc 1 106 23 is_stmt 0 view .LVU83
 240 0102 43F61603 		movw	r3, #14358
 241 0106 0493     		str	r3, [sp, #16]
 107:Core/Src/gpio.c ****                           |BRIDGESLEEP2_Pin|IND_LED_Pin;
 108:Core/Src/gpio.c ****   GPIO_InitStruct.Mode = GPIO_MODE_OUTPUT_PP;
 242              		.loc 1 108 3 is_stmt 1 view .LVU84
 243              		.loc 1 108 24 is_stmt 0 view .LVU85
 244 0108 0595     		str	r5, [sp, #20]
 109:Core/Src/gpio.c ****   GPIO_InitStruct.Pull = GPIO_NOPULL;
 245              		.loc 1 109 3 is_stmt 1 view .LVU86
 246              		.loc 1 109 24 is_stmt 0 view .LVU87
 247 010a 0694     		str	r4, [sp, #24]
 110:Core/Src/gpio.c ****   GPIO_InitStruct.Speed = GPIO_SPEED_FREQ_LOW;
 248              		.loc 1 110 3 is_stmt 1 view .LVU88
 249              		.loc 1 110 25 is_stmt 0 view .LVU89
 250 010c CDF81C80 		str	r8, [sp, #28]
 111:Core/Src/gpio.c ****   HAL_GPIO_Init(GPIOB, &GPIO_InitStruct);
 251              		.loc 1 111 3 is_stmt 1 view .LVU90
 252 0110 04A9     		add	r1, sp, #16
 253 0112 3846     		mov	r0, r7
 254 0114 FFF7FEFF 		bl	HAL_GPIO_Init
 255              	.LVL9:
 112:Core/Src/gpio.c **** 
 113:Core/Src/gpio.c ****   /*Configure GPIO pins : nFAULT_R1_Pin nFAULT_L1_Pin RS485_CTRL_Pin */
 114:Core/Src/gpio.c ****   GPIO_InitStruct.Pin = nFAULT_R1_Pin|nFAULT_L1_Pin|RS485_CTRL_Pin;
 256              		.loc 1 114 3 view .LVU91
 257              		.loc 1 114 23 is_stmt 0 view .LVU92
 258 0118 4CF22003 		movw	r3, #49184
 259 011c 0493     		str	r3, [sp, #16]
 115:Core/Src/gpio.c ****   GPIO_InitStruct.Mode = GPIO_MODE_INPUT;
 260              		.loc 1 115 3 is_stmt 1 view .LVU93
 261              		.loc 1 115 24 is_stmt 0 view .LVU94
 262 011e 0594     		str	r4, [sp, #20]
 116:Core/Src/gpio.c ****   GPIO_InitStruct.Pull = GPIO_NOPULL;
 263              		.loc 1 116 3 is_stmt 1 view .LVU95
 264              		.loc 1 116 24 is_stmt 0 view .LVU96
 265 0120 0694     		str	r4, [sp, #24]
 117:Core/Src/gpio.c ****   HAL_GPIO_Init(GPIOB, &GPIO_InitStruct);
 266              		.loc 1 117 3 is_stmt 1 view .LVU97
 267 0122 04A9     		add	r1, sp, #16
 268 0124 3846     		mov	r0, r7
 269 0126 FFF7FEFF 		bl	HAL_GPIO_Init
 270              	.LVL10:
 118:Core/Src/gpio.c **** 
 119:Core/Src/gpio.c ****   /*Configure GPIO pin : USB_ID_Pin */
 120:Core/Src/gpio.c ****   GPIO_InitStruct.Pin = USB_ID_Pin;
 271              		.loc 1 120 3 view .LVU98
 272              		.loc 1 120 23 is_stmt 0 view .LVU99
 273 012a 4FF48063 		mov	r3, #1024
 274 012e 0493     		str	r3, [sp, #16]
 121:Core/Src/gpio.c ****   GPIO_InitStruct.Mode = GPIO_MODE_INPUT;
 275              		.loc 1 121 3 is_stmt 1 view .LVU100
 276              		.loc 1 121 24 is_stmt 0 view .LVU101
 277 0130 0594     		str	r4, [sp, #20]
 122:Core/Src/gpio.c ****   GPIO_InitStruct.Pull = GPIO_NOPULL;
 278              		.loc 1 122 3 is_stmt 1 view .LVU102
ARM GAS  C:\Users\zhmis\AppData\Local\Temp\ccl445hh.s 			page 8


 279              		.loc 1 122 24 is_stmt 0 view .LVU103
 280 0132 0694     		str	r4, [sp, #24]
 123:Core/Src/gpio.c ****   HAL_GPIO_Init(USB_ID_GPIO_Port, &GPIO_InitStruct);
 281              		.loc 1 123 3 is_stmt 1 view .LVU104
 282 0134 04A9     		add	r1, sp, #16
 283 0136 3046     		mov	r0, r6
 284 0138 FFF7FEFF 		bl	HAL_GPIO_Init
 285              	.LVL11:
 124:Core/Src/gpio.c **** 
 125:Core/Src/gpio.c **** }
 286              		.loc 1 125 1 is_stmt 0 view .LVU105
 287 013c 08B0     		add	sp, sp, #32
 288              		.cfi_def_cfa_offset 32
 289              		@ sp needed
 290 013e BDE8F087 		pop	{r4, r5, r6, r7, r8, r9, r10, pc}
 291              	.L4:
 292 0142 00BF     		.align	2
 293              	.L3:
 294 0144 00100240 		.word	1073876992
 295 0148 00100140 		.word	1073811456
 296 014c 00080140 		.word	1073809408
 297 0150 000C0140 		.word	1073810432
 298              		.cfi_endproc
 299              	.LFE65:
 301              		.text
 302              	.Letext0:
 303              		.file 2 "C:/Users/zhmis/AppData/Roaming/Code/User/globalStorage/bmd.stm32-for-vscode/@xpack-dev-to
 304              		.file 3 "C:/Users/zhmis/AppData/Roaming/Code/User/globalStorage/bmd.stm32-for-vscode/@xpack-dev-to
 305              		.file 4 "Drivers/CMSIS/Device/ST/STM32F1xx/Include/stm32f103xb.h"
 306              		.file 5 "Drivers/STM32F1xx_HAL_Driver/Inc/stm32f1xx_hal_gpio.h"
ARM GAS  C:\Users\zhmis\AppData\Local\Temp\ccl445hh.s 			page 9

