ARM GAS  C:\Users\zhmis\AppData\Local\Temp\ccFqbXyi.s 			page 1


   1              		.cpu cortex-m3
   2              		.arch armv7-m
   3              		.fpu softvfp
   4              		.eabi_attribute 20, 1
   5              		.eabi_attribute 21, 1
   6              		.eabi_attribute 23, 3
   7              		.eabi_attribute 24, 1
   8              		.eabi_attribute 25, 1
   9              		.eabi_attribute 26, 1
  10              		.eabi_attribute 30, 1
  11              		.eabi_attribute 34, 1
  12              		.eabi_attribute 18, 4
  13              		.file	"stm32f1xx_it.c"
  14              		.text
  15              	.Ltext0:
  16              		.cfi_sections	.debug_frame
  17              		.file 1 "Core/Src/stm32f1xx_it.c"
  18              		.section	.text.NMI_Handler,"ax",%progbits
  19              		.align	1
  20              		.global	NMI_Handler
  21              		.syntax unified
  22              		.thumb
  23              		.thumb_func
  25              	NMI_Handler:
  26              	.LFB65:
   1:Core/Src/stm32f1xx_it.c **** /* USER CODE BEGIN Header */
   2:Core/Src/stm32f1xx_it.c **** /**
   3:Core/Src/stm32f1xx_it.c ****   ******************************************************************************
   4:Core/Src/stm32f1xx_it.c ****   * @file    stm32f1xx_it.c
   5:Core/Src/stm32f1xx_it.c ****   * @brief   Interrupt Service Routines.
   6:Core/Src/stm32f1xx_it.c ****   ******************************************************************************
   7:Core/Src/stm32f1xx_it.c ****   * @attention
   8:Core/Src/stm32f1xx_it.c ****   *
   9:Core/Src/stm32f1xx_it.c ****   * Copyright (c) 2025 STMicroelectronics.
  10:Core/Src/stm32f1xx_it.c ****   * All rights reserved.
  11:Core/Src/stm32f1xx_it.c ****   *
  12:Core/Src/stm32f1xx_it.c ****   * This software is licensed under terms that can be found in the LICENSE file
  13:Core/Src/stm32f1xx_it.c ****   * in the root directory of this software component.
  14:Core/Src/stm32f1xx_it.c ****   * If no LICENSE file comes with this software, it is provided AS-IS.
  15:Core/Src/stm32f1xx_it.c ****   *
  16:Core/Src/stm32f1xx_it.c ****   ******************************************************************************
  17:Core/Src/stm32f1xx_it.c ****   */
  18:Core/Src/stm32f1xx_it.c **** /* USER CODE END Header */
  19:Core/Src/stm32f1xx_it.c **** 
  20:Core/Src/stm32f1xx_it.c **** /* Includes ------------------------------------------------------------------*/
  21:Core/Src/stm32f1xx_it.c **** #include "main.h"
  22:Core/Src/stm32f1xx_it.c **** #include "stm32f1xx_it.h"
  23:Core/Src/stm32f1xx_it.c **** /* Private includes ----------------------------------------------------------*/
  24:Core/Src/stm32f1xx_it.c **** /* USER CODE BEGIN Includes */
  25:Core/Src/stm32f1xx_it.c **** #include "loops_handler.h"
  26:Core/Src/stm32f1xx_it.c **** /* USER CODE END Includes */
  27:Core/Src/stm32f1xx_it.c **** 
  28:Core/Src/stm32f1xx_it.c **** /* Private typedef -----------------------------------------------------------*/
  29:Core/Src/stm32f1xx_it.c **** /* USER CODE BEGIN TD */
  30:Core/Src/stm32f1xx_it.c **** 
  31:Core/Src/stm32f1xx_it.c **** /* USER CODE END TD */
  32:Core/Src/stm32f1xx_it.c **** 
ARM GAS  C:\Users\zhmis\AppData\Local\Temp\ccFqbXyi.s 			page 2


  33:Core/Src/stm32f1xx_it.c **** /* Private define ------------------------------------------------------------*/
  34:Core/Src/stm32f1xx_it.c **** /* USER CODE BEGIN PD */
  35:Core/Src/stm32f1xx_it.c **** 
  36:Core/Src/stm32f1xx_it.c **** /* USER CODE END PD */
  37:Core/Src/stm32f1xx_it.c **** 
  38:Core/Src/stm32f1xx_it.c **** /* Private macro -------------------------------------------------------------*/
  39:Core/Src/stm32f1xx_it.c **** /* USER CODE BEGIN PM */
  40:Core/Src/stm32f1xx_it.c **** 
  41:Core/Src/stm32f1xx_it.c **** /* USER CODE END PM */
  42:Core/Src/stm32f1xx_it.c **** 
  43:Core/Src/stm32f1xx_it.c **** /* Private variables ---------------------------------------------------------*/
  44:Core/Src/stm32f1xx_it.c **** /* USER CODE BEGIN PV */
  45:Core/Src/stm32f1xx_it.c **** uint32_t sos;
  46:Core/Src/stm32f1xx_it.c **** /* USER CODE END PV */
  47:Core/Src/stm32f1xx_it.c **** 
  48:Core/Src/stm32f1xx_it.c **** /* Private function prototypes -----------------------------------------------*/
  49:Core/Src/stm32f1xx_it.c **** /* USER CODE BEGIN PFP */
  50:Core/Src/stm32f1xx_it.c **** 
  51:Core/Src/stm32f1xx_it.c **** /* USER CODE END PFP */
  52:Core/Src/stm32f1xx_it.c **** 
  53:Core/Src/stm32f1xx_it.c **** /* Private user code ---------------------------------------------------------*/
  54:Core/Src/stm32f1xx_it.c **** /* USER CODE BEGIN 0 */
  55:Core/Src/stm32f1xx_it.c **** 
  56:Core/Src/stm32f1xx_it.c **** /* USER CODE END 0 */
  57:Core/Src/stm32f1xx_it.c **** 
  58:Core/Src/stm32f1xx_it.c **** /* External variables --------------------------------------------------------*/
  59:Core/Src/stm32f1xx_it.c **** extern DMA_HandleTypeDef hdma_adc1;
  60:Core/Src/stm32f1xx_it.c **** extern DMA_HandleTypeDef hdma_spi1_rx;
  61:Core/Src/stm32f1xx_it.c **** extern DMA_HandleTypeDef hdma_spi1_tx;
  62:Core/Src/stm32f1xx_it.c **** extern SPI_HandleTypeDef hspi1;
  63:Core/Src/stm32f1xx_it.c **** extern TIM_HandleTypeDef htim3;
  64:Core/Src/stm32f1xx_it.c **** extern DMA_HandleTypeDef hdma_usart1_tx;
  65:Core/Src/stm32f1xx_it.c **** extern DMA_HandleTypeDef hdma_usart1_rx;
  66:Core/Src/stm32f1xx_it.c **** extern UART_HandleTypeDef huart1;
  67:Core/Src/stm32f1xx_it.c **** /* USER CODE BEGIN EV */
  68:Core/Src/stm32f1xx_it.c **** 
  69:Core/Src/stm32f1xx_it.c **** /* USER CODE END EV */
  70:Core/Src/stm32f1xx_it.c **** 
  71:Core/Src/stm32f1xx_it.c **** /******************************************************************************/
  72:Core/Src/stm32f1xx_it.c **** /*           Cortex-M3 Processor Interruption and Exception Handlers          */
  73:Core/Src/stm32f1xx_it.c **** /******************************************************************************/
  74:Core/Src/stm32f1xx_it.c **** /**
  75:Core/Src/stm32f1xx_it.c ****   * @brief This function handles Non maskable interrupt.
  76:Core/Src/stm32f1xx_it.c ****   */
  77:Core/Src/stm32f1xx_it.c **** void NMI_Handler(void)
  78:Core/Src/stm32f1xx_it.c **** {
  27              		.loc 1 78 1 view -0
  28              		.cfi_startproc
  29              		@ Volatile: function does not return.
  30              		@ args = 0, pretend = 0, frame = 0
  31              		@ frame_needed = 0, uses_anonymous_args = 0
  32              		@ link register save eliminated.
  33              	.L2:
  79:Core/Src/stm32f1xx_it.c ****   /* USER CODE BEGIN NonMaskableInt_IRQn 0 */
  80:Core/Src/stm32f1xx_it.c **** 
  81:Core/Src/stm32f1xx_it.c ****   /* USER CODE END NonMaskableInt_IRQn 0 */
  82:Core/Src/stm32f1xx_it.c ****   /* USER CODE BEGIN NonMaskableInt_IRQn 1 */
ARM GAS  C:\Users\zhmis\AppData\Local\Temp\ccFqbXyi.s 			page 3


  83:Core/Src/stm32f1xx_it.c ****    while (1)
  34              		.loc 1 83 4 view .LVU1
  84:Core/Src/stm32f1xx_it.c ****   {
  85:Core/Src/stm32f1xx_it.c ****   }
  35              		.loc 1 85 3 view .LVU2
  83:Core/Src/stm32f1xx_it.c ****   {
  36              		.loc 1 83 10 view .LVU3
  37 0000 FEE7     		b	.L2
  38              		.cfi_endproc
  39              	.LFE65:
  41              		.section	.text.HardFault_Handler,"ax",%progbits
  42              		.align	1
  43              		.global	HardFault_Handler
  44              		.syntax unified
  45              		.thumb
  46              		.thumb_func
  48              	HardFault_Handler:
  49              	.LFB66:
  86:Core/Src/stm32f1xx_it.c ****   /* USER CODE END NonMaskableInt_IRQn 1 */
  87:Core/Src/stm32f1xx_it.c **** }
  88:Core/Src/stm32f1xx_it.c **** 
  89:Core/Src/stm32f1xx_it.c **** /**
  90:Core/Src/stm32f1xx_it.c ****   * @brief This function handles Hard fault interrupt.
  91:Core/Src/stm32f1xx_it.c ****   */
  92:Core/Src/stm32f1xx_it.c **** void HardFault_Handler(void)
  93:Core/Src/stm32f1xx_it.c **** {
  50              		.loc 1 93 1 view -0
  51              		.cfi_startproc
  52              		@ Volatile: function does not return.
  53              		@ args = 0, pretend = 0, frame = 0
  54              		@ frame_needed = 0, uses_anonymous_args = 0
  55              		@ link register save eliminated.
  56              	.L4:
  94:Core/Src/stm32f1xx_it.c ****   /* USER CODE BEGIN HardFault_IRQn 0 */
  95:Core/Src/stm32f1xx_it.c **** 
  96:Core/Src/stm32f1xx_it.c ****   /* USER CODE END HardFault_IRQn 0 */
  97:Core/Src/stm32f1xx_it.c ****   while (1)
  57              		.loc 1 97 3 view .LVU5
  98:Core/Src/stm32f1xx_it.c ****   {
  99:Core/Src/stm32f1xx_it.c ****     /* USER CODE BEGIN W1_HardFault_IRQn 0 */
 100:Core/Src/stm32f1xx_it.c ****     /* USER CODE END W1_HardFault_IRQn 0 */
 101:Core/Src/stm32f1xx_it.c ****   }
  58              		.loc 1 101 3 view .LVU6
  97:Core/Src/stm32f1xx_it.c ****   {
  59              		.loc 1 97 9 view .LVU7
  60 0000 FEE7     		b	.L4
  61              		.cfi_endproc
  62              	.LFE66:
  64              		.section	.text.MemManage_Handler,"ax",%progbits
  65              		.align	1
  66              		.global	MemManage_Handler
  67              		.syntax unified
  68              		.thumb
  69              		.thumb_func
  71              	MemManage_Handler:
  72              	.LFB67:
 102:Core/Src/stm32f1xx_it.c **** }
ARM GAS  C:\Users\zhmis\AppData\Local\Temp\ccFqbXyi.s 			page 4


 103:Core/Src/stm32f1xx_it.c **** 
 104:Core/Src/stm32f1xx_it.c **** /**
 105:Core/Src/stm32f1xx_it.c ****   * @brief This function handles Memory management fault.
 106:Core/Src/stm32f1xx_it.c ****   */
 107:Core/Src/stm32f1xx_it.c **** void MemManage_Handler(void)
 108:Core/Src/stm32f1xx_it.c **** {
  73              		.loc 1 108 1 view -0
  74              		.cfi_startproc
  75              		@ Volatile: function does not return.
  76              		@ args = 0, pretend = 0, frame = 0
  77              		@ frame_needed = 0, uses_anonymous_args = 0
  78              		@ link register save eliminated.
  79              	.L6:
 109:Core/Src/stm32f1xx_it.c ****   /* USER CODE BEGIN MemoryManagement_IRQn 0 */
 110:Core/Src/stm32f1xx_it.c **** 
 111:Core/Src/stm32f1xx_it.c ****   /* USER CODE END MemoryManagement_IRQn 0 */
 112:Core/Src/stm32f1xx_it.c ****   while (1)
  80              		.loc 1 112 3 view .LVU9
 113:Core/Src/stm32f1xx_it.c ****   {
 114:Core/Src/stm32f1xx_it.c ****     /* USER CODE BEGIN W1_MemoryManagement_IRQn 0 */
 115:Core/Src/stm32f1xx_it.c ****     /* USER CODE END W1_MemoryManagement_IRQn 0 */
 116:Core/Src/stm32f1xx_it.c ****   }
  81              		.loc 1 116 3 view .LVU10
 112:Core/Src/stm32f1xx_it.c ****   {
  82              		.loc 1 112 9 view .LVU11
  83 0000 FEE7     		b	.L6
  84              		.cfi_endproc
  85              	.LFE67:
  87              		.section	.text.BusFault_Handler,"ax",%progbits
  88              		.align	1
  89              		.global	BusFault_Handler
  90              		.syntax unified
  91              		.thumb
  92              		.thumb_func
  94              	BusFault_Handler:
  95              	.LFB68:
 117:Core/Src/stm32f1xx_it.c **** }
 118:Core/Src/stm32f1xx_it.c **** 
 119:Core/Src/stm32f1xx_it.c **** /**
 120:Core/Src/stm32f1xx_it.c ****   * @brief This function handles Prefetch fault, memory access fault.
 121:Core/Src/stm32f1xx_it.c ****   */
 122:Core/Src/stm32f1xx_it.c **** void BusFault_Handler(void)
 123:Core/Src/stm32f1xx_it.c **** {
  96              		.loc 1 123 1 view -0
  97              		.cfi_startproc
  98              		@ Volatile: function does not return.
  99              		@ args = 0, pretend = 0, frame = 0
 100              		@ frame_needed = 0, uses_anonymous_args = 0
 101              		@ link register save eliminated.
 102              	.L8:
 124:Core/Src/stm32f1xx_it.c ****   /* USER CODE BEGIN BusFault_IRQn 0 */
 125:Core/Src/stm32f1xx_it.c **** 
 126:Core/Src/stm32f1xx_it.c ****   /* USER CODE END BusFault_IRQn 0 */
 127:Core/Src/stm32f1xx_it.c ****   while (1)
 103              		.loc 1 127 3 view .LVU13
 128:Core/Src/stm32f1xx_it.c ****   {
 129:Core/Src/stm32f1xx_it.c ****     /* USER CODE BEGIN W1_BusFault_IRQn 0 */
ARM GAS  C:\Users\zhmis\AppData\Local\Temp\ccFqbXyi.s 			page 5


 130:Core/Src/stm32f1xx_it.c ****     /* USER CODE END W1_BusFault_IRQn 0 */
 131:Core/Src/stm32f1xx_it.c ****   }
 104              		.loc 1 131 3 view .LVU14
 127:Core/Src/stm32f1xx_it.c ****   {
 105              		.loc 1 127 9 view .LVU15
 106 0000 FEE7     		b	.L8
 107              		.cfi_endproc
 108              	.LFE68:
 110              		.section	.text.UsageFault_Handler,"ax",%progbits
 111              		.align	1
 112              		.global	UsageFault_Handler
 113              		.syntax unified
 114              		.thumb
 115              		.thumb_func
 117              	UsageFault_Handler:
 118              	.LFB69:
 132:Core/Src/stm32f1xx_it.c **** }
 133:Core/Src/stm32f1xx_it.c **** 
 134:Core/Src/stm32f1xx_it.c **** /**
 135:Core/Src/stm32f1xx_it.c ****   * @brief This function handles Undefined instruction or illegal state.
 136:Core/Src/stm32f1xx_it.c ****   */
 137:Core/Src/stm32f1xx_it.c **** void UsageFault_Handler(void)
 138:Core/Src/stm32f1xx_it.c **** {
 119              		.loc 1 138 1 view -0
 120              		.cfi_startproc
 121              		@ Volatile: function does not return.
 122              		@ args = 0, pretend = 0, frame = 0
 123              		@ frame_needed = 0, uses_anonymous_args = 0
 124              		@ link register save eliminated.
 125              	.L10:
 139:Core/Src/stm32f1xx_it.c ****   /* USER CODE BEGIN UsageFault_IRQn 0 */
 140:Core/Src/stm32f1xx_it.c **** 
 141:Core/Src/stm32f1xx_it.c ****   /* USER CODE END UsageFault_IRQn 0 */
 142:Core/Src/stm32f1xx_it.c ****   while (1)
 126              		.loc 1 142 3 view .LVU17
 143:Core/Src/stm32f1xx_it.c ****   {
 144:Core/Src/stm32f1xx_it.c ****     /* USER CODE BEGIN W1_UsageFault_IRQn 0 */
 145:Core/Src/stm32f1xx_it.c ****     /* USER CODE END W1_UsageFault_IRQn 0 */
 146:Core/Src/stm32f1xx_it.c ****   }
 127              		.loc 1 146 3 view .LVU18
 142:Core/Src/stm32f1xx_it.c ****   {
 128              		.loc 1 142 9 view .LVU19
 129 0000 FEE7     		b	.L10
 130              		.cfi_endproc
 131              	.LFE69:
 133              		.section	.text.SVC_Handler,"ax",%progbits
 134              		.align	1
 135              		.global	SVC_Handler
 136              		.syntax unified
 137              		.thumb
 138              		.thumb_func
 140              	SVC_Handler:
 141              	.LFB70:
 147:Core/Src/stm32f1xx_it.c **** }
 148:Core/Src/stm32f1xx_it.c **** 
 149:Core/Src/stm32f1xx_it.c **** /**
 150:Core/Src/stm32f1xx_it.c ****   * @brief This function handles System service call via SWI instruction.
ARM GAS  C:\Users\zhmis\AppData\Local\Temp\ccFqbXyi.s 			page 6


 151:Core/Src/stm32f1xx_it.c ****   */
 152:Core/Src/stm32f1xx_it.c **** void SVC_Handler(void)
 153:Core/Src/stm32f1xx_it.c **** {
 142              		.loc 1 153 1 view -0
 143              		.cfi_startproc
 144              		@ args = 0, pretend = 0, frame = 0
 145              		@ frame_needed = 0, uses_anonymous_args = 0
 146              		@ link register save eliminated.
 154:Core/Src/stm32f1xx_it.c ****   /* USER CODE BEGIN SVCall_IRQn 0 */
 155:Core/Src/stm32f1xx_it.c **** 
 156:Core/Src/stm32f1xx_it.c ****   /* USER CODE END SVCall_IRQn 0 */
 157:Core/Src/stm32f1xx_it.c ****   /* USER CODE BEGIN SVCall_IRQn 1 */
 158:Core/Src/stm32f1xx_it.c **** 
 159:Core/Src/stm32f1xx_it.c ****   /* USER CODE END SVCall_IRQn 1 */
 160:Core/Src/stm32f1xx_it.c **** }
 147              		.loc 1 160 1 view .LVU21
 148 0000 7047     		bx	lr
 149              		.cfi_endproc
 150              	.LFE70:
 152              		.section	.text.DebugMon_Handler,"ax",%progbits
 153              		.align	1
 154              		.global	DebugMon_Handler
 155              		.syntax unified
 156              		.thumb
 157              		.thumb_func
 159              	DebugMon_Handler:
 160              	.LFB71:
 161:Core/Src/stm32f1xx_it.c **** 
 162:Core/Src/stm32f1xx_it.c **** /**
 163:Core/Src/stm32f1xx_it.c ****   * @brief This function handles Debug monitor.
 164:Core/Src/stm32f1xx_it.c ****   */
 165:Core/Src/stm32f1xx_it.c **** void DebugMon_Handler(void)
 166:Core/Src/stm32f1xx_it.c **** {
 161              		.loc 1 166 1 view -0
 162              		.cfi_startproc
 163              		@ args = 0, pretend = 0, frame = 0
 164              		@ frame_needed = 0, uses_anonymous_args = 0
 165              		@ link register save eliminated.
 167:Core/Src/stm32f1xx_it.c ****   /* USER CODE BEGIN DebugMonitor_IRQn 0 */
 168:Core/Src/stm32f1xx_it.c **** 
 169:Core/Src/stm32f1xx_it.c ****   /* USER CODE END DebugMonitor_IRQn 0 */
 170:Core/Src/stm32f1xx_it.c ****   /* USER CODE BEGIN DebugMonitor_IRQn 1 */
 171:Core/Src/stm32f1xx_it.c **** 
 172:Core/Src/stm32f1xx_it.c ****   /* USER CODE END DebugMonitor_IRQn 1 */
 173:Core/Src/stm32f1xx_it.c **** }
 166              		.loc 1 173 1 view .LVU23
 167 0000 7047     		bx	lr
 168              		.cfi_endproc
 169              	.LFE71:
 171              		.section	.text.PendSV_Handler,"ax",%progbits
 172              		.align	1
 173              		.global	PendSV_Handler
 174              		.syntax unified
 175              		.thumb
 176              		.thumb_func
 178              	PendSV_Handler:
 179              	.LFB72:
ARM GAS  C:\Users\zhmis\AppData\Local\Temp\ccFqbXyi.s 			page 7


 174:Core/Src/stm32f1xx_it.c **** 
 175:Core/Src/stm32f1xx_it.c **** /**
 176:Core/Src/stm32f1xx_it.c ****   * @brief This function handles Pendable request for system service.
 177:Core/Src/stm32f1xx_it.c ****   */
 178:Core/Src/stm32f1xx_it.c **** void PendSV_Handler(void)
 179:Core/Src/stm32f1xx_it.c **** {
 180              		.loc 1 179 1 view -0
 181              		.cfi_startproc
 182              		@ args = 0, pretend = 0, frame = 0
 183              		@ frame_needed = 0, uses_anonymous_args = 0
 184              		@ link register save eliminated.
 180:Core/Src/stm32f1xx_it.c ****   /* USER CODE BEGIN PendSV_IRQn 0 */
 181:Core/Src/stm32f1xx_it.c **** 
 182:Core/Src/stm32f1xx_it.c ****   /* USER CODE END PendSV_IRQn 0 */
 183:Core/Src/stm32f1xx_it.c ****   /* USER CODE BEGIN PendSV_IRQn 1 */
 184:Core/Src/stm32f1xx_it.c **** 
 185:Core/Src/stm32f1xx_it.c ****   /* USER CODE END PendSV_IRQn 1 */
 186:Core/Src/stm32f1xx_it.c **** }
 185              		.loc 1 186 1 view .LVU25
 186 0000 7047     		bx	lr
 187              		.cfi_endproc
 188              	.LFE72:
 190              		.section	.text.SysTick_Handler,"ax",%progbits
 191              		.align	1
 192              		.global	SysTick_Handler
 193              		.syntax unified
 194              		.thumb
 195              		.thumb_func
 197              	SysTick_Handler:
 198              	.LFB73:
 187:Core/Src/stm32f1xx_it.c **** 
 188:Core/Src/stm32f1xx_it.c **** /**
 189:Core/Src/stm32f1xx_it.c ****   * @brief This function handles System tick timer.
 190:Core/Src/stm32f1xx_it.c ****   */
 191:Core/Src/stm32f1xx_it.c **** void SysTick_Handler(void)
 192:Core/Src/stm32f1xx_it.c **** {
 199              		.loc 1 192 1 view -0
 200              		.cfi_startproc
 201              		@ args = 0, pretend = 0, frame = 0
 202              		@ frame_needed = 0, uses_anonymous_args = 0
 203 0000 08B5     		push	{r3, lr}
 204              		.cfi_def_cfa_offset 8
 205              		.cfi_offset 3, -8
 206              		.cfi_offset 14, -4
 193:Core/Src/stm32f1xx_it.c ****   /* USER CODE BEGIN SysTick_IRQn 0 */
 194:Core/Src/stm32f1xx_it.c **** 
 195:Core/Src/stm32f1xx_it.c ****   /* USER CODE END SysTick_IRQn 0 */
 196:Core/Src/stm32f1xx_it.c ****   HAL_IncTick();
 207              		.loc 1 196 3 view .LVU27
 208 0002 FFF7FEFF 		bl	HAL_IncTick
 209              	.LVL0:
 197:Core/Src/stm32f1xx_it.c ****   /* USER CODE BEGIN SysTick_IRQn 1 */
 198:Core/Src/stm32f1xx_it.c **** 
 199:Core/Src/stm32f1xx_it.c ****   /* USER CODE END SysTick_IRQn 1 */
 200:Core/Src/stm32f1xx_it.c **** }
 210              		.loc 1 200 1 is_stmt 0 view .LVU28
 211 0006 08BD     		pop	{r3, pc}
ARM GAS  C:\Users\zhmis\AppData\Local\Temp\ccFqbXyi.s 			page 8


 212              		.cfi_endproc
 213              	.LFE73:
 215              		.section	.text.DMA1_Channel1_IRQHandler,"ax",%progbits
 216              		.align	1
 217              		.global	DMA1_Channel1_IRQHandler
 218              		.syntax unified
 219              		.thumb
 220              		.thumb_func
 222              	DMA1_Channel1_IRQHandler:
 223              	.LFB74:
 201:Core/Src/stm32f1xx_it.c **** 
 202:Core/Src/stm32f1xx_it.c **** /******************************************************************************/
 203:Core/Src/stm32f1xx_it.c **** /* STM32F1xx Peripheral Interrupt Handlers                                    */
 204:Core/Src/stm32f1xx_it.c **** /* Add here the Interrupt Handlers for the used peripherals.                  */
 205:Core/Src/stm32f1xx_it.c **** /* For the available peripheral interrupt handler names,                      */
 206:Core/Src/stm32f1xx_it.c **** /* please refer to the startup file (startup_stm32f1xx.s).                    */
 207:Core/Src/stm32f1xx_it.c **** /******************************************************************************/
 208:Core/Src/stm32f1xx_it.c **** 
 209:Core/Src/stm32f1xx_it.c **** /**
 210:Core/Src/stm32f1xx_it.c ****   * @brief This function handles DMA1 channel1 global interrupt.
 211:Core/Src/stm32f1xx_it.c ****   */
 212:Core/Src/stm32f1xx_it.c **** void DMA1_Channel1_IRQHandler(void)
 213:Core/Src/stm32f1xx_it.c **** {
 224              		.loc 1 213 1 is_stmt 1 view -0
 225              		.cfi_startproc
 226              		@ args = 0, pretend = 0, frame = 0
 227              		@ frame_needed = 0, uses_anonymous_args = 0
 228 0000 08B5     		push	{r3, lr}
 229              		.cfi_def_cfa_offset 8
 230              		.cfi_offset 3, -8
 231              		.cfi_offset 14, -4
 214:Core/Src/stm32f1xx_it.c ****   /* USER CODE BEGIN DMA1_Channel1_IRQn 0 */
 215:Core/Src/stm32f1xx_it.c **** 
 216:Core/Src/stm32f1xx_it.c ****   /* USER CODE END DMA1_Channel1_IRQn 0 */
 217:Core/Src/stm32f1xx_it.c ****   HAL_DMA_IRQHandler(&hdma_adc1);
 232              		.loc 1 217 3 view .LVU30
 233 0002 0248     		ldr	r0, .L18
 234 0004 FFF7FEFF 		bl	HAL_DMA_IRQHandler
 235              	.LVL1:
 218:Core/Src/stm32f1xx_it.c ****   /* USER CODE BEGIN DMA1_Channel1_IRQn 1 */
 219:Core/Src/stm32f1xx_it.c **** 
 220:Core/Src/stm32f1xx_it.c ****   /* USER CODE END DMA1_Channel1_IRQn 1 */
 221:Core/Src/stm32f1xx_it.c **** }
 236              		.loc 1 221 1 is_stmt 0 view .LVU31
 237 0008 08BD     		pop	{r3, pc}
 238              	.L19:
 239 000a 00BF     		.align	2
 240              	.L18:
 241 000c 00000000 		.word	hdma_adc1
 242              		.cfi_endproc
 243              	.LFE74:
 245              		.section	.text.DMA1_Channel2_IRQHandler,"ax",%progbits
 246              		.align	1
 247              		.global	DMA1_Channel2_IRQHandler
 248              		.syntax unified
 249              		.thumb
 250              		.thumb_func
ARM GAS  C:\Users\zhmis\AppData\Local\Temp\ccFqbXyi.s 			page 9


 252              	DMA1_Channel2_IRQHandler:
 253              	.LFB75:
 222:Core/Src/stm32f1xx_it.c **** 
 223:Core/Src/stm32f1xx_it.c **** /**
 224:Core/Src/stm32f1xx_it.c ****   * @brief This function handles DMA1 channel2 global interrupt.
 225:Core/Src/stm32f1xx_it.c ****   */
 226:Core/Src/stm32f1xx_it.c **** void DMA1_Channel2_IRQHandler(void)
 227:Core/Src/stm32f1xx_it.c **** {
 254              		.loc 1 227 1 is_stmt 1 view -0
 255              		.cfi_startproc
 256              		@ args = 0, pretend = 0, frame = 0
 257              		@ frame_needed = 0, uses_anonymous_args = 0
 258 0000 08B5     		push	{r3, lr}
 259              		.cfi_def_cfa_offset 8
 260              		.cfi_offset 3, -8
 261              		.cfi_offset 14, -4
 228:Core/Src/stm32f1xx_it.c ****   /* USER CODE BEGIN DMA1_Channel2_IRQn 0 */
 229:Core/Src/stm32f1xx_it.c **** 
 230:Core/Src/stm32f1xx_it.c ****   /* USER CODE END DMA1_Channel2_IRQn 0 */
 231:Core/Src/stm32f1xx_it.c ****   HAL_DMA_IRQHandler(&hdma_spi1_rx);
 262              		.loc 1 231 3 view .LVU33
 263 0002 0248     		ldr	r0, .L22
 264 0004 FFF7FEFF 		bl	HAL_DMA_IRQHandler
 265              	.LVL2:
 232:Core/Src/stm32f1xx_it.c ****   /* USER CODE BEGIN DMA1_Channel2_IRQn 1 */
 233:Core/Src/stm32f1xx_it.c **** 
 234:Core/Src/stm32f1xx_it.c ****   /* USER CODE END DMA1_Channel2_IRQn 1 */
 235:Core/Src/stm32f1xx_it.c **** }
 266              		.loc 1 235 1 is_stmt 0 view .LVU34
 267 0008 08BD     		pop	{r3, pc}
 268              	.L23:
 269 000a 00BF     		.align	2
 270              	.L22:
 271 000c 00000000 		.word	hdma_spi1_rx
 272              		.cfi_endproc
 273              	.LFE75:
 275              		.section	.text.DMA1_Channel3_IRQHandler,"ax",%progbits
 276              		.align	1
 277              		.global	DMA1_Channel3_IRQHandler
 278              		.syntax unified
 279              		.thumb
 280              		.thumb_func
 282              	DMA1_Channel3_IRQHandler:
 283              	.LFB76:
 236:Core/Src/stm32f1xx_it.c **** 
 237:Core/Src/stm32f1xx_it.c **** /**
 238:Core/Src/stm32f1xx_it.c ****   * @brief This function handles DMA1 channel3 global interrupt.
 239:Core/Src/stm32f1xx_it.c ****   */
 240:Core/Src/stm32f1xx_it.c **** void DMA1_Channel3_IRQHandler(void)
 241:Core/Src/stm32f1xx_it.c **** {
 284              		.loc 1 241 1 is_stmt 1 view -0
 285              		.cfi_startproc
 286              		@ args = 0, pretend = 0, frame = 0
 287              		@ frame_needed = 0, uses_anonymous_args = 0
 288 0000 08B5     		push	{r3, lr}
 289              		.cfi_def_cfa_offset 8
 290              		.cfi_offset 3, -8
ARM GAS  C:\Users\zhmis\AppData\Local\Temp\ccFqbXyi.s 			page 10


 291              		.cfi_offset 14, -4
 242:Core/Src/stm32f1xx_it.c ****   /* USER CODE BEGIN DMA1_Channel3_IRQn 0 */
 243:Core/Src/stm32f1xx_it.c **** 
 244:Core/Src/stm32f1xx_it.c ****   /* USER CODE END DMA1_Channel3_IRQn 0 */
 245:Core/Src/stm32f1xx_it.c ****   HAL_DMA_IRQHandler(&hdma_spi1_tx);
 292              		.loc 1 245 3 view .LVU36
 293 0002 0248     		ldr	r0, .L26
 294 0004 FFF7FEFF 		bl	HAL_DMA_IRQHandler
 295              	.LVL3:
 246:Core/Src/stm32f1xx_it.c ****   /* USER CODE BEGIN DMA1_Channel3_IRQn 1 */
 247:Core/Src/stm32f1xx_it.c **** 
 248:Core/Src/stm32f1xx_it.c ****   /* USER CODE END DMA1_Channel3_IRQn 1 */
 249:Core/Src/stm32f1xx_it.c **** }
 296              		.loc 1 249 1 is_stmt 0 view .LVU37
 297 0008 08BD     		pop	{r3, pc}
 298              	.L27:
 299 000a 00BF     		.align	2
 300              	.L26:
 301 000c 00000000 		.word	hdma_spi1_tx
 302              		.cfi_endproc
 303              	.LFE76:
 305              		.section	.text.DMA1_Channel4_IRQHandler,"ax",%progbits
 306              		.align	1
 307              		.global	DMA1_Channel4_IRQHandler
 308              		.syntax unified
 309              		.thumb
 310              		.thumb_func
 312              	DMA1_Channel4_IRQHandler:
 313              	.LFB77:
 250:Core/Src/stm32f1xx_it.c **** 
 251:Core/Src/stm32f1xx_it.c **** /**
 252:Core/Src/stm32f1xx_it.c ****   * @brief This function handles DMA1 channel4 global interrupt.
 253:Core/Src/stm32f1xx_it.c ****   */
 254:Core/Src/stm32f1xx_it.c **** void DMA1_Channel4_IRQHandler(void)
 255:Core/Src/stm32f1xx_it.c **** {
 314              		.loc 1 255 1 is_stmt 1 view -0
 315              		.cfi_startproc
 316              		@ args = 0, pretend = 0, frame = 0
 317              		@ frame_needed = 0, uses_anonymous_args = 0
 318 0000 08B5     		push	{r3, lr}
 319              		.cfi_def_cfa_offset 8
 320              		.cfi_offset 3, -8
 321              		.cfi_offset 14, -4
 256:Core/Src/stm32f1xx_it.c ****   /* USER CODE BEGIN DMA1_Channel4_IRQn 0 */
 257:Core/Src/stm32f1xx_it.c **** 
 258:Core/Src/stm32f1xx_it.c ****   /* USER CODE END DMA1_Channel4_IRQn 0 */
 259:Core/Src/stm32f1xx_it.c ****   HAL_DMA_IRQHandler(&hdma_usart1_tx);
 322              		.loc 1 259 3 view .LVU39
 323 0002 0248     		ldr	r0, .L30
 324 0004 FFF7FEFF 		bl	HAL_DMA_IRQHandler
 325              	.LVL4:
 260:Core/Src/stm32f1xx_it.c ****   /* USER CODE BEGIN DMA1_Channel4_IRQn 1 */
 261:Core/Src/stm32f1xx_it.c **** 
 262:Core/Src/stm32f1xx_it.c ****   /* USER CODE END DMA1_Channel4_IRQn 1 */
 263:Core/Src/stm32f1xx_it.c **** }
 326              		.loc 1 263 1 is_stmt 0 view .LVU40
 327 0008 08BD     		pop	{r3, pc}
ARM GAS  C:\Users\zhmis\AppData\Local\Temp\ccFqbXyi.s 			page 11


 328              	.L31:
 329 000a 00BF     		.align	2
 330              	.L30:
 331 000c 00000000 		.word	hdma_usart1_tx
 332              		.cfi_endproc
 333              	.LFE77:
 335              		.section	.text.DMA1_Channel5_IRQHandler,"ax",%progbits
 336              		.align	1
 337              		.global	DMA1_Channel5_IRQHandler
 338              		.syntax unified
 339              		.thumb
 340              		.thumb_func
 342              	DMA1_Channel5_IRQHandler:
 343              	.LFB78:
 264:Core/Src/stm32f1xx_it.c **** 
 265:Core/Src/stm32f1xx_it.c **** /**
 266:Core/Src/stm32f1xx_it.c ****   * @brief This function handles DMA1 channel5 global interrupt.
 267:Core/Src/stm32f1xx_it.c ****   */
 268:Core/Src/stm32f1xx_it.c **** void DMA1_Channel5_IRQHandler(void)
 269:Core/Src/stm32f1xx_it.c **** {
 344              		.loc 1 269 1 is_stmt 1 view -0
 345              		.cfi_startproc
 346              		@ args = 0, pretend = 0, frame = 0
 347              		@ frame_needed = 0, uses_anonymous_args = 0
 348 0000 08B5     		push	{r3, lr}
 349              		.cfi_def_cfa_offset 8
 350              		.cfi_offset 3, -8
 351              		.cfi_offset 14, -4
 270:Core/Src/stm32f1xx_it.c ****   /* USER CODE BEGIN DMA1_Channel5_IRQn 0 */
 271:Core/Src/stm32f1xx_it.c **** 
 272:Core/Src/stm32f1xx_it.c ****   /* USER CODE END DMA1_Channel5_IRQn 0 */
 273:Core/Src/stm32f1xx_it.c ****   HAL_DMA_IRQHandler(&hdma_usart1_rx);
 352              		.loc 1 273 3 view .LVU42
 353 0002 0248     		ldr	r0, .L34
 354 0004 FFF7FEFF 		bl	HAL_DMA_IRQHandler
 355              	.LVL5:
 274:Core/Src/stm32f1xx_it.c ****   /* USER CODE BEGIN DMA1_Channel5_IRQn 1 */
 275:Core/Src/stm32f1xx_it.c **** 
 276:Core/Src/stm32f1xx_it.c ****   /* USER CODE END DMA1_Channel5_IRQn 1 */
 277:Core/Src/stm32f1xx_it.c **** }
 356              		.loc 1 277 1 is_stmt 0 view .LVU43
 357 0008 08BD     		pop	{r3, pc}
 358              	.L35:
 359 000a 00BF     		.align	2
 360              	.L34:
 361 000c 00000000 		.word	hdma_usart1_rx
 362              		.cfi_endproc
 363              	.LFE78:
 365              		.section	.text.TIM3_IRQHandler,"ax",%progbits
 366              		.align	1
 367              		.global	TIM3_IRQHandler
 368              		.syntax unified
 369              		.thumb
 370              		.thumb_func
 372              	TIM3_IRQHandler:
 373              	.LFB79:
 278:Core/Src/stm32f1xx_it.c **** 
ARM GAS  C:\Users\zhmis\AppData\Local\Temp\ccFqbXyi.s 			page 12


 279:Core/Src/stm32f1xx_it.c **** /**
 280:Core/Src/stm32f1xx_it.c ****   * @brief This function handles TIM3 global interrupt.
 281:Core/Src/stm32f1xx_it.c ****   */
 282:Core/Src/stm32f1xx_it.c **** void TIM3_IRQHandler(void)
 283:Core/Src/stm32f1xx_it.c **** {
 374              		.loc 1 283 1 is_stmt 1 view -0
 375              		.cfi_startproc
 376              		@ args = 0, pretend = 0, frame = 0
 377              		@ frame_needed = 0, uses_anonymous_args = 0
 378 0000 08B5     		push	{r3, lr}
 379              		.cfi_def_cfa_offset 8
 380              		.cfi_offset 3, -8
 381              		.cfi_offset 14, -4
 284:Core/Src/stm32f1xx_it.c ****   /* USER CODE BEGIN TIM3_IRQn 0 */
 285:Core/Src/stm32f1xx_it.c **** 
 286:Core/Src/stm32f1xx_it.c ****   /* USER CODE END TIM3_IRQn 0 */
 287:Core/Src/stm32f1xx_it.c ****   HAL_TIM_IRQHandler(&htim3);
 382              		.loc 1 287 3 view .LVU45
 383 0002 0248     		ldr	r0, .L38
 384 0004 FFF7FEFF 		bl	HAL_TIM_IRQHandler
 385              	.LVL6:
 288:Core/Src/stm32f1xx_it.c ****   /* USER CODE BEGIN TIM3_IRQn 1 */
 289:Core/Src/stm32f1xx_it.c ****   // sos++;
 290:Core/Src/stm32f1xx_it.c ****   // task18khz();
 291:Core/Src/stm32f1xx_it.c **** 
 292:Core/Src/stm32f1xx_it.c ****   /* USER CODE END TIM3_IRQn 1 */
 293:Core/Src/stm32f1xx_it.c **** }
 386              		.loc 1 293 1 is_stmt 0 view .LVU46
 387 0008 08BD     		pop	{r3, pc}
 388              	.L39:
 389 000a 00BF     		.align	2
 390              	.L38:
 391 000c 00000000 		.word	htim3
 392              		.cfi_endproc
 393              	.LFE79:
 395              		.section	.text.SPI1_IRQHandler,"ax",%progbits
 396              		.align	1
 397              		.global	SPI1_IRQHandler
 398              		.syntax unified
 399              		.thumb
 400              		.thumb_func
 402              	SPI1_IRQHandler:
 403              	.LFB80:
 294:Core/Src/stm32f1xx_it.c **** 
 295:Core/Src/stm32f1xx_it.c **** /**
 296:Core/Src/stm32f1xx_it.c ****   * @brief This function handles SPI1 global interrupt.
 297:Core/Src/stm32f1xx_it.c ****   */
 298:Core/Src/stm32f1xx_it.c **** void SPI1_IRQHandler(void)
 299:Core/Src/stm32f1xx_it.c **** {
 404              		.loc 1 299 1 is_stmt 1 view -0
 405              		.cfi_startproc
 406              		@ args = 0, pretend = 0, frame = 0
 407              		@ frame_needed = 0, uses_anonymous_args = 0
 408 0000 08B5     		push	{r3, lr}
 409              		.cfi_def_cfa_offset 8
 410              		.cfi_offset 3, -8
 411              		.cfi_offset 14, -4
ARM GAS  C:\Users\zhmis\AppData\Local\Temp\ccFqbXyi.s 			page 13


 300:Core/Src/stm32f1xx_it.c ****   /* USER CODE BEGIN SPI1_IRQn 0 */
 301:Core/Src/stm32f1xx_it.c **** 
 302:Core/Src/stm32f1xx_it.c ****   /* USER CODE END SPI1_IRQn 0 */
 303:Core/Src/stm32f1xx_it.c ****   HAL_SPI_IRQHandler(&hspi1);
 412              		.loc 1 303 3 view .LVU48
 413 0002 0248     		ldr	r0, .L42
 414 0004 FFF7FEFF 		bl	HAL_SPI_IRQHandler
 415              	.LVL7:
 304:Core/Src/stm32f1xx_it.c ****   /* USER CODE BEGIN SPI1_IRQn 1 */
 305:Core/Src/stm32f1xx_it.c **** 
 306:Core/Src/stm32f1xx_it.c ****   /* USER CODE END SPI1_IRQn 1 */
 307:Core/Src/stm32f1xx_it.c **** }
 416              		.loc 1 307 1 is_stmt 0 view .LVU49
 417 0008 08BD     		pop	{r3, pc}
 418              	.L43:
 419 000a 00BF     		.align	2
 420              	.L42:
 421 000c 00000000 		.word	hspi1
 422              		.cfi_endproc
 423              	.LFE80:
 425              		.section	.text.USART1_IRQHandler,"ax",%progbits
 426              		.align	1
 427              		.global	USART1_IRQHandler
 428              		.syntax unified
 429              		.thumb
 430              		.thumb_func
 432              	USART1_IRQHandler:
 433              	.LFB81:
 308:Core/Src/stm32f1xx_it.c **** 
 309:Core/Src/stm32f1xx_it.c **** /**
 310:Core/Src/stm32f1xx_it.c ****   * @brief This function handles USART1 global interrupt.
 311:Core/Src/stm32f1xx_it.c ****   */
 312:Core/Src/stm32f1xx_it.c **** void USART1_IRQHandler(void)
 313:Core/Src/stm32f1xx_it.c **** {
 434              		.loc 1 313 1 is_stmt 1 view -0
 435              		.cfi_startproc
 436              		@ args = 0, pretend = 0, frame = 0
 437              		@ frame_needed = 0, uses_anonymous_args = 0
 438 0000 08B5     		push	{r3, lr}
 439              		.cfi_def_cfa_offset 8
 440              		.cfi_offset 3, -8
 441              		.cfi_offset 14, -4
 314:Core/Src/stm32f1xx_it.c ****   /* USER CODE BEGIN USART1_IRQn 0 */
 315:Core/Src/stm32f1xx_it.c **** 
 316:Core/Src/stm32f1xx_it.c ****   /* USER CODE END USART1_IRQn 0 */
 317:Core/Src/stm32f1xx_it.c ****   HAL_UART_IRQHandler(&huart1);
 442              		.loc 1 317 3 view .LVU51
 443 0002 0248     		ldr	r0, .L46
 444 0004 FFF7FEFF 		bl	HAL_UART_IRQHandler
 445              	.LVL8:
 318:Core/Src/stm32f1xx_it.c ****   /* USER CODE BEGIN USART1_IRQn 1 */
 319:Core/Src/stm32f1xx_it.c **** 
 320:Core/Src/stm32f1xx_it.c ****   /* USER CODE END USART1_IRQn 1 */
 321:Core/Src/stm32f1xx_it.c **** }
 446              		.loc 1 321 1 is_stmt 0 view .LVU52
 447 0008 08BD     		pop	{r3, pc}
 448              	.L47:
ARM GAS  C:\Users\zhmis\AppData\Local\Temp\ccFqbXyi.s 			page 14


 449 000a 00BF     		.align	2
 450              	.L46:
 451 000c 00000000 		.word	huart1
 452              		.cfi_endproc
 453              	.LFE81:
 455              		.global	sos
 456              		.section	.bss.sos,"aw",%nobits
 457              		.align	2
 460              	sos:
 461 0000 00000000 		.space	4
 462              		.text
 463              	.Letext0:
 464              		.file 2 "C:/Users/zhmis/AppData/Roaming/Code/User/globalStorage/bmd.stm32-for-vscode/@xpack-dev-to
 465              		.file 3 "C:/Users/zhmis/AppData/Roaming/Code/User/globalStorage/bmd.stm32-for-vscode/@xpack-dev-to
 466              		.file 4 "Drivers/CMSIS/Device/ST/STM32F1xx/Include/stm32f103xb.h"
 467              		.file 5 "Drivers/STM32F1xx_HAL_Driver/Inc/stm32f1xx_hal_def.h"
 468              		.file 6 "Drivers/STM32F1xx_HAL_Driver/Inc/stm32f1xx_hal_dma.h"
 469              		.file 7 "Drivers/STM32F1xx_HAL_Driver/Inc/stm32f1xx_hal_spi.h"
 470              		.file 8 "Drivers/STM32F1xx_HAL_Driver/Inc/stm32f1xx_hal_tim.h"
 471              		.file 9 "Drivers/STM32F1xx_HAL_Driver/Inc/stm32f1xx_hal_uart.h"
 472              		.file 10 "Core/Inc/tim.h"
 473              		.file 11 "Core/Inc/usart.h"
 474              		.file 12 "Drivers/STM32F1xx_HAL_Driver/Inc/stm32f1xx_hal.h"
ARM GAS  C:\Users\zhmis\AppData\Local\Temp\ccFqbXyi.s 			page 15

