ARM GAS  C:\Users\zhmis\AppData\Local\Temp\cc5NXYHP.s 			page 1


   1              		.cpu cortex-m3
   2              		.arch armv7-m
   3              		.fpu softvfp
   4              		.eabi_attribute 20, 1
   5              		.eabi_attribute 21, 1
   6              		.eabi_attribute 23, 3
   7              		.eabi_attribute 24, 1
   8              		.eabi_attribute 25, 1
   9              		.eabi_attribute 26, 1
  10              		.eabi_attribute 30, 1
  11              		.eabi_attribute 34, 1
  12              		.eabi_attribute 18, 4
  13              		.file	"usart.c"
  14              		.text
  15              	.Ltext0:
  16              		.cfi_sections	.debug_frame
  17              		.file 1 "Core/Src/usart.c"
  18              		.section	.text.MX_USART1_UART_Init,"ax",%progbits
  19              		.align	1
  20              		.global	MX_USART1_UART_Init
  21              		.syntax unified
  22              		.thumb
  23              		.thumb_func
  25              	MX_USART1_UART_Init:
  26              	.LFB65:
   1:Core/Src/usart.c **** /* USER CODE BEGIN Header */
   2:Core/Src/usart.c **** /**
   3:Core/Src/usart.c ****   ******************************************************************************
   4:Core/Src/usart.c ****   * @file    usart.c
   5:Core/Src/usart.c ****   * @brief   This file provides code for the configuration
   6:Core/Src/usart.c ****   *          of the USART instances.
   7:Core/Src/usart.c ****   ******************************************************************************
   8:Core/Src/usart.c ****   * @attention
   9:Core/Src/usart.c ****   *
  10:Core/Src/usart.c ****   * Copyright (c) 2025 STMicroelectronics.
  11:Core/Src/usart.c ****   * All rights reserved.
  12:Core/Src/usart.c ****   *
  13:Core/Src/usart.c ****   * This software is licensed under terms that can be found in the LICENSE file
  14:Core/Src/usart.c ****   * in the root directory of this software component.
  15:Core/Src/usart.c ****   * If no LICENSE file comes with this software, it is provided AS-IS.
  16:Core/Src/usart.c ****   *
  17:Core/Src/usart.c ****   ******************************************************************************
  18:Core/Src/usart.c ****   */
  19:Core/Src/usart.c **** /* USER CODE END Header */
  20:Core/Src/usart.c **** /* Includes ------------------------------------------------------------------*/
  21:Core/Src/usart.c **** #include "usart.h"
  22:Core/Src/usart.c **** 
  23:Core/Src/usart.c **** /* USER CODE BEGIN 0 */
  24:Core/Src/usart.c **** 
  25:Core/Src/usart.c **** /* USER CODE END 0 */
  26:Core/Src/usart.c **** 
  27:Core/Src/usart.c **** UART_HandleTypeDef huart1;
  28:Core/Src/usart.c **** DMA_HandleTypeDef hdma_usart1_tx;
  29:Core/Src/usart.c **** DMA_HandleTypeDef hdma_usart1_rx;
  30:Core/Src/usart.c **** 
  31:Core/Src/usart.c **** /* USART1 init function */
  32:Core/Src/usart.c **** 
ARM GAS  C:\Users\zhmis\AppData\Local\Temp\cc5NXYHP.s 			page 2


  33:Core/Src/usart.c **** void MX_USART1_UART_Init(void)
  34:Core/Src/usart.c **** {
  27              		.loc 1 34 1 view -0
  28              		.cfi_startproc
  29              		@ args = 0, pretend = 0, frame = 0
  30              		@ frame_needed = 0, uses_anonymous_args = 0
  31 0000 08B5     		push	{r3, lr}
  32              		.cfi_def_cfa_offset 8
  33              		.cfi_offset 3, -8
  34              		.cfi_offset 14, -4
  35:Core/Src/usart.c **** 
  36:Core/Src/usart.c ****   /* USER CODE BEGIN USART1_Init 0 */
  37:Core/Src/usart.c **** 
  38:Core/Src/usart.c ****   /* USER CODE END USART1_Init 0 */
  39:Core/Src/usart.c **** 
  40:Core/Src/usart.c ****   /* USER CODE BEGIN USART1_Init 1 */
  41:Core/Src/usart.c **** 
  42:Core/Src/usart.c ****   /* USER CODE END USART1_Init 1 */
  43:Core/Src/usart.c ****   huart1.Instance = USART1;
  35              		.loc 1 43 3 view .LVU1
  36              		.loc 1 43 19 is_stmt 0 view .LVU2
  37 0002 0A48     		ldr	r0, .L5
  38 0004 0A4B     		ldr	r3, .L5+4
  39 0006 0360     		str	r3, [r0]
  44:Core/Src/usart.c ****   huart1.Init.BaudRate = 115200;
  40              		.loc 1 44 3 is_stmt 1 view .LVU3
  41              		.loc 1 44 24 is_stmt 0 view .LVU4
  42 0008 4FF4E133 		mov	r3, #115200
  43 000c 4360     		str	r3, [r0, #4]
  45:Core/Src/usart.c ****   huart1.Init.WordLength = UART_WORDLENGTH_8B;
  44              		.loc 1 45 3 is_stmt 1 view .LVU5
  45              		.loc 1 45 26 is_stmt 0 view .LVU6
  46 000e 0023     		movs	r3, #0
  47 0010 8360     		str	r3, [r0, #8]
  46:Core/Src/usart.c ****   huart1.Init.StopBits = UART_STOPBITS_1;
  48              		.loc 1 46 3 is_stmt 1 view .LVU7
  49              		.loc 1 46 24 is_stmt 0 view .LVU8
  50 0012 C360     		str	r3, [r0, #12]
  47:Core/Src/usart.c ****   huart1.Init.Parity = UART_PARITY_NONE;
  51              		.loc 1 47 3 is_stmt 1 view .LVU9
  52              		.loc 1 47 22 is_stmt 0 view .LVU10
  53 0014 0361     		str	r3, [r0, #16]
  48:Core/Src/usart.c ****   huart1.Init.Mode = UART_MODE_TX_RX;
  54              		.loc 1 48 3 is_stmt 1 view .LVU11
  55              		.loc 1 48 20 is_stmt 0 view .LVU12
  56 0016 0C22     		movs	r2, #12
  57 0018 4261     		str	r2, [r0, #20]
  49:Core/Src/usart.c ****   huart1.Init.HwFlowCtl = UART_HWCONTROL_NONE;
  58              		.loc 1 49 3 is_stmt 1 view .LVU13
  59              		.loc 1 49 25 is_stmt 0 view .LVU14
  60 001a 8361     		str	r3, [r0, #24]
  50:Core/Src/usart.c ****   huart1.Init.OverSampling = UART_OVERSAMPLING_16;
  61              		.loc 1 50 3 is_stmt 1 view .LVU15
  62              		.loc 1 50 28 is_stmt 0 view .LVU16
  63 001c C361     		str	r3, [r0, #28]
  51:Core/Src/usart.c ****   if (HAL_UART_Init(&huart1) != HAL_OK)
  64              		.loc 1 51 3 is_stmt 1 view .LVU17
ARM GAS  C:\Users\zhmis\AppData\Local\Temp\cc5NXYHP.s 			page 3


  65              		.loc 1 51 7 is_stmt 0 view .LVU18
  66 001e FFF7FEFF 		bl	HAL_UART_Init
  67              	.LVL0:
  68              		.loc 1 51 6 discriminator 1 view .LVU19
  69 0022 00B9     		cbnz	r0, .L4
  70              	.L1:
  52:Core/Src/usart.c ****   {
  53:Core/Src/usart.c ****     Error_Handler();
  54:Core/Src/usart.c ****   }
  55:Core/Src/usart.c ****   /* USER CODE BEGIN USART1_Init 2 */
  56:Core/Src/usart.c **** 
  57:Core/Src/usart.c ****   /* USER CODE END USART1_Init 2 */
  58:Core/Src/usart.c **** 
  59:Core/Src/usart.c **** }
  71              		.loc 1 59 1 view .LVU20
  72 0024 08BD     		pop	{r3, pc}
  73              	.L4:
  53:Core/Src/usart.c ****   }
  74              		.loc 1 53 5 is_stmt 1 view .LVU21
  75 0026 FFF7FEFF 		bl	Error_Handler
  76              	.LVL1:
  77              		.loc 1 59 1 is_stmt 0 view .LVU22
  78 002a FBE7     		b	.L1
  79              	.L6:
  80              		.align	2
  81              	.L5:
  82 002c 00000000 		.word	huart1
  83 0030 00380140 		.word	1073821696
  84              		.cfi_endproc
  85              	.LFE65:
  87              		.section	.text.HAL_UART_MspInit,"ax",%progbits
  88              		.align	1
  89              		.global	HAL_UART_MspInit
  90              		.syntax unified
  91              		.thumb
  92              		.thumb_func
  94              	HAL_UART_MspInit:
  95              	.LVL2:
  96              	.LFB66:
  60:Core/Src/usart.c **** 
  61:Core/Src/usart.c **** void HAL_UART_MspInit(UART_HandleTypeDef* uartHandle)
  62:Core/Src/usart.c **** {
  97              		.loc 1 62 1 is_stmt 1 view -0
  98              		.cfi_startproc
  99              		@ args = 0, pretend = 0, frame = 24
 100              		@ frame_needed = 0, uses_anonymous_args = 0
 101              		.loc 1 62 1 is_stmt 0 view .LVU24
 102 0000 F0B5     		push	{r4, r5, r6, r7, lr}
 103              		.cfi_def_cfa_offset 20
 104              		.cfi_offset 4, -20
 105              		.cfi_offset 5, -16
 106              		.cfi_offset 6, -12
 107              		.cfi_offset 7, -8
 108              		.cfi_offset 14, -4
 109 0002 87B0     		sub	sp, sp, #28
 110              		.cfi_def_cfa_offset 48
  63:Core/Src/usart.c **** 
ARM GAS  C:\Users\zhmis\AppData\Local\Temp\cc5NXYHP.s 			page 4


  64:Core/Src/usart.c ****   GPIO_InitTypeDef GPIO_InitStruct = {0};
 111              		.loc 1 64 3 is_stmt 1 view .LVU25
 112              		.loc 1 64 20 is_stmt 0 view .LVU26
 113 0004 0023     		movs	r3, #0
 114 0006 0293     		str	r3, [sp, #8]
 115 0008 0393     		str	r3, [sp, #12]
 116 000a 0493     		str	r3, [sp, #16]
 117 000c 0593     		str	r3, [sp, #20]
  65:Core/Src/usart.c ****   if(uartHandle->Instance==USART1)
 118              		.loc 1 65 3 is_stmt 1 view .LVU27
 119              		.loc 1 65 16 is_stmt 0 view .LVU28
 120 000e 0268     		ldr	r2, [r0]
 121              		.loc 1 65 5 view .LVU29
 122 0010 314B     		ldr	r3, .L15
 123 0012 9A42     		cmp	r2, r3
 124 0014 01D0     		beq	.L12
 125              	.LVL3:
 126              	.L7:
  66:Core/Src/usart.c ****   {
  67:Core/Src/usart.c ****   /* USER CODE BEGIN USART1_MspInit 0 */
  68:Core/Src/usart.c **** 
  69:Core/Src/usart.c ****   /* USER CODE END USART1_MspInit 0 */
  70:Core/Src/usart.c ****     /* USART1 clock enable */
  71:Core/Src/usart.c ****     __HAL_RCC_USART1_CLK_ENABLE();
  72:Core/Src/usart.c **** 
  73:Core/Src/usart.c ****     __HAL_RCC_GPIOB_CLK_ENABLE();
  74:Core/Src/usart.c ****     /**USART1 GPIO Configuration
  75:Core/Src/usart.c ****     PB6     ------> USART1_TX
  76:Core/Src/usart.c ****     PB7     ------> USART1_RX
  77:Core/Src/usart.c ****     */
  78:Core/Src/usart.c ****     GPIO_InitStruct.Pin = GPIO_PIN_6;
  79:Core/Src/usart.c ****     GPIO_InitStruct.Mode = GPIO_MODE_AF_PP;
  80:Core/Src/usart.c ****     GPIO_InitStruct.Speed = GPIO_SPEED_FREQ_HIGH;
  81:Core/Src/usart.c ****     HAL_GPIO_Init(GPIOB, &GPIO_InitStruct);
  82:Core/Src/usart.c **** 
  83:Core/Src/usart.c ****     GPIO_InitStruct.Pin = GPIO_PIN_7;
  84:Core/Src/usart.c ****     GPIO_InitStruct.Mode = GPIO_MODE_INPUT;
  85:Core/Src/usart.c ****     GPIO_InitStruct.Pull = GPIO_NOPULL;
  86:Core/Src/usart.c ****     HAL_GPIO_Init(GPIOB, &GPIO_InitStruct);
  87:Core/Src/usart.c **** 
  88:Core/Src/usart.c ****     __HAL_AFIO_REMAP_USART1_ENABLE();
  89:Core/Src/usart.c **** 
  90:Core/Src/usart.c ****     /* USART1 DMA Init */
  91:Core/Src/usart.c ****     /* USART1_TX Init */
  92:Core/Src/usart.c ****     hdma_usart1_tx.Instance = DMA1_Channel4;
  93:Core/Src/usart.c ****     hdma_usart1_tx.Init.Direction = DMA_MEMORY_TO_PERIPH;
  94:Core/Src/usart.c ****     hdma_usart1_tx.Init.PeriphInc = DMA_PINC_DISABLE;
  95:Core/Src/usart.c ****     hdma_usart1_tx.Init.MemInc = DMA_MINC_ENABLE;
  96:Core/Src/usart.c ****     hdma_usart1_tx.Init.PeriphDataAlignment = DMA_PDATAALIGN_BYTE;
  97:Core/Src/usart.c ****     hdma_usart1_tx.Init.MemDataAlignment = DMA_MDATAALIGN_BYTE;
  98:Core/Src/usart.c ****     hdma_usart1_tx.Init.Mode = DMA_NORMAL;
  99:Core/Src/usart.c ****     hdma_usart1_tx.Init.Priority = DMA_PRIORITY_HIGH;
 100:Core/Src/usart.c ****     if (HAL_DMA_Init(&hdma_usart1_tx) != HAL_OK)
 101:Core/Src/usart.c ****     {
 102:Core/Src/usart.c ****       Error_Handler();
 103:Core/Src/usart.c ****     }
 104:Core/Src/usart.c **** 
ARM GAS  C:\Users\zhmis\AppData\Local\Temp\cc5NXYHP.s 			page 5


 105:Core/Src/usart.c ****     __HAL_LINKDMA(uartHandle,hdmatx,hdma_usart1_tx);
 106:Core/Src/usart.c **** 
 107:Core/Src/usart.c ****     /* USART1_RX Init */
 108:Core/Src/usart.c ****     hdma_usart1_rx.Instance = DMA1_Channel5;
 109:Core/Src/usart.c ****     hdma_usart1_rx.Init.Direction = DMA_PERIPH_TO_MEMORY;
 110:Core/Src/usart.c ****     hdma_usart1_rx.Init.PeriphInc = DMA_PINC_DISABLE;
 111:Core/Src/usart.c ****     hdma_usart1_rx.Init.MemInc = DMA_MINC_ENABLE;
 112:Core/Src/usart.c ****     hdma_usart1_rx.Init.PeriphDataAlignment = DMA_PDATAALIGN_BYTE;
 113:Core/Src/usart.c ****     hdma_usart1_rx.Init.MemDataAlignment = DMA_MDATAALIGN_BYTE;
 114:Core/Src/usart.c ****     hdma_usart1_rx.Init.Mode = DMA_NORMAL;
 115:Core/Src/usart.c ****     hdma_usart1_rx.Init.Priority = DMA_PRIORITY_HIGH;
 116:Core/Src/usart.c ****     if (HAL_DMA_Init(&hdma_usart1_rx) != HAL_OK)
 117:Core/Src/usart.c ****     {
 118:Core/Src/usart.c ****       Error_Handler();
 119:Core/Src/usart.c ****     }
 120:Core/Src/usart.c **** 
 121:Core/Src/usart.c ****     __HAL_LINKDMA(uartHandle,hdmarx,hdma_usart1_rx);
 122:Core/Src/usart.c **** 
 123:Core/Src/usart.c ****   /* USER CODE BEGIN USART1_MspInit 1 */
 124:Core/Src/usart.c **** 
 125:Core/Src/usart.c ****   /* USER CODE END USART1_MspInit 1 */
 126:Core/Src/usart.c ****   }
 127:Core/Src/usart.c **** }
 127              		.loc 1 127 1 view .LVU30
 128 0016 07B0     		add	sp, sp, #28
 129              		.cfi_remember_state
 130              		.cfi_def_cfa_offset 20
 131              		@ sp needed
 132 0018 F0BD     		pop	{r4, r5, r6, r7, pc}
 133              	.LVL4:
 134              	.L12:
 135              		.cfi_restore_state
 136              		.loc 1 127 1 view .LVU31
 137 001a 0446     		mov	r4, r0
  71:Core/Src/usart.c **** 
 138              		.loc 1 71 5 is_stmt 1 view .LVU32
 139              	.LBB2:
  71:Core/Src/usart.c **** 
 140              		.loc 1 71 5 view .LVU33
  71:Core/Src/usart.c **** 
 141              		.loc 1 71 5 view .LVU34
 142 001c 03F55843 		add	r3, r3, #55296
 143 0020 9A69     		ldr	r2, [r3, #24]
 144 0022 42F48042 		orr	r2, r2, #16384
 145 0026 9A61     		str	r2, [r3, #24]
  71:Core/Src/usart.c **** 
 146              		.loc 1 71 5 view .LVU35
 147 0028 9A69     		ldr	r2, [r3, #24]
 148 002a 02F48042 		and	r2, r2, #16384
 149 002e 0092     		str	r2, [sp]
  71:Core/Src/usart.c **** 
 150              		.loc 1 71 5 view .LVU36
 151 0030 009A     		ldr	r2, [sp]
 152              	.LBE2:
  71:Core/Src/usart.c **** 
 153              		.loc 1 71 5 view .LVU37
  73:Core/Src/usart.c ****     /**USART1 GPIO Configuration
ARM GAS  C:\Users\zhmis\AppData\Local\Temp\cc5NXYHP.s 			page 6


 154              		.loc 1 73 5 view .LVU38
 155              	.LBB3:
  73:Core/Src/usart.c ****     /**USART1 GPIO Configuration
 156              		.loc 1 73 5 view .LVU39
  73:Core/Src/usart.c ****     /**USART1 GPIO Configuration
 157              		.loc 1 73 5 view .LVU40
 158 0032 9A69     		ldr	r2, [r3, #24]
 159 0034 42F00802 		orr	r2, r2, #8
 160 0038 9A61     		str	r2, [r3, #24]
  73:Core/Src/usart.c ****     /**USART1 GPIO Configuration
 161              		.loc 1 73 5 view .LVU41
 162 003a 9B69     		ldr	r3, [r3, #24]
 163 003c 03F00803 		and	r3, r3, #8
 164 0040 0193     		str	r3, [sp, #4]
  73:Core/Src/usart.c ****     /**USART1 GPIO Configuration
 165              		.loc 1 73 5 view .LVU42
 166 0042 019B     		ldr	r3, [sp, #4]
 167              	.LBE3:
  73:Core/Src/usart.c ****     /**USART1 GPIO Configuration
 168              		.loc 1 73 5 view .LVU43
  78:Core/Src/usart.c ****     GPIO_InitStruct.Mode = GPIO_MODE_AF_PP;
 169              		.loc 1 78 5 view .LVU44
  78:Core/Src/usart.c ****     GPIO_InitStruct.Mode = GPIO_MODE_AF_PP;
 170              		.loc 1 78 25 is_stmt 0 view .LVU45
 171 0044 4023     		movs	r3, #64
 172 0046 0293     		str	r3, [sp, #8]
  79:Core/Src/usart.c ****     GPIO_InitStruct.Speed = GPIO_SPEED_FREQ_HIGH;
 173              		.loc 1 79 5 is_stmt 1 view .LVU46
  79:Core/Src/usart.c ****     GPIO_InitStruct.Speed = GPIO_SPEED_FREQ_HIGH;
 174              		.loc 1 79 26 is_stmt 0 view .LVU47
 175 0048 0223     		movs	r3, #2
 176 004a 0393     		str	r3, [sp, #12]
  80:Core/Src/usart.c ****     HAL_GPIO_Init(GPIOB, &GPIO_InitStruct);
 177              		.loc 1 80 5 is_stmt 1 view .LVU48
  80:Core/Src/usart.c ****     HAL_GPIO_Init(GPIOB, &GPIO_InitStruct);
 178              		.loc 1 80 27 is_stmt 0 view .LVU49
 179 004c 0323     		movs	r3, #3
 180 004e 0593     		str	r3, [sp, #20]
  81:Core/Src/usart.c **** 
 181              		.loc 1 81 5 is_stmt 1 view .LVU50
 182 0050 224F     		ldr	r7, .L15+4
 183 0052 02A9     		add	r1, sp, #8
 184 0054 3846     		mov	r0, r7
 185              	.LVL5:
  81:Core/Src/usart.c **** 
 186              		.loc 1 81 5 is_stmt 0 view .LVU51
 187 0056 FFF7FEFF 		bl	HAL_GPIO_Init
 188              	.LVL6:
  83:Core/Src/usart.c ****     GPIO_InitStruct.Mode = GPIO_MODE_INPUT;
 189              		.loc 1 83 5 is_stmt 1 view .LVU52
  83:Core/Src/usart.c ****     GPIO_InitStruct.Mode = GPIO_MODE_INPUT;
 190              		.loc 1 83 25 is_stmt 0 view .LVU53
 191 005a 8026     		movs	r6, #128
 192 005c 0296     		str	r6, [sp, #8]
  84:Core/Src/usart.c ****     GPIO_InitStruct.Pull = GPIO_NOPULL;
 193              		.loc 1 84 5 is_stmt 1 view .LVU54
  84:Core/Src/usart.c ****     GPIO_InitStruct.Pull = GPIO_NOPULL;
ARM GAS  C:\Users\zhmis\AppData\Local\Temp\cc5NXYHP.s 			page 7


 194              		.loc 1 84 26 is_stmt 0 view .LVU55
 195 005e 0025     		movs	r5, #0
 196 0060 0395     		str	r5, [sp, #12]
  85:Core/Src/usart.c ****     HAL_GPIO_Init(GPIOB, &GPIO_InitStruct);
 197              		.loc 1 85 5 is_stmt 1 view .LVU56
  85:Core/Src/usart.c ****     HAL_GPIO_Init(GPIOB, &GPIO_InitStruct);
 198              		.loc 1 85 26 is_stmt 0 view .LVU57
 199 0062 0495     		str	r5, [sp, #16]
  86:Core/Src/usart.c **** 
 200              		.loc 1 86 5 is_stmt 1 view .LVU58
 201 0064 02A9     		add	r1, sp, #8
 202 0066 3846     		mov	r0, r7
 203 0068 FFF7FEFF 		bl	HAL_GPIO_Init
 204              	.LVL7:
  88:Core/Src/usart.c **** 
 205              		.loc 1 88 5 view .LVU59
 206              	.LBB4:
  88:Core/Src/usart.c **** 
 207              		.loc 1 88 5 view .LVU60
 208 006c 1C4A     		ldr	r2, .L15+8
 209 006e 5368     		ldr	r3, [r2, #4]
 210              	.LVL8:
  88:Core/Src/usart.c **** 
 211              		.loc 1 88 5 view .LVU61
  88:Core/Src/usart.c **** 
 212              		.loc 1 88 5 view .LVU62
 213 0070 43F0E063 		orr	r3, r3, #117440512
 214              	.LVL9:
  88:Core/Src/usart.c **** 
 215              		.loc 1 88 5 is_stmt 0 view .LVU63
 216 0074 43F00403 		orr	r3, r3, #4
 217              	.LVL10:
  88:Core/Src/usart.c **** 
 218              		.loc 1 88 5 is_stmt 1 view .LVU64
 219 0078 5360     		str	r3, [r2, #4]
 220              	.LBE4:
  88:Core/Src/usart.c **** 
 221              		.loc 1 88 5 view .LVU65
  92:Core/Src/usart.c ****     hdma_usart1_tx.Init.Direction = DMA_MEMORY_TO_PERIPH;
 222              		.loc 1 92 5 view .LVU66
  92:Core/Src/usart.c ****     hdma_usart1_tx.Init.Direction = DMA_MEMORY_TO_PERIPH;
 223              		.loc 1 92 29 is_stmt 0 view .LVU67
 224 007a 1A48     		ldr	r0, .L15+12
 225 007c 1A4B     		ldr	r3, .L15+16
 226              	.LVL11:
  92:Core/Src/usart.c ****     hdma_usart1_tx.Init.Direction = DMA_MEMORY_TO_PERIPH;
 227              		.loc 1 92 29 view .LVU68
 228 007e 0360     		str	r3, [r0]
 229              	.LVL12:
  93:Core/Src/usart.c ****     hdma_usart1_tx.Init.PeriphInc = DMA_PINC_DISABLE;
 230              		.loc 1 93 5 is_stmt 1 view .LVU69
  93:Core/Src/usart.c ****     hdma_usart1_tx.Init.PeriphInc = DMA_PINC_DISABLE;
 231              		.loc 1 93 35 is_stmt 0 view .LVU70
 232 0080 1023     		movs	r3, #16
 233 0082 4360     		str	r3, [r0, #4]
  94:Core/Src/usart.c ****     hdma_usart1_tx.Init.MemInc = DMA_MINC_ENABLE;
 234              		.loc 1 94 5 is_stmt 1 view .LVU71
ARM GAS  C:\Users\zhmis\AppData\Local\Temp\cc5NXYHP.s 			page 8


  94:Core/Src/usart.c ****     hdma_usart1_tx.Init.MemInc = DMA_MINC_ENABLE;
 235              		.loc 1 94 35 is_stmt 0 view .LVU72
 236 0084 8560     		str	r5, [r0, #8]
  95:Core/Src/usart.c ****     hdma_usart1_tx.Init.PeriphDataAlignment = DMA_PDATAALIGN_BYTE;
 237              		.loc 1 95 5 is_stmt 1 view .LVU73
  95:Core/Src/usart.c ****     hdma_usart1_tx.Init.PeriphDataAlignment = DMA_PDATAALIGN_BYTE;
 238              		.loc 1 95 32 is_stmt 0 view .LVU74
 239 0086 C660     		str	r6, [r0, #12]
  96:Core/Src/usart.c ****     hdma_usart1_tx.Init.MemDataAlignment = DMA_MDATAALIGN_BYTE;
 240              		.loc 1 96 5 is_stmt 1 view .LVU75
  96:Core/Src/usart.c ****     hdma_usart1_tx.Init.MemDataAlignment = DMA_MDATAALIGN_BYTE;
 241              		.loc 1 96 45 is_stmt 0 view .LVU76
 242 0088 0561     		str	r5, [r0, #16]
  97:Core/Src/usart.c ****     hdma_usart1_tx.Init.Mode = DMA_NORMAL;
 243              		.loc 1 97 5 is_stmt 1 view .LVU77
  97:Core/Src/usart.c ****     hdma_usart1_tx.Init.Mode = DMA_NORMAL;
 244              		.loc 1 97 42 is_stmt 0 view .LVU78
 245 008a 4561     		str	r5, [r0, #20]
  98:Core/Src/usart.c ****     hdma_usart1_tx.Init.Priority = DMA_PRIORITY_HIGH;
 246              		.loc 1 98 5 is_stmt 1 view .LVU79
  98:Core/Src/usart.c ****     hdma_usart1_tx.Init.Priority = DMA_PRIORITY_HIGH;
 247              		.loc 1 98 30 is_stmt 0 view .LVU80
 248 008c 8561     		str	r5, [r0, #24]
  99:Core/Src/usart.c ****     if (HAL_DMA_Init(&hdma_usart1_tx) != HAL_OK)
 249              		.loc 1 99 5 is_stmt 1 view .LVU81
  99:Core/Src/usart.c ****     if (HAL_DMA_Init(&hdma_usart1_tx) != HAL_OK)
 250              		.loc 1 99 34 is_stmt 0 view .LVU82
 251 008e 4FF40053 		mov	r3, #8192
 252 0092 C361     		str	r3, [r0, #28]
 100:Core/Src/usart.c ****     {
 253              		.loc 1 100 5 is_stmt 1 view .LVU83
 100:Core/Src/usart.c ****     {
 254              		.loc 1 100 9 is_stmt 0 view .LVU84
 255 0094 FFF7FEFF 		bl	HAL_DMA_Init
 256              	.LVL13:
 100:Core/Src/usart.c ****     {
 257              		.loc 1 100 8 discriminator 1 view .LVU85
 258 0098 B8B9     		cbnz	r0, .L13
 259              	.L9:
 105:Core/Src/usart.c **** 
 260              		.loc 1 105 5 is_stmt 1 view .LVU86
 105:Core/Src/usart.c **** 
 261              		.loc 1 105 5 view .LVU87
 262 009a 124B     		ldr	r3, .L15+12
 263 009c A363     		str	r3, [r4, #56]
 105:Core/Src/usart.c **** 
 264              		.loc 1 105 5 view .LVU88
 265 009e 5C62     		str	r4, [r3, #36]
 105:Core/Src/usart.c **** 
 266              		.loc 1 105 5 view .LVU89
 108:Core/Src/usart.c ****     hdma_usart1_rx.Init.Direction = DMA_PERIPH_TO_MEMORY;
 267              		.loc 1 108 5 view .LVU90
 108:Core/Src/usart.c ****     hdma_usart1_rx.Init.Direction = DMA_PERIPH_TO_MEMORY;
 268              		.loc 1 108 29 is_stmt 0 view .LVU91
 269 00a0 1248     		ldr	r0, .L15+20
 270 00a2 134B     		ldr	r3, .L15+24
 271 00a4 0360     		str	r3, [r0]
ARM GAS  C:\Users\zhmis\AppData\Local\Temp\cc5NXYHP.s 			page 9


 109:Core/Src/usart.c ****     hdma_usart1_rx.Init.PeriphInc = DMA_PINC_DISABLE;
 272              		.loc 1 109 5 is_stmt 1 view .LVU92
 109:Core/Src/usart.c ****     hdma_usart1_rx.Init.PeriphInc = DMA_PINC_DISABLE;
 273              		.loc 1 109 35 is_stmt 0 view .LVU93
 274 00a6 0023     		movs	r3, #0
 275 00a8 4360     		str	r3, [r0, #4]
 110:Core/Src/usart.c ****     hdma_usart1_rx.Init.MemInc = DMA_MINC_ENABLE;
 276              		.loc 1 110 5 is_stmt 1 view .LVU94
 110:Core/Src/usart.c ****     hdma_usart1_rx.Init.MemInc = DMA_MINC_ENABLE;
 277              		.loc 1 110 35 is_stmt 0 view .LVU95
 278 00aa 8360     		str	r3, [r0, #8]
 111:Core/Src/usart.c ****     hdma_usart1_rx.Init.PeriphDataAlignment = DMA_PDATAALIGN_BYTE;
 279              		.loc 1 111 5 is_stmt 1 view .LVU96
 111:Core/Src/usart.c ****     hdma_usart1_rx.Init.PeriphDataAlignment = DMA_PDATAALIGN_BYTE;
 280              		.loc 1 111 32 is_stmt 0 view .LVU97
 281 00ac 8022     		movs	r2, #128
 282 00ae C260     		str	r2, [r0, #12]
 112:Core/Src/usart.c ****     hdma_usart1_rx.Init.MemDataAlignment = DMA_MDATAALIGN_BYTE;
 283              		.loc 1 112 5 is_stmt 1 view .LVU98
 112:Core/Src/usart.c ****     hdma_usart1_rx.Init.MemDataAlignment = DMA_MDATAALIGN_BYTE;
 284              		.loc 1 112 45 is_stmt 0 view .LVU99
 285 00b0 0361     		str	r3, [r0, #16]
 113:Core/Src/usart.c ****     hdma_usart1_rx.Init.Mode = DMA_NORMAL;
 286              		.loc 1 113 5 is_stmt 1 view .LVU100
 113:Core/Src/usart.c ****     hdma_usart1_rx.Init.Mode = DMA_NORMAL;
 287              		.loc 1 113 42 is_stmt 0 view .LVU101
 288 00b2 4361     		str	r3, [r0, #20]
 114:Core/Src/usart.c ****     hdma_usart1_rx.Init.Priority = DMA_PRIORITY_HIGH;
 289              		.loc 1 114 5 is_stmt 1 view .LVU102
 114:Core/Src/usart.c ****     hdma_usart1_rx.Init.Priority = DMA_PRIORITY_HIGH;
 290              		.loc 1 114 30 is_stmt 0 view .LVU103
 291 00b4 8361     		str	r3, [r0, #24]
 115:Core/Src/usart.c ****     if (HAL_DMA_Init(&hdma_usart1_rx) != HAL_OK)
 292              		.loc 1 115 5 is_stmt 1 view .LVU104
 115:Core/Src/usart.c ****     if (HAL_DMA_Init(&hdma_usart1_rx) != HAL_OK)
 293              		.loc 1 115 34 is_stmt 0 view .LVU105
 294 00b6 4FF40053 		mov	r3, #8192
 295 00ba C361     		str	r3, [r0, #28]
 116:Core/Src/usart.c ****     {
 296              		.loc 1 116 5 is_stmt 1 view .LVU106
 116:Core/Src/usart.c ****     {
 297              		.loc 1 116 9 is_stmt 0 view .LVU107
 298 00bc FFF7FEFF 		bl	HAL_DMA_Init
 299              	.LVL14:
 116:Core/Src/usart.c ****     {
 300              		.loc 1 116 8 discriminator 1 view .LVU108
 301 00c0 30B9     		cbnz	r0, .L14
 302              	.L10:
 121:Core/Src/usart.c **** 
 303              		.loc 1 121 5 is_stmt 1 view .LVU109
 121:Core/Src/usart.c **** 
 304              		.loc 1 121 5 view .LVU110
 305 00c2 0A4B     		ldr	r3, .L15+20
 306 00c4 E363     		str	r3, [r4, #60]
 121:Core/Src/usart.c **** 
 307              		.loc 1 121 5 view .LVU111
 308 00c6 5C62     		str	r4, [r3, #36]
ARM GAS  C:\Users\zhmis\AppData\Local\Temp\cc5NXYHP.s 			page 10


 121:Core/Src/usart.c **** 
 309              		.loc 1 121 5 discriminator 1 view .LVU112
 310              		.loc 1 127 1 is_stmt 0 view .LVU113
 311 00c8 A5E7     		b	.L7
 312              	.L13:
 102:Core/Src/usart.c ****     }
 313              		.loc 1 102 7 is_stmt 1 view .LVU114
 314 00ca FFF7FEFF 		bl	Error_Handler
 315              	.LVL15:
 316 00ce E4E7     		b	.L9
 317              	.L14:
 118:Core/Src/usart.c ****     }
 318              		.loc 1 118 7 view .LVU115
 319 00d0 FFF7FEFF 		bl	Error_Handler
 320              	.LVL16:
 321 00d4 F5E7     		b	.L10
 322              	.L16:
 323 00d6 00BF     		.align	2
 324              	.L15:
 325 00d8 00380140 		.word	1073821696
 326 00dc 000C0140 		.word	1073810432
 327 00e0 00000140 		.word	1073807360
 328 00e4 00000000 		.word	hdma_usart1_tx
 329 00e8 44000240 		.word	1073872964
 330 00ec 00000000 		.word	hdma_usart1_rx
 331 00f0 58000240 		.word	1073872984
 332              		.cfi_endproc
 333              	.LFE66:
 335              		.section	.text.HAL_UART_MspDeInit,"ax",%progbits
 336              		.align	1
 337              		.global	HAL_UART_MspDeInit
 338              		.syntax unified
 339              		.thumb
 340              		.thumb_func
 342              	HAL_UART_MspDeInit:
 343              	.LVL17:
 344              	.LFB67:
 128:Core/Src/usart.c **** 
 129:Core/Src/usart.c **** void HAL_UART_MspDeInit(UART_HandleTypeDef* uartHandle)
 130:Core/Src/usart.c **** {
 345              		.loc 1 130 1 view -0
 346              		.cfi_startproc
 347              		@ args = 0, pretend = 0, frame = 0
 348              		@ frame_needed = 0, uses_anonymous_args = 0
 131:Core/Src/usart.c **** 
 132:Core/Src/usart.c ****   if(uartHandle->Instance==USART1)
 349              		.loc 1 132 3 view .LVU117
 350              		.loc 1 132 16 is_stmt 0 view .LVU118
 351 0000 0268     		ldr	r2, [r0]
 352              		.loc 1 132 5 view .LVU119
 353 0002 0B4B     		ldr	r3, .L24
 354 0004 9A42     		cmp	r2, r3
 355 0006 00D0     		beq	.L23
 356 0008 7047     		bx	lr
 357              	.L23:
 130:Core/Src/usart.c **** 
 358              		.loc 1 130 1 view .LVU120
ARM GAS  C:\Users\zhmis\AppData\Local\Temp\cc5NXYHP.s 			page 11


 359 000a 10B5     		push	{r4, lr}
 360              		.cfi_def_cfa_offset 8
 361              		.cfi_offset 4, -8
 362              		.cfi_offset 14, -4
 363 000c 0446     		mov	r4, r0
 133:Core/Src/usart.c ****   {
 134:Core/Src/usart.c ****   /* USER CODE BEGIN USART1_MspDeInit 0 */
 135:Core/Src/usart.c **** 
 136:Core/Src/usart.c ****   /* USER CODE END USART1_MspDeInit 0 */
 137:Core/Src/usart.c ****     /* Peripheral clock disable */
 138:Core/Src/usart.c ****     __HAL_RCC_USART1_CLK_DISABLE();
 364              		.loc 1 138 5 is_stmt 1 view .LVU121
 365 000e 094A     		ldr	r2, .L24+4
 366 0010 9369     		ldr	r3, [r2, #24]
 367 0012 23F48043 		bic	r3, r3, #16384
 368 0016 9361     		str	r3, [r2, #24]
 139:Core/Src/usart.c **** 
 140:Core/Src/usart.c ****     /**USART1 GPIO Configuration
 141:Core/Src/usart.c ****     PB6     ------> USART1_TX
 142:Core/Src/usart.c ****     PB7     ------> USART1_RX
 143:Core/Src/usart.c ****     */
 144:Core/Src/usart.c ****     HAL_GPIO_DeInit(GPIOB, GPIO_PIN_6|GPIO_PIN_7);
 369              		.loc 1 144 5 view .LVU122
 370 0018 C021     		movs	r1, #192
 371 001a 0748     		ldr	r0, .L24+8
 372              	.LVL18:
 373              		.loc 1 144 5 is_stmt 0 view .LVU123
 374 001c FFF7FEFF 		bl	HAL_GPIO_DeInit
 375              	.LVL19:
 145:Core/Src/usart.c **** 
 146:Core/Src/usart.c ****     /* USART1 DMA DeInit */
 147:Core/Src/usart.c ****     HAL_DMA_DeInit(uartHandle->hdmatx);
 376              		.loc 1 147 5 is_stmt 1 view .LVU124
 377 0020 A06B     		ldr	r0, [r4, #56]
 378 0022 FFF7FEFF 		bl	HAL_DMA_DeInit
 379              	.LVL20:
 148:Core/Src/usart.c ****     HAL_DMA_DeInit(uartHandle->hdmarx);
 380              		.loc 1 148 5 view .LVU125
 381 0026 E06B     		ldr	r0, [r4, #60]
 382 0028 FFF7FEFF 		bl	HAL_DMA_DeInit
 383              	.LVL21:
 149:Core/Src/usart.c ****   /* USER CODE BEGIN USART1_MspDeInit 1 */
 150:Core/Src/usart.c **** 
 151:Core/Src/usart.c ****   /* USER CODE END USART1_MspDeInit 1 */
 152:Core/Src/usart.c ****   }
 153:Core/Src/usart.c **** }
 384              		.loc 1 153 1 is_stmt 0 view .LVU126
 385 002c 10BD     		pop	{r4, pc}
 386              	.LVL22:
 387              	.L25:
 388              		.loc 1 153 1 view .LVU127
 389 002e 00BF     		.align	2
 390              	.L24:
 391 0030 00380140 		.word	1073821696
 392 0034 00100240 		.word	1073876992
 393 0038 000C0140 		.word	1073810432
 394              		.cfi_endproc
ARM GAS  C:\Users\zhmis\AppData\Local\Temp\cc5NXYHP.s 			page 12


 395              	.LFE67:
 397              		.global	hdma_usart1_rx
 398              		.section	.bss.hdma_usart1_rx,"aw",%nobits
 399              		.align	2
 402              	hdma_usart1_rx:
 403 0000 00000000 		.space	68
 403      00000000 
 403      00000000 
 403      00000000 
 403      00000000 
 404              		.global	hdma_usart1_tx
 405              		.section	.bss.hdma_usart1_tx,"aw",%nobits
 406              		.align	2
 409              	hdma_usart1_tx:
 410 0000 00000000 		.space	68
 410      00000000 
 410      00000000 
 410      00000000 
 410      00000000 
 411              		.global	huart1
 412              		.section	.bss.huart1,"aw",%nobits
 413              		.align	2
 416              	huart1:
 417 0000 00000000 		.space	72
 417      00000000 
 417      00000000 
 417      00000000 
 417      00000000 
 418              		.text
 419              	.Letext0:
 420              		.file 2 "C:/Users/zhmis/AppData/Roaming/Code/User/globalStorage/bmd.stm32-for-vscode/@xpack-dev-to
 421              		.file 3 "C:/Users/zhmis/AppData/Roaming/Code/User/globalStorage/bmd.stm32-for-vscode/@xpack-dev-to
 422              		.file 4 "Drivers/CMSIS/Device/ST/STM32F1xx/Include/stm32f103xb.h"
 423              		.file 5 "Drivers/STM32F1xx_HAL_Driver/Inc/stm32f1xx_hal_def.h"
 424              		.file 6 "Drivers/STM32F1xx_HAL_Driver/Inc/stm32f1xx_hal_gpio.h"
 425              		.file 7 "Drivers/STM32F1xx_HAL_Driver/Inc/stm32f1xx_hal_dma.h"
 426              		.file 8 "Drivers/STM32F1xx_HAL_Driver/Inc/stm32f1xx_hal_uart.h"
 427              		.file 9 "Core/Inc/usart.h"
 428              		.file 10 "Core/Inc/main.h"
ARM GAS  C:\Users\zhmis\AppData\Local\Temp\cc5NXYHP.s 			page 13

