
build/ovcharka-firmware.elf:     file format elf32-littlearm

Sections:
Idx Name          Size      VMA       LMA       File off  Algn
  0 .isr_vector   0000010c  08000000  08000000  00001000  2**0
                  CONTENTS, ALLOC, LOAD, READONLY, DATA
  1 .text         00005140  0800010c  0800010c  0000110c  2**2
                  CONTENTS, ALLOC, LOAD, READONLY, CODE
  2 .rodata       00000040  0800524c  0800524c  0000624c  2**2
                  CONTENTS, ALLOC, LOAD, READONLY, DATA
  3 .init_array   00000004  0800528c  0800528c  0000628c  2**2
                  CONTENTS, ALLOC, LOAD, DATA
  4 .fini_array   00000004  08005290  08005290  00006290  2**2
                  CONTENTS, ALLOC, LOAD, DATA
  5 .data         000000ac  20000000  08005294  00007000  2**2
                  CONTENTS, ALLOC, LOAD, DATA
  6 .bss          00000644  200000ac  08005340  000070ac  2**2
                  ALLOC
  7 ._user_heap_stack 00000600  200006f0  08005340  000076f0  2**0
                  ALLOC
  8 .ARM.attributes 00000029  00000000  00000000  000070ac  2**0
                  CONTENTS, READONLY
  9 .comment      00000039  00000000  00000000  000070d5  2**0
                  CONTENTS, READONLY
 10 .debug_info   0001f86e  00000000  00000000  0000710e  2**0
                  CONTENTS, READONLY, DEBUGGING, OCTETS
 11 .debug_abbrev 00004cce  00000000  00000000  0002697c  2**0
                  CONTENTS, READONLY, DEBUGGING, OCTETS
 12 .debug_loclists 0000c59f  00000000  00000000  0002b64a  2**0
                  CONTENTS, READONLY, DEBUGGING, OCTETS
 13 .debug_aranges 00001420  00000000  00000000  00037bf0  2**3
                  CONTENTS, READONLY, DEBUGGING, OCTETS
 14 .debug_rnglists 00000f13  00000000  00000000  00039010  2**0
                  CONTENTS, READONLY, DEBUGGING, OCTETS
 15 .debug_line   000169a9  00000000  00000000  00039f23  2**0
                  CONTENTS, READONLY, DEBUGGING, OCTETS
 16 .debug_str    00005d44  00000000  00000000  000508cc  2**0
                  CONTENTS, READONLY, DEBUGGING, OCTETS
 17 .debug_frame  000033a8  00000000  00000000  00056610  2**2
                  CONTENTS, READONLY, DEBUGGING, OCTETS
 18 .debug_line_str 0000016d  00000000  00000000  000599b8  2**0
                  CONTENTS, READONLY, DEBUGGING, OCTETS

Disassembly of section .text:

0800010c <__aeabi_fmul>:
 800010c:	f04f 0cff 	mov.w	ip, #255	@ 0xff
 8000110:	ea1c 52d0 	ands.w	r2, ip, r0, lsr #23
 8000114:	bf1e      	ittt	ne
 8000116:	ea1c 53d1 	andsne.w	r3, ip, r1, lsr #23
 800011a:	ea92 0f0c 	teqne	r2, ip
 800011e:	ea93 0f0c 	teqne	r3, ip
 8000122:	d06f      	beq.n	8000204 <__aeabi_fmul+0xf8>
 8000124:	441a      	add	r2, r3
 8000126:	ea80 0c01 	eor.w	ip, r0, r1
 800012a:	0240      	lsls	r0, r0, #9
 800012c:	bf18      	it	ne
 800012e:	ea5f 2141 	movsne.w	r1, r1, lsl #9
 8000132:	d01e      	beq.n	8000172 <__aeabi_fmul+0x66>
 8000134:	f04f 6300 	mov.w	r3, #134217728	@ 0x8000000
 8000138:	ea43 1050 	orr.w	r0, r3, r0, lsr #5
 800013c:	ea43 1151 	orr.w	r1, r3, r1, lsr #5
 8000140:	fba0 3101 	umull	r3, r1, r0, r1
 8000144:	f00c 4000 	and.w	r0, ip, #2147483648	@ 0x80000000
 8000148:	f5b1 0f00 	cmp.w	r1, #8388608	@ 0x800000
 800014c:	bf3e      	ittt	cc
 800014e:	0049      	lslcc	r1, r1, #1
 8000150:	ea41 71d3 	orrcc.w	r1, r1, r3, lsr #31
 8000154:	005b      	lslcc	r3, r3, #1
 8000156:	ea40 0001 	orr.w	r0, r0, r1
 800015a:	f162 027f 	sbc.w	r2, r2, #127	@ 0x7f
 800015e:	2afd      	cmp	r2, #253	@ 0xfd
 8000160:	d81d      	bhi.n	800019e <__aeabi_fmul+0x92>
 8000162:	f1b3 4f00 	cmp.w	r3, #2147483648	@ 0x80000000
 8000166:	eb40 50c2 	adc.w	r0, r0, r2, lsl #23
 800016a:	bf08      	it	eq
 800016c:	f020 0001 	biceq.w	r0, r0, #1
 8000170:	4770      	bx	lr
 8000172:	f090 0f00 	teq	r0, #0
 8000176:	f00c 4c00 	and.w	ip, ip, #2147483648	@ 0x80000000
 800017a:	bf08      	it	eq
 800017c:	0249      	lsleq	r1, r1, #9
 800017e:	ea4c 2050 	orr.w	r0, ip, r0, lsr #9
 8000182:	ea40 2051 	orr.w	r0, r0, r1, lsr #9
 8000186:	3a7f      	subs	r2, #127	@ 0x7f
 8000188:	bfc2      	ittt	gt
 800018a:	f1d2 03ff 	rsbsgt	r3, r2, #255	@ 0xff
 800018e:	ea40 50c2 	orrgt.w	r0, r0, r2, lsl #23
 8000192:	4770      	bxgt	lr
 8000194:	f440 0000 	orr.w	r0, r0, #8388608	@ 0x800000
 8000198:	f04f 0300 	mov.w	r3, #0
 800019c:	3a01      	subs	r2, #1
 800019e:	dc5d      	bgt.n	800025c <__aeabi_fmul+0x150>
 80001a0:	f112 0f19 	cmn.w	r2, #25
 80001a4:	bfdc      	itt	le
 80001a6:	f000 4000 	andle.w	r0, r0, #2147483648	@ 0x80000000
 80001aa:	4770      	bxle	lr
 80001ac:	f1c2 0200 	rsb	r2, r2, #0
 80001b0:	0041      	lsls	r1, r0, #1
 80001b2:	fa21 f102 	lsr.w	r1, r1, r2
 80001b6:	f1c2 0220 	rsb	r2, r2, #32
 80001ba:	fa00 fc02 	lsl.w	ip, r0, r2
 80001be:	ea5f 0031 	movs.w	r0, r1, rrx
 80001c2:	f140 0000 	adc.w	r0, r0, #0
 80001c6:	ea53 034c 	orrs.w	r3, r3, ip, lsl #1
 80001ca:	bf08      	it	eq
 80001cc:	ea20 70dc 	biceq.w	r0, r0, ip, lsr #31
 80001d0:	4770      	bx	lr
 80001d2:	f092 0f00 	teq	r2, #0
 80001d6:	f000 4c00 	and.w	ip, r0, #2147483648	@ 0x80000000
 80001da:	bf02      	ittt	eq
 80001dc:	0040      	lsleq	r0, r0, #1
 80001de:	f410 0f00 	tsteq.w	r0, #8388608	@ 0x800000
 80001e2:	3a01      	subeq	r2, #1
 80001e4:	d0f9      	beq.n	80001da <__aeabi_fmul+0xce>
 80001e6:	ea40 000c 	orr.w	r0, r0, ip
 80001ea:	f093 0f00 	teq	r3, #0
 80001ee:	f001 4c00 	and.w	ip, r1, #2147483648	@ 0x80000000
 80001f2:	bf02      	ittt	eq
 80001f4:	0049      	lsleq	r1, r1, #1
 80001f6:	f411 0f00 	tsteq.w	r1, #8388608	@ 0x800000
 80001fa:	3b01      	subeq	r3, #1
 80001fc:	d0f9      	beq.n	80001f2 <__aeabi_fmul+0xe6>
 80001fe:	ea41 010c 	orr.w	r1, r1, ip
 8000202:	e78f      	b.n	8000124 <__aeabi_fmul+0x18>
 8000204:	ea0c 53d1 	and.w	r3, ip, r1, lsr #23
 8000208:	ea92 0f0c 	teq	r2, ip
 800020c:	bf18      	it	ne
 800020e:	ea93 0f0c 	teqne	r3, ip
 8000212:	d00a      	beq.n	800022a <__aeabi_fmul+0x11e>
 8000214:	f030 4c00 	bics.w	ip, r0, #2147483648	@ 0x80000000
 8000218:	bf18      	it	ne
 800021a:	f031 4c00 	bicsne.w	ip, r1, #2147483648	@ 0x80000000
 800021e:	d1d8      	bne.n	80001d2 <__aeabi_fmul+0xc6>
 8000220:	ea80 0001 	eor.w	r0, r0, r1
 8000224:	f000 4000 	and.w	r0, r0, #2147483648	@ 0x80000000
 8000228:	4770      	bx	lr
 800022a:	f090 0f00 	teq	r0, #0
 800022e:	bf17      	itett	ne
 8000230:	f090 4f00 	teqne	r0, #2147483648	@ 0x80000000
 8000234:	4608      	moveq	r0, r1
 8000236:	f091 0f00 	teqne	r1, #0
 800023a:	f091 4f00 	teqne	r1, #2147483648	@ 0x80000000
 800023e:	d014      	beq.n	800026a <__aeabi_fmul+0x15e>
 8000240:	ea92 0f0c 	teq	r2, ip
 8000244:	d101      	bne.n	800024a <__aeabi_fmul+0x13e>
 8000246:	0242      	lsls	r2, r0, #9
 8000248:	d10f      	bne.n	800026a <__aeabi_fmul+0x15e>
 800024a:	ea93 0f0c 	teq	r3, ip
 800024e:	d103      	bne.n	8000258 <__aeabi_fmul+0x14c>
 8000250:	024b      	lsls	r3, r1, #9
 8000252:	bf18      	it	ne
 8000254:	4608      	movne	r0, r1
 8000256:	d108      	bne.n	800026a <__aeabi_fmul+0x15e>
 8000258:	ea80 0001 	eor.w	r0, r0, r1
 800025c:	f000 4000 	and.w	r0, r0, #2147483648	@ 0x80000000
 8000260:	f040 40fe 	orr.w	r0, r0, #2130706432	@ 0x7f000000
 8000264:	f440 0000 	orr.w	r0, r0, #8388608	@ 0x800000
 8000268:	4770      	bx	lr
 800026a:	f040 40fe 	orr.w	r0, r0, #2130706432	@ 0x7f000000
 800026e:	f440 0040 	orr.w	r0, r0, #12582912	@ 0xc00000
 8000272:	4770      	bx	lr

08000274 <__aeabi_fdiv>:
 8000274:	f04f 0cff 	mov.w	ip, #255	@ 0xff
 8000278:	ea1c 52d0 	ands.w	r2, ip, r0, lsr #23
 800027c:	bf1e      	ittt	ne
 800027e:	ea1c 53d1 	andsne.w	r3, ip, r1, lsr #23
 8000282:	ea92 0f0c 	teqne	r2, ip
 8000286:	ea93 0f0c 	teqne	r3, ip
 800028a:	d069      	beq.n	8000360 <__aeabi_fdiv+0xec>
 800028c:	eba2 0203 	sub.w	r2, r2, r3
 8000290:	ea80 0c01 	eor.w	ip, r0, r1
 8000294:	0249      	lsls	r1, r1, #9
 8000296:	ea4f 2040 	mov.w	r0, r0, lsl #9
 800029a:	d037      	beq.n	800030c <__aeabi_fdiv+0x98>
 800029c:	f04f 5380 	mov.w	r3, #268435456	@ 0x10000000
 80002a0:	ea43 1111 	orr.w	r1, r3, r1, lsr #4
 80002a4:	ea43 1310 	orr.w	r3, r3, r0, lsr #4
 80002a8:	f00c 4000 	and.w	r0, ip, #2147483648	@ 0x80000000
 80002ac:	428b      	cmp	r3, r1
 80002ae:	bf38      	it	cc
 80002b0:	005b      	lslcc	r3, r3, #1
 80002b2:	f142 027d 	adc.w	r2, r2, #125	@ 0x7d
 80002b6:	f44f 0c00 	mov.w	ip, #8388608	@ 0x800000
 80002ba:	428b      	cmp	r3, r1
 80002bc:	bf24      	itt	cs
 80002be:	1a5b      	subcs	r3, r3, r1
 80002c0:	ea40 000c 	orrcs.w	r0, r0, ip
 80002c4:	ebb3 0f51 	cmp.w	r3, r1, lsr #1
 80002c8:	bf24      	itt	cs
 80002ca:	eba3 0351 	subcs.w	r3, r3, r1, lsr #1
 80002ce:	ea40 005c 	orrcs.w	r0, r0, ip, lsr #1
 80002d2:	ebb3 0f91 	cmp.w	r3, r1, lsr #2
 80002d6:	bf24      	itt	cs
 80002d8:	eba3 0391 	subcs.w	r3, r3, r1, lsr #2
 80002dc:	ea40 009c 	orrcs.w	r0, r0, ip, lsr #2
 80002e0:	ebb3 0fd1 	cmp.w	r3, r1, lsr #3
 80002e4:	bf24      	itt	cs
 80002e6:	eba3 03d1 	subcs.w	r3, r3, r1, lsr #3
 80002ea:	ea40 00dc 	orrcs.w	r0, r0, ip, lsr #3
 80002ee:	011b      	lsls	r3, r3, #4
 80002f0:	bf18      	it	ne
 80002f2:	ea5f 1c1c 	movsne.w	ip, ip, lsr #4
 80002f6:	d1e0      	bne.n	80002ba <__aeabi_fdiv+0x46>
 80002f8:	2afd      	cmp	r2, #253	@ 0xfd
 80002fa:	f63f af50 	bhi.w	800019e <__aeabi_fmul+0x92>
 80002fe:	428b      	cmp	r3, r1
 8000300:	eb40 50c2 	adc.w	r0, r0, r2, lsl #23
 8000304:	bf08      	it	eq
 8000306:	f020 0001 	biceq.w	r0, r0, #1
 800030a:	4770      	bx	lr
 800030c:	f00c 4c00 	and.w	ip, ip, #2147483648	@ 0x80000000
 8000310:	ea4c 2050 	orr.w	r0, ip, r0, lsr #9
 8000314:	327f      	adds	r2, #127	@ 0x7f
 8000316:	bfc2      	ittt	gt
 8000318:	f1d2 03ff 	rsbsgt	r3, r2, #255	@ 0xff
 800031c:	ea40 50c2 	orrgt.w	r0, r0, r2, lsl #23
 8000320:	4770      	bxgt	lr
 8000322:	f440 0000 	orr.w	r0, r0, #8388608	@ 0x800000
 8000326:	f04f 0300 	mov.w	r3, #0
 800032a:	3a01      	subs	r2, #1
 800032c:	e737      	b.n	800019e <__aeabi_fmul+0x92>
 800032e:	f092 0f00 	teq	r2, #0
 8000332:	f000 4c00 	and.w	ip, r0, #2147483648	@ 0x80000000
 8000336:	bf02      	ittt	eq
 8000338:	0040      	lsleq	r0, r0, #1
 800033a:	f410 0f00 	tsteq.w	r0, #8388608	@ 0x800000
 800033e:	3a01      	subeq	r2, #1
 8000340:	d0f9      	beq.n	8000336 <__aeabi_fdiv+0xc2>
 8000342:	ea40 000c 	orr.w	r0, r0, ip
 8000346:	f093 0f00 	teq	r3, #0
 800034a:	f001 4c00 	and.w	ip, r1, #2147483648	@ 0x80000000
 800034e:	bf02      	ittt	eq
 8000350:	0049      	lsleq	r1, r1, #1
 8000352:	f411 0f00 	tsteq.w	r1, #8388608	@ 0x800000
 8000356:	3b01      	subeq	r3, #1
 8000358:	d0f9      	beq.n	800034e <__aeabi_fdiv+0xda>
 800035a:	ea41 010c 	orr.w	r1, r1, ip
 800035e:	e795      	b.n	800028c <__aeabi_fdiv+0x18>
 8000360:	ea0c 53d1 	and.w	r3, ip, r1, lsr #23
 8000364:	ea92 0f0c 	teq	r2, ip
 8000368:	d108      	bne.n	800037c <__aeabi_fdiv+0x108>
 800036a:	0242      	lsls	r2, r0, #9
 800036c:	f47f af7d 	bne.w	800026a <__aeabi_fmul+0x15e>
 8000370:	ea93 0f0c 	teq	r3, ip
 8000374:	f47f af70 	bne.w	8000258 <__aeabi_fmul+0x14c>
 8000378:	4608      	mov	r0, r1
 800037a:	e776      	b.n	800026a <__aeabi_fmul+0x15e>
 800037c:	ea93 0f0c 	teq	r3, ip
 8000380:	d104      	bne.n	800038c <__aeabi_fdiv+0x118>
 8000382:	024b      	lsls	r3, r1, #9
 8000384:	f43f af4c 	beq.w	8000220 <__aeabi_fmul+0x114>
 8000388:	4608      	mov	r0, r1
 800038a:	e76e      	b.n	800026a <__aeabi_fmul+0x15e>
 800038c:	f030 4c00 	bics.w	ip, r0, #2147483648	@ 0x80000000
 8000390:	bf18      	it	ne
 8000392:	f031 4c00 	bicsne.w	ip, r1, #2147483648	@ 0x80000000
 8000396:	d1ca      	bne.n	800032e <__aeabi_fdiv+0xba>
 8000398:	f030 4200 	bics.w	r2, r0, #2147483648	@ 0x80000000
 800039c:	f47f af5c 	bne.w	8000258 <__aeabi_fmul+0x14c>
 80003a0:	f031 4300 	bics.w	r3, r1, #2147483648	@ 0x80000000
 80003a4:	f47f af3c 	bne.w	8000220 <__aeabi_fmul+0x114>
 80003a8:	e75f      	b.n	800026a <__aeabi_fmul+0x15e>
 80003aa:	bf00      	nop

080003ac <__aeabi_f2iz>:
 80003ac:	ea4f 0240 	mov.w	r2, r0, lsl #1
 80003b0:	f1b2 4ffe 	cmp.w	r2, #2130706432	@ 0x7f000000
 80003b4:	d30f      	bcc.n	80003d6 <__aeabi_f2iz+0x2a>
 80003b6:	f04f 039e 	mov.w	r3, #158	@ 0x9e
 80003ba:	ebb3 6212 	subs.w	r2, r3, r2, lsr #24
 80003be:	d90d      	bls.n	80003dc <__aeabi_f2iz+0x30>
 80003c0:	ea4f 2300 	mov.w	r3, r0, lsl #8
 80003c4:	f043 4300 	orr.w	r3, r3, #2147483648	@ 0x80000000
 80003c8:	f010 4f00 	tst.w	r0, #2147483648	@ 0x80000000
 80003cc:	fa23 f002 	lsr.w	r0, r3, r2
 80003d0:	bf18      	it	ne
 80003d2:	4240      	negne	r0, r0
 80003d4:	4770      	bx	lr
 80003d6:	f04f 0000 	mov.w	r0, #0
 80003da:	4770      	bx	lr
 80003dc:	f112 0f61 	cmn.w	r2, #97	@ 0x61
 80003e0:	d101      	bne.n	80003e6 <__aeabi_f2iz+0x3a>
 80003e2:	0242      	lsls	r2, r0, #9
 80003e4:	d105      	bne.n	80003f2 <__aeabi_f2iz+0x46>
 80003e6:	f010 4000 	ands.w	r0, r0, #2147483648	@ 0x80000000
 80003ea:	bf08      	it	eq
 80003ec:	f06f 4000 	mvneq.w	r0, #2147483648	@ 0x80000000
 80003f0:	4770      	bx	lr
 80003f2:	f04f 0000 	mov.w	r0, #0
 80003f6:	4770      	bx	lr

080003f8 <__do_global_dtors_aux>:
 80003f8:	b510      	push	{r4, lr}
 80003fa:	4c05      	ldr	r4, [pc, #20]	@ (8000410 <__do_global_dtors_aux+0x18>)
 80003fc:	7823      	ldrb	r3, [r4, #0]
 80003fe:	b933      	cbnz	r3, 800040e <__do_global_dtors_aux+0x16>
 8000400:	4b04      	ldr	r3, [pc, #16]	@ (8000414 <__do_global_dtors_aux+0x1c>)
 8000402:	b113      	cbz	r3, 800040a <__do_global_dtors_aux+0x12>
 8000404:	4804      	ldr	r0, [pc, #16]	@ (8000418 <__do_global_dtors_aux+0x20>)
 8000406:	f3af 8000 	nop.w
 800040a:	2301      	movs	r3, #1
 800040c:	7023      	strb	r3, [r4, #0]
 800040e:	bd10      	pop	{r4, pc}
 8000410:	200000ac 	.word	0x200000ac
 8000414:	00000000 	.word	0x00000000
 8000418:	08005234 	.word	0x08005234

0800041c <frame_dummy>:
 800041c:	b508      	push	{r3, lr}
 800041e:	4b03      	ldr	r3, [pc, #12]	@ (800042c <frame_dummy+0x10>)
 8000420:	b11b      	cbz	r3, 800042a <frame_dummy+0xe>
 8000422:	4903      	ldr	r1, [pc, #12]	@ (8000430 <frame_dummy+0x14>)
 8000424:	4803      	ldr	r0, [pc, #12]	@ (8000434 <frame_dummy+0x18>)
 8000426:	f3af 8000 	nop.w
 800042a:	bd08      	pop	{r3, pc}
 800042c:	00000000 	.word	0x00000000
 8000430:	200000b0 	.word	0x200000b0
 8000434:	08005234 	.word	0x08005234

08000438 <MX_ADC1_Init>:
ADC_HandleTypeDef hadc1;
DMA_HandleTypeDef hdma_adc1;

/* ADC1 init function */
void MX_ADC1_Init(void)
{
 8000438:	b500      	push	{lr}
 800043a:	b085      	sub	sp, #20

  /* USER CODE BEGIN ADC1_Init 0 */

  /* USER CODE END ADC1_Init 0 */

  ADC_ChannelConfTypeDef sConfig = {0};
 800043c:	2300      	movs	r3, #0
 800043e:	9301      	str	r3, [sp, #4]
 8000440:	9302      	str	r3, [sp, #8]
 8000442:	9303      	str	r3, [sp, #12]

  /* USER CODE END ADC1_Init 1 */

  /** Common config
  */
  hadc1.Instance = ADC1;
 8000444:	4817      	ldr	r0, [pc, #92]	@ (80004a4 <MX_ADC1_Init+0x6c>)
 8000446:	4a18      	ldr	r2, [pc, #96]	@ (80004a8 <MX_ADC1_Init+0x70>)
 8000448:	6002      	str	r2, [r0, #0]
  hadc1.Init.ScanConvMode = ADC_SCAN_ENABLE;
 800044a:	f44f 7280 	mov.w	r2, #256	@ 0x100
 800044e:	6082      	str	r2, [r0, #8]
  hadc1.Init.ContinuousConvMode = DISABLE;
 8000450:	7303      	strb	r3, [r0, #12]
  hadc1.Init.DiscontinuousConvMode = DISABLE;
 8000452:	7503      	strb	r3, [r0, #20]
  hadc1.Init.ExternalTrigConv = ADC_EXTERNALTRIGCONV_T3_TRGO;
 8000454:	f44f 2200 	mov.w	r2, #524288	@ 0x80000
 8000458:	61c2      	str	r2, [r0, #28]
  hadc1.Init.DataAlign = ADC_DATAALIGN_RIGHT;
 800045a:	6043      	str	r3, [r0, #4]
  hadc1.Init.NbrOfConversion = 2;
 800045c:	2302      	movs	r3, #2
 800045e:	6103      	str	r3, [r0, #16]
  if (HAL_ADC_Init(&hadc1) != HAL_OK)
 8000460:	f002 f9a4 	bl	80027ac <HAL_ADC_Init>
 8000464:	b9a8      	cbnz	r0, 8000492 <MX_ADC1_Init+0x5a>
    Error_Handler();
  }

  /** Configure Regular Channel
  */
  sConfig.Channel = ADC_CHANNEL_3;
 8000466:	2303      	movs	r3, #3
 8000468:	9301      	str	r3, [sp, #4]
  sConfig.Rank = ADC_REGULAR_RANK_1;
 800046a:	2301      	movs	r3, #1
 800046c:	9302      	str	r3, [sp, #8]
  sConfig.SamplingTime = ADC_SAMPLETIME_239CYCLES_5;
 800046e:	2307      	movs	r3, #7
 8000470:	9303      	str	r3, [sp, #12]
  if (HAL_ADC_ConfigChannel(&hadc1, &sConfig) != HAL_OK)
 8000472:	a901      	add	r1, sp, #4
 8000474:	480b      	ldr	r0, [pc, #44]	@ (80004a4 <MX_ADC1_Init+0x6c>)
 8000476:	f001 fff1 	bl	800245c <HAL_ADC_ConfigChannel>
 800047a:	b968      	cbnz	r0, 8000498 <MX_ADC1_Init+0x60>
    Error_Handler();
  }

  /** Configure Regular Channel
  */
  sConfig.Channel = ADC_CHANNEL_2;
 800047c:	2302      	movs	r3, #2
 800047e:	9301      	str	r3, [sp, #4]
  sConfig.Rank = ADC_REGULAR_RANK_2;
 8000480:	9302      	str	r3, [sp, #8]
  if (HAL_ADC_ConfigChannel(&hadc1, &sConfig) != HAL_OK)
 8000482:	a901      	add	r1, sp, #4
 8000484:	4807      	ldr	r0, [pc, #28]	@ (80004a4 <MX_ADC1_Init+0x6c>)
 8000486:	f001 ffe9 	bl	800245c <HAL_ADC_ConfigChannel>
 800048a:	b940      	cbnz	r0, 800049e <MX_ADC1_Init+0x66>
  }
  /* USER CODE BEGIN ADC1_Init 2 */

  /* USER CODE END ADC1_Init 2 */

}
 800048c:	b005      	add	sp, #20
 800048e:	f85d fb04 	ldr.w	pc, [sp], #4
    Error_Handler();
 8000492:	f000 fd31 	bl	8000ef8 <Error_Handler>
 8000496:	e7e6      	b.n	8000466 <MX_ADC1_Init+0x2e>
    Error_Handler();
 8000498:	f000 fd2e 	bl	8000ef8 <Error_Handler>
 800049c:	e7ee      	b.n	800047c <MX_ADC1_Init+0x44>
    Error_Handler();
 800049e:	f000 fd2b 	bl	8000ef8 <Error_Handler>
}
 80004a2:	e7f3      	b.n	800048c <MX_ADC1_Init+0x54>
 80004a4:	2000010c 	.word	0x2000010c
 80004a8:	40012400 	.word	0x40012400

080004ac <HAL_ADC_MspInit>:

void HAL_ADC_MspInit(ADC_HandleTypeDef* adcHandle)
{
 80004ac:	b510      	push	{r4, lr}
 80004ae:	b086      	sub	sp, #24

  GPIO_InitTypeDef GPIO_InitStruct = {0};
 80004b0:	2300      	movs	r3, #0
 80004b2:	9302      	str	r3, [sp, #8]
 80004b4:	9303      	str	r3, [sp, #12]
 80004b6:	9304      	str	r3, [sp, #16]
 80004b8:	9305      	str	r3, [sp, #20]
  if(adcHandle->Instance==ADC1)
 80004ba:	6802      	ldr	r2, [r0, #0]
 80004bc:	4b1f      	ldr	r3, [pc, #124]	@ (800053c <HAL_ADC_MspInit+0x90>)
 80004be:	429a      	cmp	r2, r3
 80004c0:	d001      	beq.n	80004c6 <HAL_ADC_MspInit+0x1a>

  /* USER CODE BEGIN ADC1_MspInit 1 */

  /* USER CODE END ADC1_MspInit 1 */
  }
}
 80004c2:	b006      	add	sp, #24
 80004c4:	bd10      	pop	{r4, pc}
 80004c6:	4604      	mov	r4, r0
    __HAL_RCC_ADC1_CLK_ENABLE();
 80004c8:	f503 436c 	add.w	r3, r3, #60416	@ 0xec00
 80004cc:	699a      	ldr	r2, [r3, #24]
 80004ce:	f442 7200 	orr.w	r2, r2, #512	@ 0x200
 80004d2:	619a      	str	r2, [r3, #24]
 80004d4:	699a      	ldr	r2, [r3, #24]
 80004d6:	f402 7200 	and.w	r2, r2, #512	@ 0x200
 80004da:	9200      	str	r2, [sp, #0]
 80004dc:	9a00      	ldr	r2, [sp, #0]
    __HAL_RCC_GPIOA_CLK_ENABLE();
 80004de:	699a      	ldr	r2, [r3, #24]
 80004e0:	f042 0204 	orr.w	r2, r2, #4
 80004e4:	619a      	str	r2, [r3, #24]
 80004e6:	699b      	ldr	r3, [r3, #24]
 80004e8:	f003 0304 	and.w	r3, r3, #4
 80004ec:	9301      	str	r3, [sp, #4]
 80004ee:	9b01      	ldr	r3, [sp, #4]
    GPIO_InitStruct.Pin = CS2_Pin|CS1_Pin;
 80004f0:	230c      	movs	r3, #12
 80004f2:	9302      	str	r3, [sp, #8]
    GPIO_InitStruct.Mode = GPIO_MODE_ANALOG;
 80004f4:	2303      	movs	r3, #3
 80004f6:	9303      	str	r3, [sp, #12]
    HAL_GPIO_Init(GPIOA, &GPIO_InitStruct);
 80004f8:	a902      	add	r1, sp, #8
 80004fa:	4811      	ldr	r0, [pc, #68]	@ (8000540 <HAL_ADC_MspInit+0x94>)
 80004fc:	f002 fc68 	bl	8002dd0 <HAL_GPIO_Init>
    hdma_adc1.Instance = DMA1_Channel1;
 8000500:	4810      	ldr	r0, [pc, #64]	@ (8000544 <HAL_ADC_MspInit+0x98>)
 8000502:	4b11      	ldr	r3, [pc, #68]	@ (8000548 <HAL_ADC_MspInit+0x9c>)
 8000504:	6003      	str	r3, [r0, #0]
    hdma_adc1.Init.Direction = DMA_PERIPH_TO_MEMORY;
 8000506:	2300      	movs	r3, #0
 8000508:	6043      	str	r3, [r0, #4]
    hdma_adc1.Init.PeriphInc = DMA_PINC_DISABLE;
 800050a:	6083      	str	r3, [r0, #8]
    hdma_adc1.Init.MemInc = DMA_MINC_ENABLE;
 800050c:	2380      	movs	r3, #128	@ 0x80
 800050e:	60c3      	str	r3, [r0, #12]
    hdma_adc1.Init.PeriphDataAlignment = DMA_PDATAALIGN_HALFWORD;
 8000510:	f44f 7380 	mov.w	r3, #256	@ 0x100
 8000514:	6103      	str	r3, [r0, #16]
    hdma_adc1.Init.MemDataAlignment = DMA_MDATAALIGN_HALFWORD;
 8000516:	f44f 6380 	mov.w	r3, #1024	@ 0x400
 800051a:	6143      	str	r3, [r0, #20]
    hdma_adc1.Init.Mode = DMA_CIRCULAR;
 800051c:	2320      	movs	r3, #32
 800051e:	6183      	str	r3, [r0, #24]
    hdma_adc1.Init.Priority = DMA_PRIORITY_MEDIUM;
 8000520:	f44f 5380 	mov.w	r3, #4096	@ 0x1000
 8000524:	61c3      	str	r3, [r0, #28]
    if (HAL_DMA_Init(&hdma_adc1) != HAL_OK)
 8000526:	f002 fad3 	bl	8002ad0 <HAL_DMA_Init>
 800052a:	b918      	cbnz	r0, 8000534 <HAL_ADC_MspInit+0x88>
    __HAL_LINKDMA(adcHandle,DMA_Handle,hdma_adc1);
 800052c:	4b05      	ldr	r3, [pc, #20]	@ (8000544 <HAL_ADC_MspInit+0x98>)
 800052e:	6223      	str	r3, [r4, #32]
 8000530:	625c      	str	r4, [r3, #36]	@ 0x24
}
 8000532:	e7c6      	b.n	80004c2 <HAL_ADC_MspInit+0x16>
      Error_Handler();
 8000534:	f000 fce0 	bl	8000ef8 <Error_Handler>
 8000538:	e7f8      	b.n	800052c <HAL_ADC_MspInit+0x80>
 800053a:	bf00      	nop
 800053c:	40012400 	.word	0x40012400
 8000540:	40010800 	.word	0x40010800
 8000544:	200000c8 	.word	0x200000c8
 8000548:	40020008 	.word	0x40020008

0800054c <adc_cur_init>:
int16_t CS_ADC_M2_Offset = M2_ADC_OFFSET;
float CS_ADC_M1_Gain = 0.00107;
float CS_ADC_M2_Gain = 0.00107;

void adc_cur_init()
{
 800054c:	b5f8      	push	{r3, r4, r5, r6, r7, lr}
    // Starting DMA for capturing current measures from ADC
    HAL_ADC_Start_DMA(&hadc1, (uint32_t *)adc, 2);
 800054e:	4c0e      	ldr	r4, [pc, #56]	@ (8000588 <adc_cur_init+0x3c>)
 8000550:	2202      	movs	r2, #2
 8000552:	4621      	mov	r1, r4
 8000554:	480d      	ldr	r0, [pc, #52]	@ (800058c <adc_cur_init+0x40>)
 8000556:	f002 f865 	bl	8002624 <HAL_ADC_Start_DMA>

    // Initia;lization of filters
    initEMA_iq18(&filter1, 0.005, _IQ18(CS_ADC_M1_Offset));
 800055a:	4e0d      	ldr	r6, [pc, #52]	@ (8000590 <adc_cur_init+0x44>)
 800055c:	f9b6 2000 	ldrsh.w	r2, [r6]
 8000560:	4f0c      	ldr	r7, [pc, #48]	@ (8000594 <adc_cur_init+0x48>)
 8000562:	0492      	lsls	r2, r2, #18
 8000564:	4639      	mov	r1, r7
 8000566:	480c      	ldr	r0, [pc, #48]	@ (8000598 <adc_cur_init+0x4c>)
 8000568:	f000 f9b5 	bl	80008d6 <initEMA_iq18>
    initEMA_iq18(&filter2, 0.005, _IQ18(CS_ADC_M2_Offset));
 800056c:	4d0b      	ldr	r5, [pc, #44]	@ (800059c <adc_cur_init+0x50>)
 800056e:	f9b5 2000 	ldrsh.w	r2, [r5]
 8000572:	0492      	lsls	r2, r2, #18
 8000574:	4639      	mov	r1, r7
 8000576:	480a      	ldr	r0, [pc, #40]	@ (80005a0 <adc_cur_init+0x54>)
 8000578:	f000 f9ad 	bl	80008d6 <initEMA_iq18>
    adc[0] = CS_ADC_M1_Offset;
 800057c:	8833      	ldrh	r3, [r6, #0]
 800057e:	8023      	strh	r3, [r4, #0]
    adc[1] = CS_ADC_M2_Offset;
 8000580:	882b      	ldrh	r3, [r5, #0]
 8000582:	8063      	strh	r3, [r4, #2]
}
 8000584:	bdf8      	pop	{r3, r4, r5, r6, r7, pc}
 8000586:	bf00      	nop
 8000588:	20000154 	.word	0x20000154
 800058c:	2000010c 	.word	0x2000010c
 8000590:	2000000a 	.word	0x2000000a
 8000594:	3ba3d70a 	.word	0x3ba3d70a
 8000598:	20000144 	.word	0x20000144
 800059c:	20000008 	.word	0x20000008
 80005a0:	2000013c 	.word	0x2000013c

080005a4 <adc_callback_handler>:

void adc_callback_handler()
{
 80005a4:	b5f8      	push	{r3, r4, r5, r6, r7, lr}
    _iq18 adc0_filtered = updateEMA_iq18(&filter1, _IQ18(adc[0]));
 80005a6:	4f18      	ldr	r7, [pc, #96]	@ (8000608 <adc_callback_handler+0x64>)
 80005a8:	8839      	ldrh	r1, [r7, #0]
 80005aa:	0489      	lsls	r1, r1, #18
 80005ac:	4817      	ldr	r0, [pc, #92]	@ (800060c <adc_callback_handler+0x68>)
 80005ae:	f000 f99f 	bl	80008f0 <updateEMA_iq18>
 80005b2:	4605      	mov	r5, r0
    current[0] = _IQ18mpy((adc0_filtered - _IQ18(CS_ADC_M1_Offset)), _IQ18(CS_ADC_M1_Gain));
 80005b4:	4b16      	ldr	r3, [pc, #88]	@ (8000610 <adc_callback_handler+0x6c>)
 80005b6:	f9b3 4000 	ldrsh.w	r4, [r3]
 80005ba:	04a4      	lsls	r4, r4, #18
 80005bc:	f04f 4191 	mov.w	r1, #1216348160	@ 0x48800000
 80005c0:	4b14      	ldr	r3, [pc, #80]	@ (8000614 <adc_callback_handler+0x70>)
 80005c2:	6818      	ldr	r0, [r3, #0]
 80005c4:	f7ff fda2 	bl	800010c <__aeabi_fmul>
 80005c8:	f7ff fef0 	bl	80003ac <__aeabi_f2iz>
 80005cc:	4601      	mov	r1, r0
 80005ce:	1b28      	subs	r0, r5, r4
 80005d0:	f004 fde8 	bl	80051a4 <_IQ18mpy>
 80005d4:	4e10      	ldr	r6, [pc, #64]	@ (8000618 <adc_callback_handler+0x74>)
 80005d6:	6030      	str	r0, [r6, #0]

    _iq18 adc1_filtered = updateEMA_iq18(&filter2, _IQ18(adc[1]));
 80005d8:	8879      	ldrh	r1, [r7, #2]
 80005da:	0489      	lsls	r1, r1, #18
 80005dc:	480f      	ldr	r0, [pc, #60]	@ (800061c <adc_callback_handler+0x78>)
 80005de:	f000 f987 	bl	80008f0 <updateEMA_iq18>
 80005e2:	4605      	mov	r5, r0
    current[1] = _IQ18mpy((adc1_filtered - _IQ18(CS_ADC_M2_Offset)), _IQ18(CS_ADC_M2_Gain));
 80005e4:	4b0e      	ldr	r3, [pc, #56]	@ (8000620 <adc_callback_handler+0x7c>)
 80005e6:	f9b3 4000 	ldrsh.w	r4, [r3]
 80005ea:	04a4      	lsls	r4, r4, #18
 80005ec:	f04f 4191 	mov.w	r1, #1216348160	@ 0x48800000
 80005f0:	4b0c      	ldr	r3, [pc, #48]	@ (8000624 <adc_callback_handler+0x80>)
 80005f2:	6818      	ldr	r0, [r3, #0]
 80005f4:	f7ff fd8a 	bl	800010c <__aeabi_fmul>
 80005f8:	f7ff fed8 	bl	80003ac <__aeabi_f2iz>
 80005fc:	4601      	mov	r1, r0
 80005fe:	1b28      	subs	r0, r5, r4
 8000600:	f004 fdd0 	bl	80051a4 <_IQ18mpy>
 8000604:	6070      	str	r0, [r6, #4]
}
 8000606:	bdf8      	pop	{r3, r4, r5, r6, r7, pc}
 8000608:	20000154 	.word	0x20000154
 800060c:	20000144 	.word	0x20000144
 8000610:	2000000a 	.word	0x2000000a
 8000614:	20000004 	.word	0x20000004
 8000618:	2000014c 	.word	0x2000014c
 800061c:	2000013c 	.word	0x2000013c
 8000620:	20000008 	.word	0x20000008
 8000624:	20000000 	.word	0x20000000

08000628 <HAL_ADC_ConvCpltCallback>:

void HAL_ADC_ConvCpltCallback(ADC_HandleTypeDef *hadc)
{
 8000628:	b508      	push	{r3, lr}
    adc_callback_handler();
 800062a:	f7ff ffbb 	bl	80005a4 <adc_callback_handler>
 800062e:	bd08      	pop	{r3, pc}

08000630 <crc8_ccitt>:
#include "crc_8_16.h"

// CRC-8-CCITT-FALSE calculation
uint8_t crc8_ccitt(uint8_t *data, size_t length) {
 8000630:	b500      	push	{lr}
 8000632:	4686      	mov	lr, r0
    uint8_t crc = CRC8_INIT;

    for (size_t i = 0; i < length; ++i) {
 8000634:	f04f 0c00 	mov.w	ip, #0
    uint8_t crc = CRC8_INIT;
 8000638:	4660      	mov	r0, ip
    for (size_t i = 0; i < length; ++i) {
 800063a:	e00e      	b.n	800065a <crc8_ccitt+0x2a>
        crc ^= data[i];
        for (uint8_t bit = 8; bit > 0; --bit) {
            if (crc & 0x80) {
                crc = (crc << 1) ^ CRC8_POLY;
            } else {
                crc <<= 1;
 800063c:	0040      	lsls	r0, r0, #1
 800063e:	b2c0      	uxtb	r0, r0
        for (uint8_t bit = 8; bit > 0; --bit) {
 8000640:	3b01      	subs	r3, #1
 8000642:	b2db      	uxtb	r3, r3
 8000644:	b13b      	cbz	r3, 8000656 <crc8_ccitt+0x26>
            if (crc & 0x80) {
 8000646:	b242      	sxtb	r2, r0
 8000648:	2a00      	cmp	r2, #0
 800064a:	daf7      	bge.n	800063c <crc8_ccitt+0xc>
                crc = (crc << 1) ^ CRC8_POLY;
 800064c:	0052      	lsls	r2, r2, #1
 800064e:	f082 0207 	eor.w	r2, r2, #7
 8000652:	b2d0      	uxtb	r0, r2
 8000654:	e7f4      	b.n	8000640 <crc8_ccitt+0x10>
    for (size_t i = 0; i < length; ++i) {
 8000656:	f10c 0c01 	add.w	ip, ip, #1
 800065a:	458c      	cmp	ip, r1
 800065c:	d204      	bcs.n	8000668 <crc8_ccitt+0x38>
        crc ^= data[i];
 800065e:	f81e 300c 	ldrb.w	r3, [lr, ip]
 8000662:	4058      	eors	r0, r3
        for (uint8_t bit = 8; bit > 0; --bit) {
 8000664:	2308      	movs	r3, #8
 8000666:	e7ed      	b.n	8000644 <crc8_ccitt+0x14>
            }
        }
    }
    return crc;
}
 8000668:	f85d fb04 	ldr.w	pc, [sp], #4

0800066c <crc16_ccitt>:

// CRC-16-CCITT-FALSE calculation
uint16_t crc16_ccitt(uint8_t *data, size_t length) {
 800066c:	b500      	push	{lr}
 800066e:	4686      	mov	lr, r0
    uint16_t crc = CRC16_INIT;

    for (size_t i = 0; i < length; ++i) {
 8000670:	f04f 0c00 	mov.w	ip, #0
    uint16_t crc = CRC16_INIT;
 8000674:	f64f 70ff 	movw	r0, #65535	@ 0xffff
    for (size_t i = 0; i < length; ++i) {
 8000678:	e00f      	b.n	800069a <crc16_ccitt+0x2e>
        crc ^= (data[i] << 8);
        for (uint8_t bit = 8; bit > 0; --bit) {
            if (crc & 0x8000) {
                crc = (crc << 1) ^ CRC16_POLY;
            } else {
                crc <<= 1;
 800067a:	0040      	lsls	r0, r0, #1
 800067c:	b280      	uxth	r0, r0
        for (uint8_t bit = 8; bit > 0; --bit) {
 800067e:	3b01      	subs	r3, #1
 8000680:	b2db      	uxtb	r3, r3
 8000682:	b143      	cbz	r3, 8000696 <crc16_ccitt+0x2a>
            if (crc & 0x8000) {
 8000684:	b202      	sxth	r2, r0
 8000686:	2a00      	cmp	r2, #0
 8000688:	daf7      	bge.n	800067a <crc16_ccitt+0xe>
                crc = (crc << 1) ^ CRC16_POLY;
 800068a:	f241 0021 	movw	r0, #4129	@ 0x1021
 800068e:	ea80 0042 	eor.w	r0, r0, r2, lsl #1
 8000692:	b280      	uxth	r0, r0
 8000694:	e7f3      	b.n	800067e <crc16_ccitt+0x12>
    for (size_t i = 0; i < length; ++i) {
 8000696:	f10c 0c01 	add.w	ip, ip, #1
 800069a:	458c      	cmp	ip, r1
 800069c:	d205      	bcs.n	80006aa <crc16_ccitt+0x3e>
        crc ^= (data[i] << 8);
 800069e:	f81e 300c 	ldrb.w	r3, [lr, ip]
 80006a2:	ea80 2003 	eor.w	r0, r0, r3, lsl #8
        for (uint8_t bit = 8; bit > 0; --bit) {
 80006a6:	2308      	movs	r3, #8
 80006a8:	e7eb      	b.n	8000682 <crc16_ccitt+0x16>
            }
        }
    }
    return crc;
 80006aa:	f85d fb04 	ldr.w	pc, [sp], #4
	...

080006b0 <MX_DMA_Init>:

/**
  * Enable DMA controller clock
  */
void MX_DMA_Init(void)
{
 80006b0:	b500      	push	{lr}
 80006b2:	b083      	sub	sp, #12

  /* DMA controller clock enable */
  __HAL_RCC_DMA1_CLK_ENABLE();
 80006b4:	4b1a      	ldr	r3, [pc, #104]	@ (8000720 <MX_DMA_Init+0x70>)
 80006b6:	695a      	ldr	r2, [r3, #20]
 80006b8:	f042 0201 	orr.w	r2, r2, #1
 80006bc:	615a      	str	r2, [r3, #20]
 80006be:	695b      	ldr	r3, [r3, #20]
 80006c0:	f003 0301 	and.w	r3, r3, #1
 80006c4:	9301      	str	r3, [sp, #4]
 80006c6:	9b01      	ldr	r3, [sp, #4]

  /* DMA interrupt init */
  /* DMA1_Channel1_IRQn interrupt configuration */
  HAL_NVIC_SetPriority(DMA1_Channel1_IRQn, 0, 0);
 80006c8:	2200      	movs	r2, #0
 80006ca:	4611      	mov	r1, r2
 80006cc:	200b      	movs	r0, #11
 80006ce:	f002 f9b7 	bl	8002a40 <HAL_NVIC_SetPriority>
  HAL_NVIC_EnableIRQ(DMA1_Channel1_IRQn);
 80006d2:	200b      	movs	r0, #11
 80006d4:	f002 f9c4 	bl	8002a60 <HAL_NVIC_EnableIRQ>
  /* DMA1_Channel2_IRQn interrupt configuration */
  HAL_NVIC_SetPriority(DMA1_Channel2_IRQn, 0, 0);
 80006d8:	2200      	movs	r2, #0
 80006da:	4611      	mov	r1, r2
 80006dc:	200c      	movs	r0, #12
 80006de:	f002 f9af 	bl	8002a40 <HAL_NVIC_SetPriority>
  HAL_NVIC_EnableIRQ(DMA1_Channel2_IRQn);
 80006e2:	200c      	movs	r0, #12
 80006e4:	f002 f9bc 	bl	8002a60 <HAL_NVIC_EnableIRQ>
  /* DMA1_Channel3_IRQn interrupt configuration */
  HAL_NVIC_SetPriority(DMA1_Channel3_IRQn, 0, 0);
 80006e8:	2200      	movs	r2, #0
 80006ea:	4611      	mov	r1, r2
 80006ec:	200d      	movs	r0, #13
 80006ee:	f002 f9a7 	bl	8002a40 <HAL_NVIC_SetPriority>
  HAL_NVIC_EnableIRQ(DMA1_Channel3_IRQn);
 80006f2:	200d      	movs	r0, #13
 80006f4:	f002 f9b4 	bl	8002a60 <HAL_NVIC_EnableIRQ>
  /* DMA1_Channel4_IRQn interrupt configuration */
  HAL_NVIC_SetPriority(DMA1_Channel4_IRQn, 0, 0);
 80006f8:	2200      	movs	r2, #0
 80006fa:	4611      	mov	r1, r2
 80006fc:	200e      	movs	r0, #14
 80006fe:	f002 f99f 	bl	8002a40 <HAL_NVIC_SetPriority>
  HAL_NVIC_EnableIRQ(DMA1_Channel4_IRQn);
 8000702:	200e      	movs	r0, #14
 8000704:	f002 f9ac 	bl	8002a60 <HAL_NVIC_EnableIRQ>
  /* DMA1_Channel5_IRQn interrupt configuration */
  HAL_NVIC_SetPriority(DMA1_Channel5_IRQn, 0, 0);
 8000708:	2200      	movs	r2, #0
 800070a:	4611      	mov	r1, r2
 800070c:	200f      	movs	r0, #15
 800070e:	f002 f997 	bl	8002a40 <HAL_NVIC_SetPriority>
  HAL_NVIC_EnableIRQ(DMA1_Channel5_IRQn);
 8000712:	200f      	movs	r0, #15
 8000714:	f002 f9a4 	bl	8002a60 <HAL_NVIC_EnableIRQ>

}
 8000718:	b003      	add	sp, #12
 800071a:	f85d fb04 	ldr.w	pc, [sp], #4
 800071e:	bf00      	nop
 8000720:	40021000 	.word	0x40021000

08000724 <drv8106_read_reg_blocking>:
uint8_t drv8106_cur_read_addr;
uint8_t drv8106_read_flag;


void drv8106_read_reg_blocking(drv8106_t* drv_inst, uint8_t reg_addr)
{
 8000724:	b510      	push	{r4, lr}
 8000726:	b084      	sub	sp, #16
 8000728:	4604      	mov	r4, r0
    uint16_t tx = (reg_addr | DRV8106_READ_MASK) << 8;
 800072a:	f041 0140 	orr.w	r1, r1, #64	@ 0x40
 800072e:	0209      	lsls	r1, r1, #8
 8000730:	f8ad 100e 	strh.w	r1, [sp, #14]

    HAL_GPIO_WritePin(drv_inst->CS_PORT, drv_inst->CS_PIN, GPIO_PIN_RESET);
 8000734:	2200      	movs	r2, #0
 8000736:	8901      	ldrh	r1, [r0, #8]
 8000738:	6840      	ldr	r0, [r0, #4]
 800073a:	f002 fc5e 	bl	8002ffa <HAL_GPIO_WritePin>
    HAL_SPI_TransmitReceive(drv_inst->spi_handler_ptr, (uint8_t*)&tx, (uint8_t*)&drv_inst->rxbuff, 1, HAL_MAX_DELAY);
 800073e:	4622      	mov	r2, r4
 8000740:	f852 0b0a 	ldr.w	r0, [r2], #10
 8000744:	f04f 33ff 	mov.w	r3, #4294967295
 8000748:	9300      	str	r3, [sp, #0]
 800074a:	2301      	movs	r3, #1
 800074c:	f10d 010e 	add.w	r1, sp, #14
 8000750:	f003 f957 	bl	8003a02 <HAL_SPI_TransmitReceive>
    HAL_GPIO_WritePin(drv_inst->CS_PORT, drv_inst->CS_PIN, GPIO_PIN_SET);
 8000754:	2201      	movs	r2, #1
 8000756:	8921      	ldrh	r1, [r4, #8]
 8000758:	6860      	ldr	r0, [r4, #4]
 800075a:	f002 fc4e 	bl	8002ffa <HAL_GPIO_WritePin>
    // HAL_Delay(1); // in case it doesnt manage to flip CS
}
 800075e:	b004      	add	sp, #16
 8000760:	bd10      	pop	{r4, pc}

08000762 <drv8106_write_reg_blocking>:

void drv8106_write_reg_blocking(drv8106_t* drv_inst, uint8_t reg_addr, uint8_t data){
 8000762:	b510      	push	{r4, lr}
 8000764:	b084      	sub	sp, #16
 8000766:	4604      	mov	r4, r0
    uint16_t tx;
    tx = (reg_addr << 8) | data;
 8000768:	ea42 2201 	orr.w	r2, r2, r1, lsl #8
 800076c:	f8ad 200e 	strh.w	r2, [sp, #14]

    HAL_GPIO_WritePin(drv_inst->CS_PORT, drv_inst->CS_PIN, GPIO_PIN_RESET);
 8000770:	2200      	movs	r2, #0
 8000772:	8901      	ldrh	r1, [r0, #8]
 8000774:	6840      	ldr	r0, [r0, #4]
 8000776:	f002 fc40 	bl	8002ffa <HAL_GPIO_WritePin>
    HAL_SPI_TransmitReceive(drv_inst->spi_handler_ptr, (uint8_t*)&tx, (uint8_t*)&drv_inst->rxbuff, 1, HAL_MAX_DELAY);
 800077a:	4622      	mov	r2, r4
 800077c:	f852 0b0a 	ldr.w	r0, [r2], #10
 8000780:	f04f 33ff 	mov.w	r3, #4294967295
 8000784:	9300      	str	r3, [sp, #0]
 8000786:	2301      	movs	r3, #1
 8000788:	f10d 010e 	add.w	r1, sp, #14
 800078c:	f003 f939 	bl	8003a02 <HAL_SPI_TransmitReceive>
    HAL_GPIO_WritePin(drv_inst->CS_PORT, drv_inst->CS_PIN, GPIO_PIN_SET);
 8000790:	2201      	movs	r2, #1
 8000792:	8921      	ldrh	r1, [r4, #8]
 8000794:	6860      	ldr	r0, [r4, #4]
 8000796:	f002 fc30 	bl	8002ffa <HAL_GPIO_WritePin>
    // HAL_Delay(1); // in case it doesnt manage to flip CS
}
 800079a:	b004      	add	sp, #16
 800079c:	bd10      	pop	{r4, pc}

0800079e <drv8106_read_all_blocking>:


void drv8106_read_all_blocking(drv8106_t* drv_inst){
 800079e:	b510      	push	{r4, lr}
 80007a0:	4604      	mov	r4, r0

    drv8106_read_reg_blocking(drv_inst, DRV8106_IC_STAT_1);
 80007a2:	2100      	movs	r1, #0
 80007a4:	f7ff ffbe 	bl	8000724 <drv8106_read_reg_blocking>
    drv_inst->register_map.IC_STAT_1 = (uint8_t)(drv_inst->rxbuff & 0xFF);
 80007a8:	7aa3      	ldrb	r3, [r4, #10]
 80007aa:	73a3      	strb	r3, [r4, #14]

    drv8106_read_reg_blocking(drv_inst, DRV8106_VGS_VDS_STAT);
 80007ac:	2101      	movs	r1, #1
 80007ae:	4620      	mov	r0, r4
 80007b0:	f7ff ffb8 	bl	8000724 <drv8106_read_reg_blocking>
    drv_inst->register_map.VGS_VDS_STAT = (uint8_t)(drv_inst->rxbuff & 0xFF);
 80007b4:	7aa3      	ldrb	r3, [r4, #10]
 80007b6:	73e3      	strb	r3, [r4, #15]

    drv8106_read_reg_blocking(drv_inst, DRV8106_IC_STAT_2);
 80007b8:	2102      	movs	r1, #2
 80007ba:	4620      	mov	r0, r4
 80007bc:	f7ff ffb2 	bl	8000724 <drv8106_read_reg_blocking>
    drv_inst->register_map.IC_STAT_2 = (uint8_t)(drv_inst->rxbuff & 0xFF);
 80007c0:	7aa3      	ldrb	r3, [r4, #10]
 80007c2:	7423      	strb	r3, [r4, #16]

    drv8106_read_reg_blocking(drv_inst, DRV8106_IC_CTRL);
 80007c4:	2104      	movs	r1, #4
 80007c6:	4620      	mov	r0, r4
 80007c8:	f7ff ffac 	bl	8000724 <drv8106_read_reg_blocking>
    drv_inst->register_map.IC_CTRL = (uint8_t)(drv_inst->rxbuff & 0xFF);
 80007cc:	7aa3      	ldrb	r3, [r4, #10]
 80007ce:	74a3      	strb	r3, [r4, #18]

    drv8106_read_reg_blocking(drv_inst, DRV8106_BRG_CTRL);
 80007d0:	2105      	movs	r1, #5
 80007d2:	4620      	mov	r0, r4
 80007d4:	f7ff ffa6 	bl	8000724 <drv8106_read_reg_blocking>
    drv_inst->register_map.BRG_CTRL = (uint8_t)(drv_inst->rxbuff & 0xFF);
 80007d8:	7aa3      	ldrb	r3, [r4, #10]
 80007da:	74e3      	strb	r3, [r4, #19]

    drv8106_read_reg_blocking(drv_inst, DRV8106_DRV_CTRL_1);
 80007dc:	2106      	movs	r1, #6
 80007de:	4620      	mov	r0, r4
 80007e0:	f7ff ffa0 	bl	8000724 <drv8106_read_reg_blocking>
    drv_inst->register_map.DRV_CTRL_1 = (uint8_t)(drv_inst->rxbuff & 0xFF);
 80007e4:	7aa3      	ldrb	r3, [r4, #10]
 80007e6:	7523      	strb	r3, [r4, #20]

    drv8106_read_reg_blocking(drv_inst, DRV8106_DRV_CTRL_2);
 80007e8:	2107      	movs	r1, #7
 80007ea:	4620      	mov	r0, r4
 80007ec:	f7ff ff9a 	bl	8000724 <drv8106_read_reg_blocking>
    drv_inst->register_map.DRV_CTRL_2 = (uint8_t)(drv_inst->rxbuff & 0xFF);
 80007f0:	7aa3      	ldrb	r3, [r4, #10]
 80007f2:	7563      	strb	r3, [r4, #21]

    drv8106_read_reg_blocking(drv_inst, DRV8106_DRV_CTRL_3);
 80007f4:	2108      	movs	r1, #8
 80007f6:	4620      	mov	r0, r4
 80007f8:	f7ff ff94 	bl	8000724 <drv8106_read_reg_blocking>
    drv_inst->register_map.DRV_CTRL_3 = (uint8_t)(drv_inst->rxbuff & 0xFF);
 80007fc:	7aa3      	ldrb	r3, [r4, #10]
 80007fe:	75a3      	strb	r3, [r4, #22]

    drv8106_read_reg_blocking(drv_inst, DRV8106_VDS_CTRL_1);
 8000800:	2109      	movs	r1, #9
 8000802:	4620      	mov	r0, r4
 8000804:	f7ff ff8e 	bl	8000724 <drv8106_read_reg_blocking>
    drv_inst->register_map.VDS_CTRL_1 = (uint8_t)(drv_inst->rxbuff & 0xFF);
 8000808:	7aa3      	ldrb	r3, [r4, #10]
 800080a:	75e3      	strb	r3, [r4, #23]

    drv8106_read_reg_blocking(drv_inst, DRV8106_VDS_CTRL_2);
 800080c:	210a      	movs	r1, #10
 800080e:	4620      	mov	r0, r4
 8000810:	f7ff ff88 	bl	8000724 <drv8106_read_reg_blocking>
    drv_inst->register_map.VDS_CTRL_2 = (uint8_t)(drv_inst->rxbuff & 0xFF);
 8000814:	7aa3      	ldrb	r3, [r4, #10]
 8000816:	7623      	strb	r3, [r4, #24]

    drv8106_read_reg_blocking(drv_inst, DRV8106_OLSC_CTRL);
 8000818:	210b      	movs	r1, #11
 800081a:	4620      	mov	r0, r4
 800081c:	f7ff ff82 	bl	8000724 <drv8106_read_reg_blocking>
    drv_inst->register_map.OLSC_CTRL = (uint8_t)(drv_inst->rxbuff & 0xFF);
 8000820:	7aa3      	ldrb	r3, [r4, #10]
 8000822:	7663      	strb	r3, [r4, #25]

    drv8106_read_reg_blocking(drv_inst, DRV8106_UVOV_CTRL);
 8000824:	210c      	movs	r1, #12
 8000826:	4620      	mov	r0, r4
 8000828:	f7ff ff7c 	bl	8000724 <drv8106_read_reg_blocking>
    drv_inst->register_map.UVOV_CTRL = (uint8_t)(drv_inst->rxbuff & 0xFF);
 800082c:	7aa3      	ldrb	r3, [r4, #10]
 800082e:	76a3      	strb	r3, [r4, #26]

    drv8106_read_reg_blocking(drv_inst, DRV8106_CSA_CTRL);
 8000830:	210d      	movs	r1, #13
 8000832:	4620      	mov	r0, r4
 8000834:	f7ff ff76 	bl	8000724 <drv8106_read_reg_blocking>
    drv_inst->register_map.CSA_CTRL = (uint8_t)(drv_inst->rxbuff & 0xFF);
 8000838:	7aa3      	ldrb	r3, [r4, #10]
 800083a:	76e3      	strb	r3, [r4, #27]
}
 800083c:	bd10      	pop	{r4, pc}

0800083e <drv8106_reset_blocking>:

void drv8106_reset_blocking(drv8106_t* drv_inst){
 800083e:	b510      	push	{r4, lr}
 8000840:	4604      	mov	r4, r0
    drv8106_write_reg_blocking(drv_inst, DRV8106_IC_CTRL, DRV8106_IC_CTRL_DEFAULT);
 8000842:	2206      	movs	r2, #6
 8000844:	2104      	movs	r1, #4
 8000846:	f7ff ff8c 	bl	8000762 <drv8106_write_reg_blocking>
    drv8106_write_reg_blocking(drv_inst, DRV8106_BRG_CTRL, DRV8106_BRG_CTRL_DEFAULT);
 800084a:	2200      	movs	r2, #0
 800084c:	2105      	movs	r1, #5
 800084e:	4620      	mov	r0, r4
 8000850:	f7ff ff87 	bl	8000762 <drv8106_write_reg_blocking>
    drv8106_write_reg_blocking(drv_inst, DRV8106_DRV_CTRL_1, DRV8106_DRV_CTRL_1_DEFAULT);
 8000854:	22ff      	movs	r2, #255	@ 0xff
 8000856:	2106      	movs	r1, #6
 8000858:	4620      	mov	r0, r4
 800085a:	f7ff ff82 	bl	8000762 <drv8106_write_reg_blocking>
    drv8106_write_reg_blocking(drv_inst, DRV8106_DRV_CTRL_2, DRV8106_DRV_CTRL_2_DEFAULT);
 800085e:	22ff      	movs	r2, #255	@ 0xff
 8000860:	2107      	movs	r1, #7
 8000862:	4620      	mov	r0, r4
 8000864:	f7ff ff7d 	bl	8000762 <drv8106_write_reg_blocking>
    drv8106_write_reg_blocking(drv_inst, DRV8106_DRV_CTRL_3, DRV8106_DRV_CTRL_3_DEFAULT);
 8000868:	2220      	movs	r2, #32
 800086a:	2108      	movs	r1, #8
 800086c:	4620      	mov	r0, r4
 800086e:	f7ff ff78 	bl	8000762 <drv8106_write_reg_blocking>
    drv8106_write_reg_blocking(drv_inst, DRV8106_VDS_CTRL_1, DRV8106_VDS_CTRL_1_DEFAULT);
 8000872:	2220      	movs	r2, #32
 8000874:	2109      	movs	r1, #9
 8000876:	4620      	mov	r0, r4
 8000878:	f7ff ff73 	bl	8000762 <drv8106_write_reg_blocking>
    drv8106_write_reg_blocking(drv_inst, DRV8106_VDS_CTRL_2, DRV8106_VDS_CTRL_2_DEFAULT);
 800087c:	22dd      	movs	r2, #221	@ 0xdd
 800087e:	210a      	movs	r1, #10
 8000880:	4620      	mov	r0, r4
 8000882:	f7ff ff6e 	bl	8000762 <drv8106_write_reg_blocking>
    drv8106_write_reg_blocking(drv_inst, DRV8106_OLSC_CTRL, DRV8106_OLSC_CTRL_DEFAULT);
 8000886:	2200      	movs	r2, #0
 8000888:	210b      	movs	r1, #11
 800088a:	4620      	mov	r0, r4
 800088c:	f7ff ff69 	bl	8000762 <drv8106_write_reg_blocking>
    drv8106_write_reg_blocking(drv_inst, DRV8106_UVOV_CTRL, DRV8106_UVOV_CTRL_DEFAULT);
 8000890:	2214      	movs	r2, #20
 8000892:	210c      	movs	r1, #12
 8000894:	4620      	mov	r0, r4
 8000896:	f7ff ff64 	bl	8000762 <drv8106_write_reg_blocking>
    drv8106_write_reg_blocking(drv_inst, DRV8106_CSA_CTRL, DRV8106_CSA_CTRL_DEFAULT);
 800089a:	2201      	movs	r2, #1
 800089c:	210d      	movs	r1, #13
 800089e:	4620      	mov	r0, r4
 80008a0:	f7ff ff5f 	bl	8000762 <drv8106_write_reg_blocking>
}
 80008a4:	bd10      	pop	{r4, pc}

080008a6 <drv8106_Enable_blocking>:
// // disable drv ic in non-blocking manner via dma
// void drv8106_Disable_dma(drv8106_t* drv_inst){
//     drv8106_write_reg_dma(drv_inst, DRV8106_IC_CTRL, 0);
// }

void drv8106_Enable_blocking(drv8106_t* drv_inst){
 80008a6:	b508      	push	{r3, lr}
    drv8106_write_reg_blocking(drv_inst, DRV8106_IC_CTRL, DRV8106_EN_DRV);
 80008a8:	2280      	movs	r2, #128	@ 0x80
 80008aa:	2104      	movs	r1, #4
 80008ac:	f7ff ff59 	bl	8000762 <drv8106_write_reg_blocking>
}
 80008b0:	bd08      	pop	{r3, pc}

080008b2 <drv8106_CSA_enable_g10_blocking>:

void drv8106_Disable_blocking(drv8106_t* drv_inst){
    drv8106_write_reg_blocking(drv_inst, DRV8106_IC_CTRL, 0);
}

void drv8106_CSA_enable_g10_blocking(drv8106_t* drv_inst){
 80008b2:	b508      	push	{r3, lr}
    drv8106_write_reg_blocking(drv_inst, DRV8106_CSA_CTRL, DRV8106_CSA_SH_EN | DRV8106_CSA_GAIN_10);
 80008b4:	2280      	movs	r2, #128	@ 0x80
 80008b6:	210d      	movs	r1, #13
 80008b8:	f7ff ff53 	bl	8000762 <drv8106_write_reg_blocking>
}
 80008bc:	bd08      	pop	{r3, pc}

080008be <drv8106_clear_fault_blocking>:
    drv_inst->faults_list.Undervoltage = drv_inst->register_map.IC_STAT_1 & DRV8106_UV;
    drv_inst->faults_list.Overvoltage = drv_inst->register_map.IC_STAT_1 & DRV8106_OV;
    drv_inst->faults_list.Overtemperature = drv_inst->register_map.IC_STAT_1 & DRV8106_OT;
}

void drv8106_clear_fault_blocking(drv8106_t* drv_inst){
 80008be:	b508      	push	{r3, lr}
    drv8106_write_reg_blocking(drv_inst, DRV8106_IC_CTRL, DRV8106_CLR_FLT);
 80008c0:	2201      	movs	r2, #1
 80008c2:	2104      	movs	r1, #4
 80008c4:	f7ff ff4d 	bl	8000762 <drv8106_write_reg_blocking>
}
 80008c8:	bd08      	pop	{r3, pc}

080008ca <drv8106_set_fault_autorecovery_blocking>:

void drv8106_set_fault_autorecovery_blocking(drv8106_t* drv_inst){
 80008ca:	b508      	push	{r3, lr}
    uint8_t data = DRV8106_UV_MODE | DRV8106_OV_MODE_AUTO | DRV8106_OV_DG_4us | DRV8106_OV_LVL;
    drv8106_write_reg_blocking(drv_inst, DRV8106_UVOV_CTRL, data);
 80008cc:	22b4      	movs	r2, #180	@ 0xb4
 80008ce:	210c      	movs	r1, #12
 80008d0:	f7ff ff47 	bl	8000762 <drv8106_write_reg_blocking>
}
 80008d4:	bd08      	pop	{r3, pc}

080008d6 <initEMA_iq18>:
 */

#include "ema_iq18.h"

// Initialize the EMA filter
void initEMA_iq18(EMA_iq18* filter, float alpha, _iq18 initial_value) {
 80008d6:	b538      	push	{r3, r4, r5, lr}
 80008d8:	4604      	mov	r4, r0
 80008da:	4608      	mov	r0, r1
 80008dc:	4615      	mov	r5, r2
	filter->alpha = _IQ18(alpha);
 80008de:	f04f 4191 	mov.w	r1, #1216348160	@ 0x48800000
 80008e2:	f7ff fc13 	bl	800010c <__aeabi_fmul>
 80008e6:	f7ff fd61 	bl	80003ac <__aeabi_f2iz>
 80008ea:	6020      	str	r0, [r4, #0]
	filter->previous = initial_value;
 80008ec:	6065      	str	r5, [r4, #4]
}
 80008ee:	bd38      	pop	{r3, r4, r5, pc}

080008f0 <updateEMA_iq18>:

// Update the EMA filter with a new value and return the filtered result
_iq18 updateEMA_iq18(EMA_iq18 *filter, _iq18 newValue) {
 80008f0:	b538      	push	{r3, r4, r5, lr}
 80008f2:	4605      	mov	r5, r0
	_iq18 ema = _IQ18mpy(filter->alpha, newValue)
 80008f4:	6800      	ldr	r0, [r0, #0]
 80008f6:	f004 fc55 	bl	80051a4 <_IQ18mpy>
 80008fa:	4604      	mov	r4, r0
			+ _IQ18mpy((_IQ18(1) - filter->alpha), filter->previous);
 80008fc:	6828      	ldr	r0, [r5, #0]
 80008fe:	6869      	ldr	r1, [r5, #4]
 8000900:	f5c0 2080 	rsb	r0, r0, #262144	@ 0x40000
 8000904:	f004 fc4e 	bl	80051a4 <_IQ18mpy>
	_iq18 ema = _IQ18mpy(filter->alpha, newValue)
 8000908:	4420      	add	r0, r4
	filter->previous = ema;
 800090a:	6068      	str	r0, [r5, #4]
	return ema;
}
 800090c:	bd38      	pop	{r3, r4, r5, pc}
	...

08000910 <encoder_updatePosition_iq18>:
		encoder->reverse_flag = 1;
	} else {
		encoder->reverse_flag = -1;
	}
}
void encoder_updatePosition_iq18(encoder_iq18_t *encoder) {
 8000910:	b538      	push	{r3, r4, r5, lr}
 8000912:	4604      	mov	r4, r0
	encoder->currentTicks = (int16_t) encoder->htim->Instance->CNT;
 8000914:	6803      	ldr	r3, [r0, #0]
 8000916:	681b      	ldr	r3, [r3, #0]
 8000918:	6a58      	ldr	r0, [r3, #36]	@ 0x24
 800091a:	b200      	sxth	r0, r0
 800091c:	8520      	strh	r0, [r4, #40]	@ 0x28

	encoder->fullRevolutions += _IQ18div(
			_IQ18(encoder->currentTicks / encoder->countsPerRevolution),
 800091e:	8d63      	ldrh	r3, [r4, #42]	@ 0x2a
 8000920:	fb90 f0f3 	sdiv	r0, r0, r3
	encoder->fullRevolutions += _IQ18div(
 8000924:	6a21      	ldr	r1, [r4, #32]
 8000926:	0480      	lsls	r0, r0, #18
 8000928:	f004 fbf4 	bl	8005114 <_IQ18div>
 800092c:	6963      	ldr	r3, [r4, #20]
 800092e:	4403      	add	r3, r0
 8000930:	6163      	str	r3, [r4, #20]
			encoder->gearRatio);

	encoder->currentTicks = encoder->currentTicks
 8000932:	f9b4 3028 	ldrsh.w	r3, [r4, #40]	@ 0x28
			% encoder->countsPerRevolution;
 8000936:	8d62      	ldrh	r2, [r4, #42]	@ 0x2a
 8000938:	fb93 f1f2 	sdiv	r1, r3, r2
 800093c:	fb02 3311 	mls	r3, r2, r1, r3
	encoder->currentTicks = encoder->currentTicks
 8000940:	8523      	strh	r3, [r4, #40]	@ 0x28
	encoder->htim->Instance->CNT = (uint16_t) encoder->currentTicks;
 8000942:	6822      	ldr	r2, [r4, #0]
 8000944:	6812      	ldr	r2, [r2, #0]
 8000946:	b29b      	uxth	r3, r3
 8000948:	6253      	str	r3, [r2, #36]	@ 0x24

	encoder->angle = _IQ18mpy(
			(encoder->fullRevolutions
 800094a:	6965      	ldr	r5, [r4, #20]
					+ _IQ18div(
							_IQ18div(_IQ18(encoder->currentTicks),
 800094c:	f9b4 0028 	ldrsh.w	r0, [r4, #40]	@ 0x28
									_IQ18(encoder->countsPerRevolution)),
 8000950:	8d61      	ldrh	r1, [r4, #42]	@ 0x2a
					+ _IQ18div(
 8000952:	0489      	lsls	r1, r1, #18
 8000954:	0480      	lsls	r0, r0, #18
 8000956:	f004 fbdd 	bl	8005114 <_IQ18div>
 800095a:	6a21      	ldr	r1, [r4, #32]
 800095c:	f004 fbda 	bl	8005114 <_IQ18div>
 8000960:	4428      	add	r0, r5
	encoder->angle = _IQ18mpy(
 8000962:	4905      	ldr	r1, [pc, #20]	@ (8000978 <encoder_updatePosition_iq18+0x68>)
 8000964:	0040      	lsls	r0, r0, #1
 8000966:	f004 fc1d 	bl	80051a4 <_IQ18mpy>
							encoder->gearRatio)) << 1,
			PI_IQ18) * encoder->reverse_flag;
 800096a:	f994 302c 	ldrsb.w	r3, [r4, #44]	@ 0x2c
 800096e:	fb03 f000 	mul.w	r0, r3, r0
	encoder->angle = _IQ18mpy(
 8000972:	60e0      	str	r0, [r4, #12]
}
 8000974:	bd38      	pop	{r3, r4, r5, pc}
 8000976:	bf00      	nop
 8000978:	000c90fd 	.word	0x000c90fd

0800097c <encoder_updateVelocity_qep_iq18>:

void encoder_updateVelocity_qep_iq18(encoder_iq18_t *encoder) {
 800097c:	b510      	push	{r4, lr}
 800097e:	4604      	mov	r4, r0
	_iq18 velocity = _IQ18div((encoder->angle - encoder->previousAngle),
 8000980:	68c0      	ldr	r0, [r0, #12]
 8000982:	6a63      	ldr	r3, [r4, #36]	@ 0x24
 8000984:	69e1      	ldr	r1, [r4, #28]
 8000986:	1ac0      	subs	r0, r0, r3
 8000988:	f004 fbc4 	bl	8005114 <_IQ18div>
 800098c:	4601      	mov	r1, r0
			encoder->dt);
//	encoder->angularVelocity = velocity;
	encoder->angularVelocity = updateEMA_iq18(&encoder->filter, velocity);
 800098e:	1d20      	adds	r0, r4, #4
 8000990:	f7ff ffae 	bl	80008f0 <updateEMA_iq18>
 8000994:	6120      	str	r0, [r4, #16]
	encoder->previousAngle = encoder->angle;
 8000996:	68e3      	ldr	r3, [r4, #12]
 8000998:	6263      	str	r3, [r4, #36]	@ 0x24
}
 800099a:	bd10      	pop	{r4, pc}

0800099c <encoder_reset_iq18>:
void encoder_reset_iq18(encoder_iq18_t *encoder) {
	encoder->htim->Instance->CNT = 0;
 800099c:	6803      	ldr	r3, [r0, #0]
 800099e:	681a      	ldr	r2, [r3, #0]
 80009a0:	2300      	movs	r3, #0
 80009a2:	6253      	str	r3, [r2, #36]	@ 0x24
	encoder->angularVelocity = 0;
 80009a4:	6103      	str	r3, [r0, #16]
	encoder->previousAngle = 0;
 80009a6:	6243      	str	r3, [r0, #36]	@ 0x24
	encoder->angle = 0;
 80009a8:	60c3      	str	r3, [r0, #12]
	encoder->fullRevolutions = 0;
 80009aa:	6143      	str	r3, [r0, #20]
	encoder->currentTicks = 0;
 80009ac:	8503      	strh	r3, [r0, #40]	@ 0x28
	encoder->filter.previous = 0;
 80009ae:	6083      	str	r3, [r0, #8]
}
 80009b0:	4770      	bx	lr

080009b2 <encoder_getAngle_iq18>:

_iq18 encoder_getAngle_iq18(encoder_iq18_t *encoder) {
	return encoder->angle; // * encoder->reverse_flag;
	// return encoder->angle * encoder->reverse_flag;
}
 80009b2:	68c0      	ldr	r0, [r0, #12]
 80009b4:	4770      	bx	lr

080009b6 <encoder_getVelocity_iq18>:
_iq18 encoder_getVelocity_iq18(encoder_iq18_t *encoder) {
	return encoder->angularVelocity;// * encoder->reverse_flag;
	// return encoder->angularVelocity * encoder->reverse_flag;
}
 80009b6:	6900      	ldr	r0, [r0, #16]
 80009b8:	4770      	bx	lr
	...

080009bc <MX_GPIO_Init>:
        * Output
        * EVENT_OUT
        * EXTI
*/
void MX_GPIO_Init(void)
{
 80009bc:	e92d 47f0 	stmdb	sp!, {r4, r5, r6, r7, r8, r9, sl, lr}
 80009c0:	b088      	sub	sp, #32

  GPIO_InitTypeDef GPIO_InitStruct = {0};
 80009c2:	2400      	movs	r4, #0
 80009c4:	9404      	str	r4, [sp, #16]
 80009c6:	9405      	str	r4, [sp, #20]
 80009c8:	9406      	str	r4, [sp, #24]
 80009ca:	9407      	str	r4, [sp, #28]

  /* GPIO Ports Clock Enable */
  __HAL_RCC_GPIOD_CLK_ENABLE();
 80009cc:	4b4c      	ldr	r3, [pc, #304]	@ (8000b00 <MX_GPIO_Init+0x144>)
 80009ce:	699a      	ldr	r2, [r3, #24]
 80009d0:	f042 0220 	orr.w	r2, r2, #32
 80009d4:	619a      	str	r2, [r3, #24]
 80009d6:	699a      	ldr	r2, [r3, #24]
 80009d8:	f002 0220 	and.w	r2, r2, #32
 80009dc:	9200      	str	r2, [sp, #0]
 80009de:	9a00      	ldr	r2, [sp, #0]
  __HAL_RCC_GPIOC_CLK_ENABLE();
 80009e0:	699a      	ldr	r2, [r3, #24]
 80009e2:	f042 0210 	orr.w	r2, r2, #16
 80009e6:	619a      	str	r2, [r3, #24]
 80009e8:	699a      	ldr	r2, [r3, #24]
 80009ea:	f002 0210 	and.w	r2, r2, #16
 80009ee:	9201      	str	r2, [sp, #4]
 80009f0:	9a01      	ldr	r2, [sp, #4]
  __HAL_RCC_GPIOA_CLK_ENABLE();
 80009f2:	699a      	ldr	r2, [r3, #24]
 80009f4:	f042 0204 	orr.w	r2, r2, #4
 80009f8:	619a      	str	r2, [r3, #24]
 80009fa:	699a      	ldr	r2, [r3, #24]
 80009fc:	f002 0204 	and.w	r2, r2, #4
 8000a00:	9202      	str	r2, [sp, #8]
 8000a02:	9a02      	ldr	r2, [sp, #8]
  __HAL_RCC_GPIOB_CLK_ENABLE();
 8000a04:	699a      	ldr	r2, [r3, #24]
 8000a06:	f042 0208 	orr.w	r2, r2, #8
 8000a0a:	619a      	str	r2, [r3, #24]
 8000a0c:	699b      	ldr	r3, [r3, #24]
 8000a0e:	f003 0308 	and.w	r3, r3, #8
 8000a12:	9303      	str	r3, [sp, #12]
 8000a14:	9b03      	ldr	r3, [sp, #12]

  /*Configure GPIO pin Output Level */
  HAL_GPIO_WritePin(GPIOC, BRIDGESLEEP1_Pin|DRVOFF2_Pin|SPI1_SS2_Pin|SPI1_SS3_Pin, GPIO_PIN_RESET);
 8000a16:	f8df 90ec 	ldr.w	r9, [pc, #236]	@ 8000b04 <MX_GPIO_Init+0x148>
 8000a1a:	4622      	mov	r2, r4
 8000a1c:	213c      	movs	r1, #60	@ 0x3c
 8000a1e:	4648      	mov	r0, r9
 8000a20:	f002 faeb 	bl	8002ffa <HAL_GPIO_WritePin>

  /*Configure GPIO pin Output Level */
  HAL_GPIO_WritePin(GPIOA, DIR2_1_Pin|SPI1_SS1_Pin, GPIO_PIN_RESET);
 8000a24:	4e38      	ldr	r6, [pc, #224]	@ (8000b08 <MX_GPIO_Init+0x14c>)
 8000a26:	4622      	mov	r2, r4
 8000a28:	2112      	movs	r1, #18
 8000a2a:	4630      	mov	r0, r6
 8000a2c:	f002 fae5 	bl	8002ffa <HAL_GPIO_WritePin>

  /*Configure GPIO pin Output Level */
  HAL_GPIO_WritePin(GPIOB, SPI1_SS4_Pin|DIR1_1_Pin|HIZ1_Pin|HIZ2_Pin
 8000a30:	4f36      	ldr	r7, [pc, #216]	@ (8000b0c <MX_GPIO_Init+0x150>)
 8000a32:	4622      	mov	r2, r4
 8000a34:	f643 0137 	movw	r1, #14391	@ 0x3837
 8000a38:	4638      	mov	r0, r7
 8000a3a:	f002 fade 	bl	8002ffa <HAL_GPIO_WritePin>
                          |DRVOFF1_Pin|BRIDGESLEEP2_Pin|IND_LED_Pin|RS485_CTRL_Pin, GPIO_PIN_RESET);

  /*Configure GPIO pins : nFAULT_L2_Pin nFAULT_R2_Pin ENC1_Z_Pin ENC2_Z_Pin */
  GPIO_InitStruct.Pin = nFAULT_L2_Pin|nFAULT_R2_Pin|ENC1_Z_Pin|ENC2_Z_Pin;
 8000a3e:	f240 3303 	movw	r3, #771	@ 0x303
 8000a42:	9304      	str	r3, [sp, #16]
  GPIO_InitStruct.Mode = GPIO_MODE_INPUT;
 8000a44:	9405      	str	r4, [sp, #20]
  GPIO_InitStruct.Pull = GPIO_NOPULL;
 8000a46:	9406      	str	r4, [sp, #24]
  HAL_GPIO_Init(GPIOC, &GPIO_InitStruct);
 8000a48:	a904      	add	r1, sp, #16
 8000a4a:	4648      	mov	r0, r9
 8000a4c:	f002 f9c0 	bl	8002dd0 <HAL_GPIO_Init>

  /*Configure GPIO pins : BRIDGESLEEP1_Pin DRVOFF2_Pin */
  GPIO_InitStruct.Pin = BRIDGESLEEP1_Pin|DRVOFF2_Pin;
 8000a50:	230c      	movs	r3, #12
 8000a52:	9304      	str	r3, [sp, #16]
  GPIO_InitStruct.Mode = GPIO_MODE_OUTPUT_PP;
 8000a54:	2501      	movs	r5, #1
 8000a56:	9505      	str	r5, [sp, #20]
  GPIO_InitStruct.Pull = GPIO_NOPULL;
 8000a58:	9406      	str	r4, [sp, #24]
  GPIO_InitStruct.Speed = GPIO_SPEED_FREQ_LOW;
 8000a5a:	f04f 0802 	mov.w	r8, #2
 8000a5e:	f8cd 801c 	str.w	r8, [sp, #28]
  HAL_GPIO_Init(GPIOC, &GPIO_InitStruct);
 8000a62:	a904      	add	r1, sp, #16
 8000a64:	4648      	mov	r0, r9
 8000a66:	f002 f9b3 	bl	8002dd0 <HAL_GPIO_Init>

  /*Configure GPIO pin : DIR2_1_Pin */
  GPIO_InitStruct.Pin = DIR2_1_Pin;
 8000a6a:	f8cd 8010 	str.w	r8, [sp, #16]
  GPIO_InitStruct.Mode = GPIO_MODE_OUTPUT_PP;
 8000a6e:	9505      	str	r5, [sp, #20]
  GPIO_InitStruct.Pull = GPIO_NOPULL;
 8000a70:	9406      	str	r4, [sp, #24]
  GPIO_InitStruct.Speed = GPIO_SPEED_FREQ_LOW;
 8000a72:	f8cd 801c 	str.w	r8, [sp, #28]
  HAL_GPIO_Init(DIR2_1_GPIO_Port, &GPIO_InitStruct);
 8000a76:	a904      	add	r1, sp, #16
 8000a78:	4630      	mov	r0, r6
 8000a7a:	f002 f9a9 	bl	8002dd0 <HAL_GPIO_Init>

  /*Configure GPIO pin : SPI1_SS1_Pin */
  GPIO_InitStruct.Pin = SPI1_SS1_Pin;
 8000a7e:	2310      	movs	r3, #16
 8000a80:	9304      	str	r3, [sp, #16]
  GPIO_InitStruct.Mode = GPIO_MODE_OUTPUT_PP;
 8000a82:	9505      	str	r5, [sp, #20]
  GPIO_InitStruct.Pull = GPIO_NOPULL;
 8000a84:	9406      	str	r4, [sp, #24]
  GPIO_InitStruct.Speed = GPIO_SPEED_FREQ_HIGH;
 8000a86:	f04f 0a03 	mov.w	sl, #3
 8000a8a:	f8cd a01c 	str.w	sl, [sp, #28]
  HAL_GPIO_Init(SPI1_SS1_GPIO_Port, &GPIO_InitStruct);
 8000a8e:	eb0d 0103 	add.w	r1, sp, r3
 8000a92:	4630      	mov	r0, r6
 8000a94:	f002 f99c 	bl	8002dd0 <HAL_GPIO_Init>

  /*Configure GPIO pins : SPI1_SS2_Pin SPI1_SS3_Pin */
  GPIO_InitStruct.Pin = SPI1_SS2_Pin|SPI1_SS3_Pin;
 8000a98:	2330      	movs	r3, #48	@ 0x30
 8000a9a:	9304      	str	r3, [sp, #16]
  GPIO_InitStruct.Mode = GPIO_MODE_OUTPUT_PP;
 8000a9c:	9505      	str	r5, [sp, #20]
  GPIO_InitStruct.Pull = GPIO_NOPULL;
 8000a9e:	9406      	str	r4, [sp, #24]
  GPIO_InitStruct.Speed = GPIO_SPEED_FREQ_HIGH;
 8000aa0:	f8cd a01c 	str.w	sl, [sp, #28]
  HAL_GPIO_Init(GPIOC, &GPIO_InitStruct);
 8000aa4:	a904      	add	r1, sp, #16
 8000aa6:	4648      	mov	r0, r9
 8000aa8:	f002 f992 	bl	8002dd0 <HAL_GPIO_Init>

  /*Configure GPIO pins : SPI1_SS4_Pin RS485_CTRL_Pin */
  GPIO_InitStruct.Pin = SPI1_SS4_Pin|RS485_CTRL_Pin;
 8000aac:	2321      	movs	r3, #33	@ 0x21
 8000aae:	9304      	str	r3, [sp, #16]
  GPIO_InitStruct.Mode = GPIO_MODE_OUTPUT_PP;
 8000ab0:	9505      	str	r5, [sp, #20]
  GPIO_InitStruct.Pull = GPIO_NOPULL;
 8000ab2:	9406      	str	r4, [sp, #24]
  GPIO_InitStruct.Speed = GPIO_SPEED_FREQ_HIGH;
 8000ab4:	f8cd a01c 	str.w	sl, [sp, #28]
  HAL_GPIO_Init(GPIOB, &GPIO_InitStruct);
 8000ab8:	a904      	add	r1, sp, #16
 8000aba:	4638      	mov	r0, r7
 8000abc:	f002 f988 	bl	8002dd0 <HAL_GPIO_Init>

  /*Configure GPIO pins : DIR1_1_Pin HIZ1_Pin HIZ2_Pin DRVOFF1_Pin
                           BRIDGESLEEP2_Pin IND_LED_Pin */
  GPIO_InitStruct.Pin = DIR1_1_Pin|HIZ1_Pin|HIZ2_Pin|DRVOFF1_Pin
 8000ac0:	f643 0316 	movw	r3, #14358	@ 0x3816
 8000ac4:	9304      	str	r3, [sp, #16]
                          |BRIDGESLEEP2_Pin|IND_LED_Pin;
  GPIO_InitStruct.Mode = GPIO_MODE_OUTPUT_PP;
 8000ac6:	9505      	str	r5, [sp, #20]
  GPIO_InitStruct.Pull = GPIO_NOPULL;
 8000ac8:	9406      	str	r4, [sp, #24]
  GPIO_InitStruct.Speed = GPIO_SPEED_FREQ_LOW;
 8000aca:	f8cd 801c 	str.w	r8, [sp, #28]
  HAL_GPIO_Init(GPIOB, &GPIO_InitStruct);
 8000ace:	a904      	add	r1, sp, #16
 8000ad0:	4638      	mov	r0, r7
 8000ad2:	f002 f97d 	bl	8002dd0 <HAL_GPIO_Init>

  /*Configure GPIO pins : nFAULT_R1_Pin nFAULT_L1_Pin */
  GPIO_InitStruct.Pin = nFAULT_R1_Pin|nFAULT_L1_Pin;
 8000ad6:	f44f 4340 	mov.w	r3, #49152	@ 0xc000
 8000ada:	9304      	str	r3, [sp, #16]
  GPIO_InitStruct.Mode = GPIO_MODE_INPUT;
 8000adc:	9405      	str	r4, [sp, #20]
  GPIO_InitStruct.Pull = GPIO_NOPULL;
 8000ade:	9406      	str	r4, [sp, #24]
  HAL_GPIO_Init(GPIOB, &GPIO_InitStruct);
 8000ae0:	a904      	add	r1, sp, #16
 8000ae2:	4638      	mov	r0, r7
 8000ae4:	f002 f974 	bl	8002dd0 <HAL_GPIO_Init>

  /*Configure GPIO pin : USB_ID_Pin */
  GPIO_InitStruct.Pin = USB_ID_Pin;
 8000ae8:	f44f 6380 	mov.w	r3, #1024	@ 0x400
 8000aec:	9304      	str	r3, [sp, #16]
  GPIO_InitStruct.Mode = GPIO_MODE_INPUT;
 8000aee:	9405      	str	r4, [sp, #20]
  GPIO_InitStruct.Pull = GPIO_NOPULL;
 8000af0:	9406      	str	r4, [sp, #24]
  HAL_GPIO_Init(USB_ID_GPIO_Port, &GPIO_InitStruct);
 8000af2:	a904      	add	r1, sp, #16
 8000af4:	4630      	mov	r0, r6
 8000af6:	f002 f96b 	bl	8002dd0 <HAL_GPIO_Init>

}
 8000afa:	b008      	add	sp, #32
 8000afc:	e8bd 87f0 	ldmia.w	sp!, {r4, r5, r6, r7, r8, r9, sl, pc}
 8000b00:	40021000 	.word	0x40021000
 8000b04:	40011000 	.word	0x40011000
 8000b08:	40010800 	.word	0x40010800
 8000b0c:	40010c00 	.word	0x40010c00

08000b10 <ind_led_init>:
#include "ind_led.h"

ind_led_t ind_led_red;

void ind_led_init(ind_led_t* led, GPIO_TypeDef* port, uint16_t pin, uint16_t call_freq_hz, uint8_t lowtrig_flag)
{
 8000b10:	b508      	push	{r3, lr}
 8000b12:	4684      	mov	ip, r0
 8000b14:	4608      	mov	r0, r1
 8000b16:	4611      	mov	r1, r2
 8000b18:	f89d 2008 	ldrb.w	r2, [sp, #8]
    led->port = port;
 8000b1c:	f8cc 0000 	str.w	r0, [ip]
    led->pin = pin;
 8000b20:	f8ac 1004 	strh.w	r1, [ip, #4]
    led->call_freq = call_freq_hz;
 8000b24:	f8ac 3006 	strh.w	r3, [ip, #6]
    led->div8_hz = call_freq_hz >> 3;
 8000b28:	ea4f 0ed3 	mov.w	lr, r3, lsr #3
 8000b2c:	f8ac e00a 	strh.w	lr, [ip, #10]
    led->div4_hz = call_freq_hz >> 2;
 8000b30:	ea4f 0e93 	mov.w	lr, r3, lsr #2
 8000b34:	f8ac e00c 	strh.w	lr, [ip, #12]
    led->div2_hz = call_freq_hz >> 1;
 8000b38:	ea4f 0e53 	mov.w	lr, r3, lsr #1
 8000b3c:	f8ac e00e 	strh.w	lr, [ip, #14]
    led->div05_hz = call_freq_hz << 1;
 8000b40:	005b      	lsls	r3, r3, #1
 8000b42:	f8ac 3010 	strh.w	r3, [ip, #16]
    led->lowtrigflag = lowtrig_flag;
 8000b46:	f88c 2016 	strb.w	r2, [ip, #22]
    led->opmode = OFF;
 8000b4a:	2300      	movs	r3, #0
 8000b4c:	f88c 3014 	strb.w	r3, [ip, #20]
    led->prev_opmode = OFF;
 8000b50:	f88c 3015 	strb.w	r3, [ip, #21]
    led->CNT_LED = 0;
 8000b54:	f8ac 3008 	strh.w	r3, [ip, #8]
    HAL_GPIO_WritePin(led->port, led->pin, led->lowtrigflag);
 8000b58:	f002 fa4f 	bl	8002ffa <HAL_GPIO_WritePin>
}
 8000b5c:	bd08      	pop	{r3, pc}

08000b5e <ind_led_handler>:

void ind_led_handler(ind_led_t* led){
 8000b5e:	b510      	push	{r4, lr}
 8000b60:	4604      	mov	r4, r0
    if(led->opmode != led->prev_opmode){
 8000b62:	7d03      	ldrb	r3, [r0, #20]
 8000b64:	7d42      	ldrb	r2, [r0, #21]
 8000b66:	4293      	cmp	r3, r2
 8000b68:	d002      	beq.n	8000b70 <ind_led_handler+0x12>
        led->CNT_LED = 0;
 8000b6a:	2200      	movs	r2, #0
 8000b6c:	8102      	strh	r2, [r0, #8]
        led->prev_opmode = led->opmode;
 8000b6e:	7543      	strb	r3, [r0, #21]
    }
    if(led->opmode == OFF){
 8000b70:	b1cb      	cbz	r3, 8000ba6 <ind_led_handler+0x48>
        HAL_GPIO_WritePin(led->port, led->pin, led->lowtrigflag);
    } else if (led->opmode == STATIC){
 8000b72:	2b01      	cmp	r3, #1
 8000b74:	d01d      	beq.n	8000bb2 <ind_led_handler+0x54>
        HAL_GPIO_WritePin(led->port, led->pin, !led->lowtrigflag);
    } else {
        if (led->CNT_LED < (led->cur_div >> 1)){
 8000b76:	8923      	ldrh	r3, [r4, #8]
 8000b78:	8a62      	ldrh	r2, [r4, #18]
 8000b7a:	ebb3 0f52 	cmp.w	r3, r2, lsr #1
 8000b7e:	d221      	bcs.n	8000bc4 <ind_led_handler+0x66>
            HAL_GPIO_WritePin(led->port, led->pin, !led->lowtrigflag);
 8000b80:	7da2      	ldrb	r2, [r4, #22]
 8000b82:	fab2 f282 	clz	r2, r2
 8000b86:	0952      	lsrs	r2, r2, #5
 8000b88:	88a1      	ldrh	r1, [r4, #4]
 8000b8a:	6820      	ldr	r0, [r4, #0]
 8000b8c:	f002 fa35 	bl	8002ffa <HAL_GPIO_WritePin>
        } else {
            HAL_GPIO_WritePin(led->port, led->pin, led->lowtrigflag);
        }
        if (led->CNT_LED >= (led->cur_div-1)){
 8000b90:	8922      	ldrh	r2, [r4, #8]
 8000b92:	8a63      	ldrh	r3, [r4, #18]
 8000b94:	3b01      	subs	r3, #1
 8000b96:	429a      	cmp	r2, r3
 8000b98:	db01      	blt.n	8000b9e <ind_led_handler+0x40>
            led->CNT_LED = 0;
 8000b9a:	2300      	movs	r3, #0
 8000b9c:	8123      	strh	r3, [r4, #8]
        }
        led->CNT_LED++;
 8000b9e:	8923      	ldrh	r3, [r4, #8]
 8000ba0:	3301      	adds	r3, #1
 8000ba2:	8123      	strh	r3, [r4, #8]
    }
}
 8000ba4:	bd10      	pop	{r4, pc}
        HAL_GPIO_WritePin(led->port, led->pin, led->lowtrigflag);
 8000ba6:	7da2      	ldrb	r2, [r4, #22]
 8000ba8:	88a1      	ldrh	r1, [r4, #4]
 8000baa:	6820      	ldr	r0, [r4, #0]
 8000bac:	f002 fa25 	bl	8002ffa <HAL_GPIO_WritePin>
 8000bb0:	e7f8      	b.n	8000ba4 <ind_led_handler+0x46>
        HAL_GPIO_WritePin(led->port, led->pin, !led->lowtrigflag);
 8000bb2:	7da2      	ldrb	r2, [r4, #22]
 8000bb4:	fab2 f282 	clz	r2, r2
 8000bb8:	0952      	lsrs	r2, r2, #5
 8000bba:	88a1      	ldrh	r1, [r4, #4]
 8000bbc:	6820      	ldr	r0, [r4, #0]
 8000bbe:	f002 fa1c 	bl	8002ffa <HAL_GPIO_WritePin>
 8000bc2:	e7ef      	b.n	8000ba4 <ind_led_handler+0x46>
            HAL_GPIO_WritePin(led->port, led->pin, led->lowtrigflag);
 8000bc4:	7da2      	ldrb	r2, [r4, #22]
 8000bc6:	88a1      	ldrh	r1, [r4, #4]
 8000bc8:	6820      	ldr	r0, [r4, #0]
 8000bca:	f002 fa16 	bl	8002ffa <HAL_GPIO_WritePin>
 8000bce:	e7df      	b.n	8000b90 <ind_led_handler+0x32>

08000bd0 <ind_led_set_opmode>:

void ind_led_set_opmode(ind_led_t* led, ind_led_opmode opmode){
    led->opmode = opmode;
 8000bd0:	7501      	strb	r1, [r0, #20]
    switch (opmode)
 8000bd2:	3902      	subs	r1, #2
 8000bd4:	2904      	cmp	r1, #4
 8000bd6:	d812      	bhi.n	8000bfe <ind_led_set_opmode+0x2e>
 8000bd8:	e8df f001 	tbb	[pc, r1]
 8000bdc:	0c090603 	.word	0x0c090603
 8000be0:	0f          	.byte	0x0f
 8000be1:	00          	.byte	0x00
    {
    case BLINK_05HZ:
        led->cur_div = led->div05_hz;
 8000be2:	8a03      	ldrh	r3, [r0, #16]
 8000be4:	8243      	strh	r3, [r0, #18]
        break;
 8000be6:	4770      	bx	lr
    case BLINK_1HZ:
        led->cur_div = led->call_freq;
 8000be8:	88c3      	ldrh	r3, [r0, #6]
 8000bea:	8243      	strh	r3, [r0, #18]
        break;
 8000bec:	4770      	bx	lr
    case BLINK_2HZ:
        led->cur_div = led->div2_hz;
 8000bee:	89c3      	ldrh	r3, [r0, #14]
 8000bf0:	8243      	strh	r3, [r0, #18]
        break;
 8000bf2:	4770      	bx	lr
    case BLINK_4HZ:
        led->cur_div = led->div4_hz;
 8000bf4:	8983      	ldrh	r3, [r0, #12]
 8000bf6:	8243      	strh	r3, [r0, #18]
        break;
 8000bf8:	4770      	bx	lr
    case BLINK_8HZ:
        led->cur_div = led->div8_hz;
 8000bfa:	8943      	ldrh	r3, [r0, #10]
 8000bfc:	8243      	strh	r3, [r0, #18]
    default:
        break;
    }
 8000bfe:	4770      	bx	lr

08000c00 <HAL_TIM_PeriodElapsedCallback>:
uint8_t fault1, fault2, fault3, fault4, loops_op_mode, prev_control_mode;

float cur_debug_set_1, cur_debug_set_2, vel_debug_set_1, vel_debug_set_2, ang_debug_set_1, ang_debug_set_2;

void HAL_TIM_PeriodElapsedCallback(TIM_HandleTypeDef *htim)
{
 8000c00:	b538      	push	{r3, r4, r5, lr}
    if(htim->Instance == TIM3){
 8000c02:	6802      	ldr	r2, [r0, #0]
 8000c04:	4ba3      	ldr	r3, [pc, #652]	@ (8000e94 <HAL_TIM_PeriodElapsedCallback+0x294>)
 8000c06:	429a      	cmp	r2, r3
 8000c08:	d000      	beq.n	8000c0c <HAL_TIM_PeriodElapsedCallback+0xc>
            encoder_reset_iq18(&servo1_g.encoder);
            encoder_reset_iq18(&servo2_g.encoder);
            reset_flag = 0;
        }
    }
 8000c0a:	bd38      	pop	{r3, r4, r5, pc}
        if ((get_crc_success_rate() < 50) && !loops_op_mode){
 8000c0c:	f000 fb0a 	bl	8001224 <get_crc_success_rate>
 8000c10:	2831      	cmp	r0, #49	@ 0x31
 8000c12:	d809      	bhi.n	8000c28 <HAL_TIM_PeriodElapsedCallback+0x28>
 8000c14:	4ba0      	ldr	r3, [pc, #640]	@ (8000e98 <HAL_TIM_PeriodElapsedCallback+0x298>)
 8000c16:	781b      	ldrb	r3, [r3, #0]
 8000c18:	b933      	cbnz	r3, 8000c28 <HAL_TIM_PeriodElapsedCallback+0x28>
            system_enabled = 0;
 8000c1a:	4ba0      	ldr	r3, [pc, #640]	@ (8000e9c <HAL_TIM_PeriodElapsedCallback+0x29c>)
 8000c1c:	2200      	movs	r2, #0
 8000c1e:	701a      	strb	r2, [r3, #0]
            comms_fault_flag = 1;
 8000c20:	4b9f      	ldr	r3, [pc, #636]	@ (8000ea0 <HAL_TIM_PeriodElapsedCallback+0x2a0>)
 8000c22:	2201      	movs	r2, #1
 8000c24:	701a      	strb	r2, [r3, #0]
 8000c26:	e002      	b.n	8000c2e <HAL_TIM_PeriodElapsedCallback+0x2e>
            comms_fault_flag = 0;
 8000c28:	4b9d      	ldr	r3, [pc, #628]	@ (8000ea0 <HAL_TIM_PeriodElapsedCallback+0x2a0>)
 8000c2a:	2200      	movs	r2, #0
 8000c2c:	701a      	strb	r2, [r3, #0]
        if(control_mode != prev_control_mode){
 8000c2e:	4b9d      	ldr	r3, [pc, #628]	@ (8000ea4 <HAL_TIM_PeriodElapsedCallback+0x2a4>)
 8000c30:	781b      	ldrb	r3, [r3, #0]
 8000c32:	b2db      	uxtb	r3, r3
 8000c34:	4a9c      	ldr	r2, [pc, #624]	@ (8000ea8 <HAL_TIM_PeriodElapsedCallback+0x2a8>)
 8000c36:	7812      	ldrb	r2, [r2, #0]
 8000c38:	4293      	cmp	r3, r2
 8000c3a:	d12b      	bne.n	8000c94 <HAL_TIM_PeriodElapsedCallback+0x94>
        if (system_enabled){
 8000c3c:	4b97      	ldr	r3, [pc, #604]	@ (8000e9c <HAL_TIM_PeriodElapsedCallback+0x29c>)
 8000c3e:	781b      	ldrb	r3, [r3, #0]
 8000c40:	2b00      	cmp	r3, #0
 8000c42:	d136      	bne.n	8000cb2 <HAL_TIM_PeriodElapsedCallback+0xb2>
        irq_counter250++;
 8000c44:	4a99      	ldr	r2, [pc, #612]	@ (8000eac <HAL_TIM_PeriodElapsedCallback+0x2ac>)
 8000c46:	8813      	ldrh	r3, [r2, #0]
 8000c48:	3301      	adds	r3, #1
 8000c4a:	b29b      	uxth	r3, r3
 8000c4c:	8013      	strh	r3, [r2, #0]
        if (irq_counter250 == 36)
 8000c4e:	2b24      	cmp	r3, #36	@ 0x24
 8000c50:	d039      	beq.n	8000cc6 <HAL_TIM_PeriodElapsedCallback+0xc6>
        if (irq_counter250 == 72)
 8000c52:	4b96      	ldr	r3, [pc, #600]	@ (8000eac <HAL_TIM_PeriodElapsedCallback+0x2ac>)
 8000c54:	881b      	ldrh	r3, [r3, #0]
 8000c56:	2b48      	cmp	r3, #72	@ 0x48
 8000c58:	d07b      	beq.n	8000d52 <HAL_TIM_PeriodElapsedCallback+0x152>
        if(!system_enabled)
 8000c5a:	4b90      	ldr	r3, [pc, #576]	@ (8000e9c <HAL_TIM_PeriodElapsedCallback+0x29c>)
 8000c5c:	781b      	ldrb	r3, [r3, #0]
 8000c5e:	2b00      	cmp	r3, #0
 8000c60:	f000 80ff 	beq.w	8000e62 <HAL_TIM_PeriodElapsedCallback+0x262>
        if (brg_fault_flag){
 8000c64:	4b92      	ldr	r3, [pc, #584]	@ (8000eb0 <HAL_TIM_PeriodElapsedCallback+0x2b0>)
 8000c66:	781b      	ldrb	r3, [r3, #0]
 8000c68:	2b00      	cmp	r3, #0
 8000c6a:	f040 8109 	bne.w	8000e80 <HAL_TIM_PeriodElapsedCallback+0x280>
        if (comms_fault_flag){
 8000c6e:	4b8c      	ldr	r3, [pc, #560]	@ (8000ea0 <HAL_TIM_PeriodElapsedCallback+0x2a0>)
 8000c70:	781b      	ldrb	r3, [r3, #0]
 8000c72:	2b00      	cmp	r3, #0
 8000c74:	f040 8109 	bne.w	8000e8a <HAL_TIM_PeriodElapsedCallback+0x28a>
        if (reset_flag)
 8000c78:	4b8e      	ldr	r3, [pc, #568]	@ (8000eb4 <HAL_TIM_PeriodElapsedCallback+0x2b4>)
 8000c7a:	781b      	ldrb	r3, [r3, #0]
 8000c7c:	2b00      	cmp	r3, #0
 8000c7e:	d0c4      	beq.n	8000c0a <HAL_TIM_PeriodElapsedCallback+0xa>
            encoder_reset_iq18(&servo1_g.encoder);
 8000c80:	488d      	ldr	r0, [pc, #564]	@ (8000eb8 <HAL_TIM_PeriodElapsedCallback+0x2b8>)
 8000c82:	f7ff fe8b 	bl	800099c <encoder_reset_iq18>
            encoder_reset_iq18(&servo2_g.encoder);
 8000c86:	488d      	ldr	r0, [pc, #564]	@ (8000ebc <HAL_TIM_PeriodElapsedCallback+0x2bc>)
 8000c88:	f7ff fe88 	bl	800099c <encoder_reset_iq18>
            reset_flag = 0;
 8000c8c:	4b89      	ldr	r3, [pc, #548]	@ (8000eb4 <HAL_TIM_PeriodElapsedCallback+0x2b4>)
 8000c8e:	2200      	movs	r2, #0
 8000c90:	701a      	strb	r2, [r3, #0]
 8000c92:	e7ba      	b.n	8000c0a <HAL_TIM_PeriodElapsedCallback+0xa>
            TIM3->CCR1 = 0;
 8000c94:	4b7f      	ldr	r3, [pc, #508]	@ (8000e94 <HAL_TIM_PeriodElapsedCallback+0x294>)
 8000c96:	2200      	movs	r2, #0
 8000c98:	635a      	str	r2, [r3, #52]	@ 0x34
            TIM3->CCR2 = 0;
 8000c9a:	639a      	str	r2, [r3, #56]	@ 0x38
            servo_iq18_reset(&servo1_g);
 8000c9c:	4886      	ldr	r0, [pc, #536]	@ (8000eb8 <HAL_TIM_PeriodElapsedCallback+0x2b8>)
 8000c9e:	f000 ff98 	bl	8001bd2 <servo_iq18_reset>
            servo_iq18_reset(&servo2_g);
 8000ca2:	4886      	ldr	r0, [pc, #536]	@ (8000ebc <HAL_TIM_PeriodElapsedCallback+0x2bc>)
 8000ca4:	f000 ff95 	bl	8001bd2 <servo_iq18_reset>
            prev_control_mode = control_mode;
 8000ca8:	4b7e      	ldr	r3, [pc, #504]	@ (8000ea4 <HAL_TIM_PeriodElapsedCallback+0x2a4>)
 8000caa:	781a      	ldrb	r2, [r3, #0]
 8000cac:	4b7e      	ldr	r3, [pc, #504]	@ (8000ea8 <HAL_TIM_PeriodElapsedCallback+0x2a8>)
 8000cae:	701a      	strb	r2, [r3, #0]
 8000cb0:	e7c4      	b.n	8000c3c <HAL_TIM_PeriodElapsedCallback+0x3c>
            servo_iq18_currentLoop(&servo1_g, current[0]);
 8000cb2:	4c83      	ldr	r4, [pc, #524]	@ (8000ec0 <HAL_TIM_PeriodElapsedCallback+0x2c0>)
 8000cb4:	6821      	ldr	r1, [r4, #0]
 8000cb6:	4880      	ldr	r0, [pc, #512]	@ (8000eb8 <HAL_TIM_PeriodElapsedCallback+0x2b8>)
 8000cb8:	f000 ff2e 	bl	8001b18 <servo_iq18_currentLoop>
            servo_iq18_currentLoop(&servo2_g, current[1]);
 8000cbc:	6861      	ldr	r1, [r4, #4]
 8000cbe:	487f      	ldr	r0, [pc, #508]	@ (8000ebc <HAL_TIM_PeriodElapsedCallback+0x2bc>)
 8000cc0:	f000 ff2a 	bl	8001b18 <servo_iq18_currentLoop>
 8000cc4:	e7be      	b.n	8000c44 <HAL_TIM_PeriodElapsedCallback+0x44>
            encoder_updatePosition_iq18(&servo1_g.encoder);
 8000cc6:	4c7c      	ldr	r4, [pc, #496]	@ (8000eb8 <HAL_TIM_PeriodElapsedCallback+0x2b8>)
 8000cc8:	4620      	mov	r0, r4
 8000cca:	f7ff fe21 	bl	8000910 <encoder_updatePosition_iq18>
            encoder_updateVelocity_qep_iq18(&servo1_g.encoder);
 8000cce:	4620      	mov	r0, r4
 8000cd0:	f7ff fe54 	bl	800097c <encoder_updateVelocity_qep_iq18>
            if (system_enabled){
 8000cd4:	4b71      	ldr	r3, [pc, #452]	@ (8000e9c <HAL_TIM_PeriodElapsedCallback+0x29c>)
 8000cd6:	781b      	ldrb	r3, [r3, #0]
 8000cd8:	bb7b      	cbnz	r3, 8000d3a <HAL_TIM_PeriodElapsedCallback+0x13a>
            fault1 = HAL_GPIO_ReadPin(nFAULT_L1_GPIO_Port, nFAULT_L1_Pin);
 8000cda:	4d7a      	ldr	r5, [pc, #488]	@ (8000ec4 <HAL_TIM_PeriodElapsedCallback+0x2c4>)
 8000cdc:	f44f 4100 	mov.w	r1, #32768	@ 0x8000
 8000ce0:	4628      	mov	r0, r5
 8000ce2:	f002 f983 	bl	8002fec <HAL_GPIO_ReadPin>
 8000ce6:	4c78      	ldr	r4, [pc, #480]	@ (8000ec8 <HAL_TIM_PeriodElapsedCallback+0x2c8>)
 8000ce8:	7020      	strb	r0, [r4, #0]
            fault2 = HAL_GPIO_ReadPin(nFAULT_R1_GPIO_Port, nFAULT_R1_Pin);
 8000cea:	f44f 4180 	mov.w	r1, #16384	@ 0x4000
 8000cee:	4628      	mov	r0, r5
 8000cf0:	f002 f97c 	bl	8002fec <HAL_GPIO_ReadPin>
 8000cf4:	4b75      	ldr	r3, [pc, #468]	@ (8000ecc <HAL_TIM_PeriodElapsedCallback+0x2cc>)
 8000cf6:	7018      	strb	r0, [r3, #0]
            fault3 = HAL_GPIO_ReadPin(nFAULT_L2_GPIO_Port, nFAULT_L2_Pin);
 8000cf8:	f505 6580 	add.w	r5, r5, #1024	@ 0x400
 8000cfc:	2101      	movs	r1, #1
 8000cfe:	4628      	mov	r0, r5
 8000d00:	f002 f974 	bl	8002fec <HAL_GPIO_ReadPin>
 8000d04:	4b72      	ldr	r3, [pc, #456]	@ (8000ed0 <HAL_TIM_PeriodElapsedCallback+0x2d0>)
 8000d06:	7018      	strb	r0, [r3, #0]
            fault4 = HAL_GPIO_ReadPin(nFAULT_R2_GPIO_Port, nFAULT_R2_Pin);
 8000d08:	2102      	movs	r1, #2
 8000d0a:	4628      	mov	r0, r5
 8000d0c:	f002 f96e 	bl	8002fec <HAL_GPIO_ReadPin>
 8000d10:	4b70      	ldr	r3, [pc, #448]	@ (8000ed4 <HAL_TIM_PeriodElapsedCallback+0x2d4>)
 8000d12:	7018      	strb	r0, [r3, #0]
            if(!(fault1 && fault2 && fault3 && fault4)){
 8000d14:	7823      	ldrb	r3, [r4, #0]
 8000d16:	b133      	cbz	r3, 8000d26 <HAL_TIM_PeriodElapsedCallback+0x126>
 8000d18:	4b6c      	ldr	r3, [pc, #432]	@ (8000ecc <HAL_TIM_PeriodElapsedCallback+0x2cc>)
 8000d1a:	781b      	ldrb	r3, [r3, #0]
 8000d1c:	b11b      	cbz	r3, 8000d26 <HAL_TIM_PeriodElapsedCallback+0x126>
 8000d1e:	4b6c      	ldr	r3, [pc, #432]	@ (8000ed0 <HAL_TIM_PeriodElapsedCallback+0x2d0>)
 8000d20:	781b      	ldrb	r3, [r3, #0]
 8000d22:	b103      	cbz	r3, 8000d26 <HAL_TIM_PeriodElapsedCallback+0x126>
 8000d24:	b988      	cbnz	r0, 8000d4a <HAL_TIM_PeriodElapsedCallback+0x14a>
                system_enabled = 0;
 8000d26:	4b5d      	ldr	r3, [pc, #372]	@ (8000e9c <HAL_TIM_PeriodElapsedCallback+0x29c>)
 8000d28:	2200      	movs	r2, #0
 8000d2a:	701a      	strb	r2, [r3, #0]
                brg_fault_flag = 1;
 8000d2c:	4b60      	ldr	r3, [pc, #384]	@ (8000eb0 <HAL_TIM_PeriodElapsedCallback+0x2b0>)
 8000d2e:	2201      	movs	r2, #1
 8000d30:	701a      	strb	r2, [r3, #0]
            ind_led_handler(&ind_led_red);
 8000d32:	4869      	ldr	r0, [pc, #420]	@ (8000ed8 <HAL_TIM_PeriodElapsedCallback+0x2d8>)
 8000d34:	f7ff ff13 	bl	8000b5e <ind_led_handler>
 8000d38:	e78b      	b.n	8000c52 <HAL_TIM_PeriodElapsedCallback+0x52>
                servo_iq18_velocityLoop(&servo1_g);
 8000d3a:	4620      	mov	r0, r4
 8000d3c:	f000 fea6 	bl	8001a8c <servo_iq18_velocityLoop>
                ind_led_set_opmode(&ind_led_red, BLINK_1HZ);
 8000d40:	2103      	movs	r1, #3
 8000d42:	4865      	ldr	r0, [pc, #404]	@ (8000ed8 <HAL_TIM_PeriodElapsedCallback+0x2d8>)
 8000d44:	f7ff ff44 	bl	8000bd0 <ind_led_set_opmode>
 8000d48:	e7c7      	b.n	8000cda <HAL_TIM_PeriodElapsedCallback+0xda>
                brg_fault_flag = 0;
 8000d4a:	4b59      	ldr	r3, [pc, #356]	@ (8000eb0 <HAL_TIM_PeriodElapsedCallback+0x2b0>)
 8000d4c:	2200      	movs	r2, #0
 8000d4e:	701a      	strb	r2, [r3, #0]
 8000d50:	e7ef      	b.n	8000d32 <HAL_TIM_PeriodElapsedCallback+0x132>
            encoder_updatePosition_iq18(&servo2_g.encoder);
 8000d52:	4c5a      	ldr	r4, [pc, #360]	@ (8000ebc <HAL_TIM_PeriodElapsedCallback+0x2bc>)
 8000d54:	4620      	mov	r0, r4
 8000d56:	f7ff fddb 	bl	8000910 <encoder_updatePosition_iq18>
            encoder_updateVelocity_qep_iq18(&servo2_g.encoder);
 8000d5a:	4620      	mov	r0, r4
 8000d5c:	f7ff fe0e 	bl	800097c <encoder_updateVelocity_qep_iq18>
            if (system_enabled){
 8000d60:	4b4e      	ldr	r3, [pc, #312]	@ (8000e9c <HAL_TIM_PeriodElapsedCallback+0x29c>)
 8000d62:	781b      	ldrb	r3, [r3, #0]
 8000d64:	b953      	cbnz	r3, 8000d7c <HAL_TIM_PeriodElapsedCallback+0x17c>
            irq_counter250 = 0;
 8000d66:	4b51      	ldr	r3, [pc, #324]	@ (8000eac <HAL_TIM_PeriodElapsedCallback+0x2ac>)
 8000d68:	2200      	movs	r2, #0
 8000d6a:	801a      	strh	r2, [r3, #0]
            switch (loops_op_mode)
 8000d6c:	4b4a      	ldr	r3, [pc, #296]	@ (8000e98 <HAL_TIM_PeriodElapsedCallback+0x298>)
 8000d6e:	781b      	ldrb	r3, [r3, #0]
 8000d70:	2b03      	cmp	r3, #3
 8000d72:	d872      	bhi.n	8000e5a <HAL_TIM_PeriodElapsedCallback+0x25a>
 8000d74:	e8df f003 	tbb	[pc, r3]
 8000d78:	59402706 	.word	0x59402706
                servo_iq18_velocityLoop(&servo2_g);
 8000d7c:	4620      	mov	r0, r4
 8000d7e:	f000 fe85 	bl	8001a8c <servo_iq18_velocityLoop>
 8000d82:	e7f0      	b.n	8000d66 <HAL_TIM_PeriodElapsedCallback+0x166>
                if(!control_mode){
 8000d84:	4b47      	ldr	r3, [pc, #284]	@ (8000ea4 <HAL_TIM_PeriodElapsedCallback+0x2a4>)
 8000d86:	781b      	ldrb	r3, [r3, #0]
 8000d88:	b973      	cbnz	r3, 8000da8 <HAL_TIM_PeriodElapsedCallback+0x1a8>
                    _iq18 comms_vel1 = (_iq18)data_ctrl.velocity_1 << 9;
 8000d8a:	4b54      	ldr	r3, [pc, #336]	@ (8000edc <HAL_TIM_PeriodElapsedCallback+0x2dc>)
 8000d8c:	f9b3 1005 	ldrsh.w	r1, [r3, #5]
                    _iq18 comms_vel2 = (_iq18)data_ctrl.velocity_2 << 9;
 8000d90:	f9b3 400b 	ldrsh.w	r4, [r3, #11]
 8000d94:	0264      	lsls	r4, r4, #9
                    servo_iq18_controlVelocity(&servo1_g, comms_vel1);
 8000d96:	0249      	lsls	r1, r1, #9
 8000d98:	4847      	ldr	r0, [pc, #284]	@ (8000eb8 <HAL_TIM_PeriodElapsedCallback+0x2b8>)
 8000d9a:	f000 feee 	bl	8001b7a <servo_iq18_controlVelocity>
                    servo_iq18_controlVelocity(&servo2_g, comms_vel2);
 8000d9e:	4621      	mov	r1, r4
 8000da0:	4846      	ldr	r0, [pc, #280]	@ (8000ebc <HAL_TIM_PeriodElapsedCallback+0x2bc>)
 8000da2:	f000 feea 	bl	8001b7a <servo_iq18_controlVelocity>
 8000da6:	e758      	b.n	8000c5a <HAL_TIM_PeriodElapsedCallback+0x5a>
                    _iq18 comms_ang1 = (_iq18)data_ctrl.angle_1 << 8;
 8000da8:	4b4c      	ldr	r3, [pc, #304]	@ (8000edc <HAL_TIM_PeriodElapsedCallback+0x2dc>)
 8000daa:	f8d3 1001 	ldr.w	r1, [r3, #1]
                    _iq18 comms_ang2 = (_iq18)data_ctrl.angle_2 << 8;
 8000dae:	f8d3 4007 	ldr.w	r4, [r3, #7]
 8000db2:	0224      	lsls	r4, r4, #8
                    servo_iq18_controlPosition(&servo1_g, comms_ang1);
 8000db4:	0209      	lsls	r1, r1, #8
 8000db6:	4840      	ldr	r0, [pc, #256]	@ (8000eb8 <HAL_TIM_PeriodElapsedCallback+0x2b8>)
 8000db8:	f000 fed5 	bl	8001b66 <servo_iq18_controlPosition>
                    servo_iq18_controlPosition(&servo2_g, comms_ang2);
 8000dbc:	4621      	mov	r1, r4
 8000dbe:	483f      	ldr	r0, [pc, #252]	@ (8000ebc <HAL_TIM_PeriodElapsedCallback+0x2bc>)
 8000dc0:	f000 fed1 	bl	8001b66 <servo_iq18_controlPosition>
 8000dc4:	e749      	b.n	8000c5a <HAL_TIM_PeriodElapsedCallback+0x5a>
                servo_iq18_controlCurrent(&servo1_g, _IQ18(cur_debug_set_1));
 8000dc6:	f04f 4191 	mov.w	r1, #1216348160	@ 0x48800000
 8000dca:	4b45      	ldr	r3, [pc, #276]	@ (8000ee0 <HAL_TIM_PeriodElapsedCallback+0x2e0>)
 8000dcc:	6818      	ldr	r0, [r3, #0]
 8000dce:	f7ff f99d 	bl	800010c <__aeabi_fmul>
 8000dd2:	f7ff faeb 	bl	80003ac <__aeabi_f2iz>
 8000dd6:	4601      	mov	r1, r0
 8000dd8:	4837      	ldr	r0, [pc, #220]	@ (8000eb8 <HAL_TIM_PeriodElapsedCallback+0x2b8>)
 8000dda:	f000 fee3 	bl	8001ba4 <servo_iq18_controlCurrent>
                servo_iq18_controlCurrent(&servo2_g, _IQ18(cur_debug_set_2));
 8000dde:	f04f 4191 	mov.w	r1, #1216348160	@ 0x48800000
 8000de2:	4b40      	ldr	r3, [pc, #256]	@ (8000ee4 <HAL_TIM_PeriodElapsedCallback+0x2e4>)
 8000de4:	6818      	ldr	r0, [r3, #0]
 8000de6:	f7ff f991 	bl	800010c <__aeabi_fmul>
 8000dea:	f7ff fadf 	bl	80003ac <__aeabi_f2iz>
 8000dee:	4601      	mov	r1, r0
 8000df0:	4832      	ldr	r0, [pc, #200]	@ (8000ebc <HAL_TIM_PeriodElapsedCallback+0x2bc>)
 8000df2:	f000 fed7 	bl	8001ba4 <servo_iq18_controlCurrent>
                break;
 8000df6:	e730      	b.n	8000c5a <HAL_TIM_PeriodElapsedCallback+0x5a>
                servo_iq18_controlVelocity(&servo1_g, _IQ18(vel_debug_set_1));
 8000df8:	f04f 4191 	mov.w	r1, #1216348160	@ 0x48800000
 8000dfc:	4b3a      	ldr	r3, [pc, #232]	@ (8000ee8 <HAL_TIM_PeriodElapsedCallback+0x2e8>)
 8000dfe:	6818      	ldr	r0, [r3, #0]
 8000e00:	f7ff f984 	bl	800010c <__aeabi_fmul>
 8000e04:	f7ff fad2 	bl	80003ac <__aeabi_f2iz>
 8000e08:	4601      	mov	r1, r0
 8000e0a:	482b      	ldr	r0, [pc, #172]	@ (8000eb8 <HAL_TIM_PeriodElapsedCallback+0x2b8>)
 8000e0c:	f000 feb5 	bl	8001b7a <servo_iq18_controlVelocity>
                servo_iq18_controlVelocity(&servo2_g, _IQ18(vel_debug_set_2));
 8000e10:	f04f 4191 	mov.w	r1, #1216348160	@ 0x48800000
 8000e14:	4b35      	ldr	r3, [pc, #212]	@ (8000eec <HAL_TIM_PeriodElapsedCallback+0x2ec>)
 8000e16:	6818      	ldr	r0, [r3, #0]
 8000e18:	f7ff f978 	bl	800010c <__aeabi_fmul>
 8000e1c:	f7ff fac6 	bl	80003ac <__aeabi_f2iz>
 8000e20:	4601      	mov	r1, r0
 8000e22:	4826      	ldr	r0, [pc, #152]	@ (8000ebc <HAL_TIM_PeriodElapsedCallback+0x2bc>)
 8000e24:	f000 fea9 	bl	8001b7a <servo_iq18_controlVelocity>
                break;
 8000e28:	e717      	b.n	8000c5a <HAL_TIM_PeriodElapsedCallback+0x5a>
                servo_iq18_controlPosition(&servo1_g, _IQ18(ang_debug_set_1));
 8000e2a:	f04f 4191 	mov.w	r1, #1216348160	@ 0x48800000
 8000e2e:	4b30      	ldr	r3, [pc, #192]	@ (8000ef0 <HAL_TIM_PeriodElapsedCallback+0x2f0>)
 8000e30:	6818      	ldr	r0, [r3, #0]
 8000e32:	f7ff f96b 	bl	800010c <__aeabi_fmul>
 8000e36:	f7ff fab9 	bl	80003ac <__aeabi_f2iz>
 8000e3a:	4601      	mov	r1, r0
 8000e3c:	481e      	ldr	r0, [pc, #120]	@ (8000eb8 <HAL_TIM_PeriodElapsedCallback+0x2b8>)
 8000e3e:	f000 fe92 	bl	8001b66 <servo_iq18_controlPosition>
                servo_iq18_controlPosition(&servo2_g, _IQ18(ang_debug_set_2));
 8000e42:	f04f 4191 	mov.w	r1, #1216348160	@ 0x48800000
 8000e46:	4b2b      	ldr	r3, [pc, #172]	@ (8000ef4 <HAL_TIM_PeriodElapsedCallback+0x2f4>)
 8000e48:	6818      	ldr	r0, [r3, #0]
 8000e4a:	f7ff f95f 	bl	800010c <__aeabi_fmul>
 8000e4e:	f7ff faad 	bl	80003ac <__aeabi_f2iz>
 8000e52:	4601      	mov	r1, r0
 8000e54:	4819      	ldr	r0, [pc, #100]	@ (8000ebc <HAL_TIM_PeriodElapsedCallback+0x2bc>)
 8000e56:	f000 fe86 	bl	8001b66 <servo_iq18_controlPosition>
                system_enabled = 0;
 8000e5a:	4b10      	ldr	r3, [pc, #64]	@ (8000e9c <HAL_TIM_PeriodElapsedCallback+0x29c>)
 8000e5c:	2200      	movs	r2, #0
 8000e5e:	701a      	strb	r2, [r3, #0]
                break;
 8000e60:	e6fb      	b.n	8000c5a <HAL_TIM_PeriodElapsedCallback+0x5a>
            TIM3->CCR1 = 0;
 8000e62:	4b0c      	ldr	r3, [pc, #48]	@ (8000e94 <HAL_TIM_PeriodElapsedCallback+0x294>)
 8000e64:	2200      	movs	r2, #0
 8000e66:	635a      	str	r2, [r3, #52]	@ 0x34
            TIM3->CCR2 = 0;
 8000e68:	639a      	str	r2, [r3, #56]	@ 0x38
            servo_iq18_reset(&servo1_g);
 8000e6a:	4813      	ldr	r0, [pc, #76]	@ (8000eb8 <HAL_TIM_PeriodElapsedCallback+0x2b8>)
 8000e6c:	f000 feb1 	bl	8001bd2 <servo_iq18_reset>
            servo_iq18_reset(&servo2_g);
 8000e70:	4812      	ldr	r0, [pc, #72]	@ (8000ebc <HAL_TIM_PeriodElapsedCallback+0x2bc>)
 8000e72:	f000 feae 	bl	8001bd2 <servo_iq18_reset>
            ind_led_set_opmode(&ind_led_red, BLINK_05HZ);
 8000e76:	2102      	movs	r1, #2
 8000e78:	4817      	ldr	r0, [pc, #92]	@ (8000ed8 <HAL_TIM_PeriodElapsedCallback+0x2d8>)
 8000e7a:	f7ff fea9 	bl	8000bd0 <ind_led_set_opmode>
 8000e7e:	e6f1      	b.n	8000c64 <HAL_TIM_PeriodElapsedCallback+0x64>
            ind_led_set_opmode(&ind_led_red, BLINK_8HZ);
 8000e80:	2106      	movs	r1, #6
 8000e82:	4815      	ldr	r0, [pc, #84]	@ (8000ed8 <HAL_TIM_PeriodElapsedCallback+0x2d8>)
 8000e84:	f7ff fea4 	bl	8000bd0 <ind_led_set_opmode>
 8000e88:	e6f1      	b.n	8000c6e <HAL_TIM_PeriodElapsedCallback+0x6e>
            ind_led_set_opmode(&ind_led_red, BLINK_4HZ);
 8000e8a:	2105      	movs	r1, #5
 8000e8c:	4812      	ldr	r0, [pc, #72]	@ (8000ed8 <HAL_TIM_PeriodElapsedCallback+0x2d8>)
 8000e8e:	f7ff fe9f 	bl	8000bd0 <ind_led_set_opmode>
 8000e92:	e6f1      	b.n	8000c78 <HAL_TIM_PeriodElapsedCallback+0x78>
 8000e94:	40000400 	.word	0x40000400
 8000e98:	20000191 	.word	0x20000191
 8000e9c:	2000015d 	.word	0x2000015d
 8000ea0:	20000159 	.word	0x20000159
 8000ea4:	2000015c 	.word	0x2000015c
 8000ea8:	20000190 	.word	0x20000190
 8000eac:	20000196 	.word	0x20000196
 8000eb0:	2000015a 	.word	0x2000015a
 8000eb4:	2000015b 	.word	0x2000015b
 8000eb8:	200002b0 	.word	0x200002b0
 8000ebc:	20000198 	.word	0x20000198
 8000ec0:	2000014c 	.word	0x2000014c
 8000ec4:	40010c00 	.word	0x40010c00
 8000ec8:	20000195 	.word	0x20000195
 8000ecc:	20000194 	.word	0x20000194
 8000ed0:	20000193 	.word	0x20000193
 8000ed4:	20000192 	.word	0x20000192
 8000ed8:	20000160 	.word	0x20000160
 8000edc:	200003e4 	.word	0x200003e4
 8000ee0:	2000018c 	.word	0x2000018c
 8000ee4:	20000188 	.word	0x20000188
 8000ee8:	20000184 	.word	0x20000184
 8000eec:	20000180 	.word	0x20000180
 8000ef0:	2000017c 	.word	0x2000017c
 8000ef4:	20000178 	.word	0x20000178

08000ef8 <Error_Handler>:
  \details Disables IRQ interrupts by setting the I-bit in the CPSR.
           Can only be executed in Privileged modes.
 */
__STATIC_FORCEINLINE void __disable_irq(void)
{
  __ASM volatile ("cpsid i" : : : "memory");
 8000ef8:	b672      	cpsid	i
void Error_Handler(void)
{
  /* USER CODE BEGIN Error_Handler_Debug */
  /* User can add his own implementation to report the HAL error return state */
  __disable_irq();
  while (1)
 8000efa:	e7fe      	b.n	8000efa <Error_Handler+0x2>

08000efc <SystemClock_Config>:
{
 8000efc:	b500      	push	{lr}
 8000efe:	b095      	sub	sp, #84	@ 0x54
  RCC_OscInitTypeDef RCC_OscInitStruct = {0};
 8000f00:	2228      	movs	r2, #40	@ 0x28
 8000f02:	2100      	movs	r1, #0
 8000f04:	eb0d 0002 	add.w	r0, sp, r2
 8000f08:	f004 f954 	bl	80051b4 <memset>
  RCC_ClkInitTypeDef RCC_ClkInitStruct = {0};
 8000f0c:	2300      	movs	r3, #0
 8000f0e:	9305      	str	r3, [sp, #20]
 8000f10:	9306      	str	r3, [sp, #24]
 8000f12:	9307      	str	r3, [sp, #28]
 8000f14:	9308      	str	r3, [sp, #32]
 8000f16:	9309      	str	r3, [sp, #36]	@ 0x24
  RCC_PeriphCLKInitTypeDef PeriphClkInit = {0};
 8000f18:	9301      	str	r3, [sp, #4]
 8000f1a:	9302      	str	r3, [sp, #8]
 8000f1c:	9303      	str	r3, [sp, #12]
 8000f1e:	9304      	str	r3, [sp, #16]
  RCC_OscInitStruct.OscillatorType = RCC_OSCILLATORTYPE_HSE;
 8000f20:	2201      	movs	r2, #1
 8000f22:	920a      	str	r2, [sp, #40]	@ 0x28
  RCC_OscInitStruct.HSEState = RCC_HSE_ON;
 8000f24:	f44f 3380 	mov.w	r3, #65536	@ 0x10000
 8000f28:	930b      	str	r3, [sp, #44]	@ 0x2c
  RCC_OscInitStruct.HSIState = RCC_HSI_ON;
 8000f2a:	920e      	str	r2, [sp, #56]	@ 0x38
  RCC_OscInitStruct.PLL.PLLState = RCC_PLL_ON;
 8000f2c:	2202      	movs	r2, #2
 8000f2e:	9211      	str	r2, [sp, #68]	@ 0x44
  RCC_OscInitStruct.PLL.PLLSource = RCC_PLLSOURCE_HSE;
 8000f30:	9312      	str	r3, [sp, #72]	@ 0x48
  RCC_OscInitStruct.PLL.PLLMUL = RCC_PLL_MUL9;
 8000f32:	f44f 13e0 	mov.w	r3, #1835008	@ 0x1c0000
 8000f36:	9313      	str	r3, [sp, #76]	@ 0x4c
  if (HAL_RCC_OscConfig(&RCC_OscInitStruct) != HAL_OK)
 8000f38:	a80a      	add	r0, sp, #40	@ 0x28
 8000f3a:	f002 f87b 	bl	8003034 <HAL_RCC_OscConfig>
 8000f3e:	b9c8      	cbnz	r0, 8000f74 <SystemClock_Config+0x78>
  RCC_ClkInitStruct.ClockType = RCC_CLOCKTYPE_HCLK|RCC_CLOCKTYPE_SYSCLK
 8000f40:	230f      	movs	r3, #15
 8000f42:	9305      	str	r3, [sp, #20]
  RCC_ClkInitStruct.SYSCLKSource = RCC_SYSCLKSOURCE_PLLCLK;
 8000f44:	2102      	movs	r1, #2
 8000f46:	9106      	str	r1, [sp, #24]
  RCC_ClkInitStruct.AHBCLKDivider = RCC_SYSCLK_DIV1;
 8000f48:	2300      	movs	r3, #0
 8000f4a:	9307      	str	r3, [sp, #28]
  RCC_ClkInitStruct.APB1CLKDivider = RCC_HCLK_DIV2;
 8000f4c:	f44f 6280 	mov.w	r2, #1024	@ 0x400
 8000f50:	9208      	str	r2, [sp, #32]
  RCC_ClkInitStruct.APB2CLKDivider = RCC_HCLK_DIV1;
 8000f52:	9309      	str	r3, [sp, #36]	@ 0x24
  if (HAL_RCC_ClockConfig(&RCC_ClkInitStruct, FLASH_LATENCY_2) != HAL_OK)
 8000f54:	a805      	add	r0, sp, #20
 8000f56:	f002 fa9f 	bl	8003498 <HAL_RCC_ClockConfig>
 8000f5a:	b968      	cbnz	r0, 8000f78 <SystemClock_Config+0x7c>
  PeriphClkInit.PeriphClockSelection = RCC_PERIPHCLK_ADC;
 8000f5c:	2302      	movs	r3, #2
 8000f5e:	9301      	str	r3, [sp, #4]
  PeriphClkInit.AdcClockSelection = RCC_ADCPCLK2_DIV6;
 8000f60:	f44f 4300 	mov.w	r3, #32768	@ 0x8000
 8000f64:	9303      	str	r3, [sp, #12]
  if (HAL_RCCEx_PeriphCLKConfig(&PeriphClkInit) != HAL_OK)
 8000f66:	a801      	add	r0, sp, #4
 8000f68:	f002 fb72 	bl	8003650 <HAL_RCCEx_PeriphCLKConfig>
 8000f6c:	b930      	cbnz	r0, 8000f7c <SystemClock_Config+0x80>
}
 8000f6e:	b015      	add	sp, #84	@ 0x54
 8000f70:	f85d fb04 	ldr.w	pc, [sp], #4
    Error_Handler();
 8000f74:	f7ff ffc0 	bl	8000ef8 <Error_Handler>
    Error_Handler();
 8000f78:	f7ff ffbe 	bl	8000ef8 <Error_Handler>
    Error_Handler();
 8000f7c:	f7ff ffbc 	bl	8000ef8 <Error_Handler>

08000f80 <main>:
{
 8000f80:	b580      	push	{r7, lr}
 8000f82:	b082      	sub	sp, #8
  HAL_Init();
 8000f84:	f001 f9f4 	bl	8002370 <HAL_Init>
  SystemClock_Config();
 8000f88:	f7ff ffb8 	bl	8000efc <SystemClock_Config>
  MX_GPIO_Init();
 8000f8c:	f7ff fd16 	bl	80009bc <MX_GPIO_Init>
  MX_DMA_Init();
 8000f90:	f7ff fb8e 	bl	80006b0 <MX_DMA_Init>
  MX_ADC1_Init();
 8000f94:	f7ff fa50 	bl	8000438 <MX_ADC1_Init>
  MX_SPI1_Init();
 8000f98:	f000 fe2a 	bl	8001bf0 <MX_SPI1_Init>
  MX_TIM1_Init();
 8000f9c:	f000 ff3e 	bl	8001e1c <MX_TIM1_Init>
  MX_TIM2_Init();
 8000fa0:	f000 ff72 	bl	8001e88 <MX_TIM2_Init>
  MX_TIM3_Init();
 8000fa4:	f001 f8d4 	bl	8002150 <MX_TIM3_Init>
  MX_TIM4_Init();
 8000fa8:	f000 ffa0 	bl	8001eec <MX_TIM4_Init>
  MX_USART1_UART_Init();
 8000fac:	f001 f91c 	bl	80021e8 <MX_USART1_UART_Init>
  TXOFF; // Turn off transceiver during init
 8000fb0:	4c48      	ldr	r4, [pc, #288]	@ (80010d4 <main+0x154>)
 8000fb2:	2200      	movs	r2, #0
 8000fb4:	2120      	movs	r1, #32
 8000fb6:	4620      	mov	r0, r4
 8000fb8:	f002 f81f 	bl	8002ffa <HAL_GPIO_WritePin>
  HAL_GPIO_WritePin(SPI1_SS1_GPIO_Port, SPI1_SS1_Pin, GPIO_PIN_SET);
 8000fbc:	2201      	movs	r2, #1
 8000fbe:	2110      	movs	r1, #16
 8000fc0:	4845      	ldr	r0, [pc, #276]	@ (80010d8 <main+0x158>)
 8000fc2:	f002 f81a 	bl	8002ffa <HAL_GPIO_WritePin>
  HAL_GPIO_WritePin(SPI1_SS2_GPIO_Port, SPI1_SS2_Pin, GPIO_PIN_SET);
 8000fc6:	4d45      	ldr	r5, [pc, #276]	@ (80010dc <main+0x15c>)
 8000fc8:	2201      	movs	r2, #1
 8000fca:	2110      	movs	r1, #16
 8000fcc:	4628      	mov	r0, r5
 8000fce:	f002 f814 	bl	8002ffa <HAL_GPIO_WritePin>
  HAL_GPIO_WritePin(SPI1_SS3_GPIO_Port, SPI1_SS3_Pin, GPIO_PIN_SET);
 8000fd2:	2201      	movs	r2, #1
 8000fd4:	2120      	movs	r1, #32
 8000fd6:	4628      	mov	r0, r5
 8000fd8:	f002 f80f 	bl	8002ffa <HAL_GPIO_WritePin>
  HAL_GPIO_WritePin(SPI1_SS4_GPIO_Port, SPI1_SS4_Pin, GPIO_PIN_SET);
 8000fdc:	2201      	movs	r2, #1
 8000fde:	4611      	mov	r1, r2
 8000fe0:	4620      	mov	r0, r4
 8000fe2:	f002 f80a 	bl	8002ffa <HAL_GPIO_WritePin>
  HAL_Delay(1);
 8000fe6:	2001      	movs	r0, #1
 8000fe8:	f001 f9e6 	bl	80023b8 <HAL_Delay>
  HAL_GPIO_WritePin(BRIDGESLEEP1_GPIO_Port, BRIDGESLEEP1_Pin, GPIO_PIN_SET);
 8000fec:	2201      	movs	r2, #1
 8000fee:	2104      	movs	r1, #4
 8000ff0:	4628      	mov	r0, r5
 8000ff2:	f002 f802 	bl	8002ffa <HAL_GPIO_WritePin>
  HAL_GPIO_WritePin(BRIDGESLEEP2_GPIO_Port, BRIDGESLEEP2_Pin, GPIO_PIN_SET);
 8000ff6:	2201      	movs	r2, #1
 8000ff8:	f44f 5100 	mov.w	r1, #8192	@ 0x2000
 8000ffc:	4620      	mov	r0, r4
 8000ffe:	f001 fffc 	bl	8002ffa <HAL_GPIO_WritePin>
  HAL_GPIO_WritePin(HIZ1_GPIO_Port, HIZ1_Pin, GPIO_PIN_SET);
 8001002:	2201      	movs	r2, #1
 8001004:	2104      	movs	r1, #4
 8001006:	4620      	mov	r0, r4
 8001008:	f001 fff7 	bl	8002ffa <HAL_GPIO_WritePin>
  HAL_GPIO_WritePin(HIZ2_GPIO_Port, HIZ2_Pin, GPIO_PIN_SET);
 800100c:	2201      	movs	r2, #1
 800100e:	f44f 6100 	mov.w	r1, #2048	@ 0x800
 8001012:	4620      	mov	r0, r4
 8001014:	f001 fff1 	bl	8002ffa <HAL_GPIO_WritePin>
  HAL_Delay(1);
 8001018:	2001      	movs	r0, #1
 800101a:	f001 f9cd 	bl	80023b8 <HAL_Delay>
  drv8106_reset_blocking(&drv_l1_dd6);
 800101e:	f8df 80c0 	ldr.w	r8, [pc, #192]	@ 80010e0 <main+0x160>
 8001022:	4640      	mov	r0, r8
 8001024:	f7ff fc0b 	bl	800083e <drv8106_reset_blocking>
  drv8106_reset_blocking(&drv_r1_dd7);
 8001028:	4f2e      	ldr	r7, [pc, #184]	@ (80010e4 <main+0x164>)
 800102a:	4638      	mov	r0, r7
 800102c:	f7ff fc07 	bl	800083e <drv8106_reset_blocking>
  drv8106_reset_blocking(&drv_l2_dd8);
 8001030:	4e2d      	ldr	r6, [pc, #180]	@ (80010e8 <main+0x168>)
 8001032:	4630      	mov	r0, r6
 8001034:	f7ff fc03 	bl	800083e <drv8106_reset_blocking>
  drv8106_reset_blocking(&drv_r2_dd9);
 8001038:	4d2c      	ldr	r5, [pc, #176]	@ (80010ec <main+0x16c>)
 800103a:	4628      	mov	r0, r5
 800103c:	f7ff fbff 	bl	800083e <drv8106_reset_blocking>
  drv8106_clear_fault_blocking(&drv_l1_dd6);
 8001040:	4640      	mov	r0, r8
 8001042:	f7ff fc3c 	bl	80008be <drv8106_clear_fault_blocking>
  drv8106_clear_fault_blocking(&drv_r1_dd7);
 8001046:	4638      	mov	r0, r7
 8001048:	f7ff fc39 	bl	80008be <drv8106_clear_fault_blocking>
  drv8106_clear_fault_blocking(&drv_l2_dd8);
 800104c:	4630      	mov	r0, r6
 800104e:	f7ff fc36 	bl	80008be <drv8106_clear_fault_blocking>
  drv8106_clear_fault_blocking(&drv_r2_dd9);
 8001052:	4628      	mov	r0, r5
 8001054:	f7ff fc33 	bl	80008be <drv8106_clear_fault_blocking>
  drv8106_read_all_blocking(&drv_l1_dd6);
 8001058:	4640      	mov	r0, r8
 800105a:	f7ff fba0 	bl	800079e <drv8106_read_all_blocking>
  drv8106_read_all_blocking(&drv_r1_dd7);
 800105e:	4638      	mov	r0, r7
 8001060:	f7ff fb9d 	bl	800079e <drv8106_read_all_blocking>
  drv8106_read_all_blocking(&drv_l2_dd8);
 8001064:	4630      	mov	r0, r6
 8001066:	f7ff fb9a 	bl	800079e <drv8106_read_all_blocking>
  drv8106_read_all_blocking(&drv_r2_dd9);
 800106a:	4628      	mov	r0, r5
 800106c:	f7ff fb97 	bl	800079e <drv8106_read_all_blocking>
  drv8106_CSA_enable_g10_blocking(&drv_l1_dd6);
 8001070:	4640      	mov	r0, r8
 8001072:	f7ff fc1e 	bl	80008b2 <drv8106_CSA_enable_g10_blocking>
  drv8106_CSA_enable_g10_blocking(&drv_r1_dd7);
 8001076:	4638      	mov	r0, r7
 8001078:	f7ff fc1b 	bl	80008b2 <drv8106_CSA_enable_g10_blocking>
  drv8106_CSA_enable_g10_blocking(&drv_l2_dd8);
 800107c:	4630      	mov	r0, r6
 800107e:	f7ff fc18 	bl	80008b2 <drv8106_CSA_enable_g10_blocking>
  drv8106_CSA_enable_g10_blocking(&drv_r2_dd9);
 8001082:	4628      	mov	r0, r5
 8001084:	f7ff fc15 	bl	80008b2 <drv8106_CSA_enable_g10_blocking>
  drv8106_set_fault_autorecovery_blocking(&drv_l1_dd6);
 8001088:	4640      	mov	r0, r8
 800108a:	f7ff fc1e 	bl	80008ca <drv8106_set_fault_autorecovery_blocking>
  drv8106_set_fault_autorecovery_blocking(&drv_r1_dd7);
 800108e:	4638      	mov	r0, r7
 8001090:	f7ff fc1b 	bl	80008ca <drv8106_set_fault_autorecovery_blocking>
  drv8106_set_fault_autorecovery_blocking(&drv_l2_dd8);
 8001094:	4630      	mov	r0, r6
 8001096:	f7ff fc18 	bl	80008ca <drv8106_set_fault_autorecovery_blocking>
  drv8106_set_fault_autorecovery_blocking(&drv_r2_dd9);
 800109a:	4628      	mov	r0, r5
 800109c:	f7ff fc15 	bl	80008ca <drv8106_set_fault_autorecovery_blocking>
  drv8106_Enable_blocking(&drv_l1_dd6);
 80010a0:	4640      	mov	r0, r8
 80010a2:	f7ff fc00 	bl	80008a6 <drv8106_Enable_blocking>
  drv8106_Enable_blocking(&drv_r1_dd7);
 80010a6:	4638      	mov	r0, r7
 80010a8:	f7ff fbfd 	bl	80008a6 <drv8106_Enable_blocking>
  drv8106_Enable_blocking(&drv_l2_dd8);
 80010ac:	4630      	mov	r0, r6
 80010ae:	f7ff fbfa 	bl	80008a6 <drv8106_Enable_blocking>
  drv8106_Enable_blocking(&drv_r2_dd9);
 80010b2:	4628      	mov	r0, r5
 80010b4:	f7ff fbf7 	bl	80008a6 <drv8106_Enable_blocking>
  HAL_Delay(1);
 80010b8:	2001      	movs	r0, #1
 80010ba:	f001 f97d 	bl	80023b8 <HAL_Delay>
  ind_led_init(&ind_led_red, IND_LED_GPIO_Port, IND_LED_Pin, 250, 0);
 80010be:	2300      	movs	r3, #0
 80010c0:	9300      	str	r3, [sp, #0]
 80010c2:	23fa      	movs	r3, #250	@ 0xfa
 80010c4:	2210      	movs	r2, #16
 80010c6:	4621      	mov	r1, r4
 80010c8:	4809      	ldr	r0, [pc, #36]	@ (80010f0 <main+0x170>)
 80010ca:	f7ff fd21 	bl	8000b10 <ind_led_init>
  init_mtr_ctrl();
 80010ce:	f000 f811 	bl	80010f4 <init_mtr_ctrl>
  while (1)
 80010d2:	e7fe      	b.n	80010d2 <main+0x152>
 80010d4:	40010c00 	.word	0x40010c00
 80010d8:	40010800 	.word	0x40010800
 80010dc:	40011000 	.word	0x40011000
 80010e0:	20000078 	.word	0x20000078
 80010e4:	20000054 	.word	0x20000054
 80010e8:	20000030 	.word	0x20000030
 80010ec:	2000000c 	.word	0x2000000c
 80010f0:	20000160 	.word	0x20000160

080010f4 <init_mtr_ctrl>:
#include "main_init.h"

EMA_iq18 IC_filter;

void init_mtr_ctrl()
{
 80010f4:	b508      	push	{r3, lr}
    // Disable system flag before init
    system_enabled = 0;
 80010f6:	4b18      	ldr	r3, [pc, #96]	@ (8001158 <init_mtr_ctrl+0x64>)
 80010f8:	2200      	movs	r2, #0
 80010fa:	701a      	strb	r2, [r3, #0]

    // Init servo with parameters from settings.h
    servo_init();
 80010fc:	f000 faf0 	bl	80016e0 <servo_init>

    // Reset servos
    servo_iq18_reset(&servo1_g);
 8001100:	4816      	ldr	r0, [pc, #88]	@ (800115c <init_mtr_ctrl+0x68>)
 8001102:	f000 fd66 	bl	8001bd2 <servo_iq18_reset>
    servo_iq18_reset(&servo2_g);
 8001106:	4816      	ldr	r0, [pc, #88]	@ (8001160 <init_mtr_ctrl+0x6c>)
 8001108:	f000 fd63 	bl	8001bd2 <servo_iq18_reset>

    // Init timers etc and adc for current sensing
    servo_periph_init();
 800110c:	f000 faaa 	bl	8001664 <servo_periph_init>
    adc_cur_init();
 8001110:	f7ff fa1c 	bl	800054c <adc_cur_init>

    // Var that stores which axis servo this is (configured in settings.h)
    axis_define = S_NUM;
 8001114:	4b13      	ldr	r3, [pc, #76]	@ (8001164 <init_mtr_ctrl+0x70>)
 8001116:	2201      	movs	r2, #1
 8001118:	701a      	strb	r2, [r3, #0]

    // Fill ID fields of feedback packets accordingly to axis define
    if (axis_define == 1){ // if front axis
 800111a:	781b      	ldrb	r3, [r3, #0]
 800111c:	b2db      	uxtb	r3, r3
 800111e:	4293      	cmp	r3, r2
 8001120:	d013      	beq.n	800114a <init_mtr_ctrl+0x56>
        data_encoder.ID = ID_DATA_ENC_S1;
        data_current.ID = ID_DATA_CUR_S1;
    } else { // if rear axis
        data_encoder.ID = ID_DATA_ENC_S2;
 8001122:	4b11      	ldr	r3, [pc, #68]	@ (8001168 <init_mtr_ctrl+0x74>)
 8001124:	2251      	movs	r2, #81	@ 0x51
 8001126:	701a      	strb	r2, [r3, #0]
        data_current.ID = ID_DATA_CUR_S2;
 8001128:	4b10      	ldr	r3, [pc, #64]	@ (800116c <init_mtr_ctrl+0x78>)
 800112a:	2253      	movs	r2, #83	@ 0x53
 800112c:	701a      	strb	r2, [r3, #0]
    }

    TXOFF; // Turn of transmission just in case
 800112e:	2200      	movs	r2, #0
 8001130:	2120      	movs	r1, #32
 8001132:	480f      	ldr	r0, [pc, #60]	@ (8001170 <init_mtr_ctrl+0x7c>)
 8001134:	f001 ff61 	bl	8002ffa <HAL_GPIO_WritePin>
    expected_packet = SYNC; // States that we are waiting for SYNC packet
 8001138:	4b0e      	ldr	r3, [pc, #56]	@ (8001174 <init_mtr_ctrl+0x80>)
 800113a:	2200      	movs	r2, #0
 800113c:	701a      	strb	r2, [r3, #0]
    HAL_UART_Receive_DMA(&huart1, (uint8_t*)&packet_sync, S_SYNC); // start receiving sync packet (should happen before tx start on master)
 800113e:	2202      	movs	r2, #2
 8001140:	490d      	ldr	r1, [pc, #52]	@ (8001178 <init_mtr_ctrl+0x84>)
 8001142:	480e      	ldr	r0, [pc, #56]	@ (800117c <init_mtr_ctrl+0x88>)
 8001144:	f003 ffac 	bl	80050a0 <HAL_UART_Receive_DMA>
    
}
 8001148:	bd08      	pop	{r3, pc}
        data_encoder.ID = ID_DATA_ENC_S1;
 800114a:	4b07      	ldr	r3, [pc, #28]	@ (8001168 <init_mtr_ctrl+0x74>)
 800114c:	2250      	movs	r2, #80	@ 0x50
 800114e:	701a      	strb	r2, [r3, #0]
        data_current.ID = ID_DATA_CUR_S1;
 8001150:	4b06      	ldr	r3, [pc, #24]	@ (800116c <init_mtr_ctrl+0x78>)
 8001152:	2252      	movs	r2, #82	@ 0x52
 8001154:	701a      	strb	r2, [r3, #0]
 8001156:	e7ea      	b.n	800112e <init_mtr_ctrl+0x3a>
 8001158:	2000015d 	.word	0x2000015d
 800115c:	200002b0 	.word	0x200002b0
 8001160:	20000198 	.word	0x20000198
 8001164:	20000158 	.word	0x20000158
 8001168:	200003d4 	.word	0x200003d4
 800116c:	200003cc 	.word	0x200003cc
 8001170:	40010c00 	.word	0x40010c00
 8001174:	200003c8 	.word	0x200003c8
 8001178:	20000404 	.word	0x20000404
 800117c:	200006a4 	.word	0x200006a4

08001180 <pid_iq18_reset>:
	pid->previousError = pid->error;
}

// Resets all the components and previous error
void pid_iq18_reset(pid_iq18_t *pid) {
	pid->P = 0;
 8001180:	2300      	movs	r3, #0
 8001182:	6183      	str	r3, [r0, #24]
	pid->I = 0;
 8001184:	61c3      	str	r3, [r0, #28]
	pid->D = 0;
 8001186:	6203      	str	r3, [r0, #32]
	pid->previousError = 0;
 8001188:	6383      	str	r3, [r0, #56]	@ 0x38
	pid->output = 0;
 800118a:	6343      	str	r3, [r0, #52]	@ 0x34
}
 800118c:	4770      	bx	lr

0800118e <pid_iq18_calculate>:
void pid_iq18_calculate(pid_iq18_t *pid, _iq18 setpoint, _iq18 feedback) {
 800118e:	b538      	push	{r3, r4, r5, lr}
 8001190:	4604      	mov	r4, r0
	pid->error = setpoint - feedback;
 8001192:	1a89      	subs	r1, r1, r2
 8001194:	6001      	str	r1, [r0, #0]
	if ((pid->error > -(pid->toleranceBand))
 8001196:	6943      	ldr	r3, [r0, #20]
 8001198:	425a      	negs	r2, r3
 800119a:	4291      	cmp	r1, r2
 800119c:	dd01      	ble.n	80011a2 <pid_iq18_calculate+0x14>
			&& (pid->error < pid->toleranceBand)) {
 800119e:	4299      	cmp	r1, r3
 80011a0:	db30      	blt.n	8001204 <pid_iq18_calculate+0x76>
	pid->P = _IQ18mpy(pid->error, pid->kp);
 80011a2:	6861      	ldr	r1, [r4, #4]
 80011a4:	6820      	ldr	r0, [r4, #0]
 80011a6:	f003 fffd 	bl	80051a4 <_IQ18mpy>
 80011aa:	61a0      	str	r0, [r4, #24]
			(_IQ18mpy(pid->error, pid->ki)
 80011ac:	68a1      	ldr	r1, [r4, #8]
 80011ae:	6820      	ldr	r0, [r4, #0]
 80011b0:	f003 fff8 	bl	80051a4 <_IQ18mpy>
 80011b4:	4605      	mov	r5, r0
					+ _IQ18mpy(pid->output - pid->rawOutput, pid->kb)),
 80011b6:	6b60      	ldr	r0, [r4, #52]	@ 0x34
 80011b8:	6b23      	ldr	r3, [r4, #48]	@ 0x30
 80011ba:	6921      	ldr	r1, [r4, #16]
 80011bc:	1ac0      	subs	r0, r0, r3
 80011be:	f003 fff1 	bl	80051a4 <_IQ18mpy>
	pid->I += _IQ18mpy(
 80011c2:	6a61      	ldr	r1, [r4, #36]	@ 0x24
 80011c4:	4428      	add	r0, r5
 80011c6:	f003 ffed 	bl	80051a4 <_IQ18mpy>
 80011ca:	69e3      	ldr	r3, [r4, #28]
 80011cc:	4403      	add	r3, r0
 80011ce:	61e3      	str	r3, [r4, #28]
	pid->D = _IQ18div(_IQ18mpy((pid->error - pid->previousError), pid->kd),
 80011d0:	6820      	ldr	r0, [r4, #0]
 80011d2:	6ba3      	ldr	r3, [r4, #56]	@ 0x38
 80011d4:	68e1      	ldr	r1, [r4, #12]
 80011d6:	1ac0      	subs	r0, r0, r3
 80011d8:	f003 ffe4 	bl	80051a4 <_IQ18mpy>
 80011dc:	6a61      	ldr	r1, [r4, #36]	@ 0x24
 80011de:	f003 ff99 	bl	8005114 <_IQ18div>
 80011e2:	6220      	str	r0, [r4, #32]
	pid->rawOutput = pid->P + pid->I + pid->D;
 80011e4:	69a3      	ldr	r3, [r4, #24]
 80011e6:	69e2      	ldr	r2, [r4, #28]
 80011e8:	4413      	add	r3, r2
 80011ea:	4418      	add	r0, r3
 80011ec:	6320      	str	r0, [r4, #48]	@ 0x30
	pid->output = _IQsat(pid->rawOutput, pid->upperLimit, pid->lowerLimit);
 80011ee:	6aa3      	ldr	r3, [r4, #40]	@ 0x28
 80011f0:	4298      	cmp	r0, r3
 80011f2:	dc03      	bgt.n	80011fc <pid_iq18_calculate+0x6e>
 80011f4:	6ae3      	ldr	r3, [r4, #44]	@ 0x2c
 80011f6:	4283      	cmp	r3, r0
 80011f8:	bfb8      	it	lt
 80011fa:	4603      	movlt	r3, r0
 80011fc:	6363      	str	r3, [r4, #52]	@ 0x34
	pid->previousError = pid->error;
 80011fe:	6823      	ldr	r3, [r4, #0]
 8001200:	63a3      	str	r3, [r4, #56]	@ 0x38
}
 8001202:	bd38      	pop	{r3, r4, r5, pc}
		pid->error = 0;
 8001204:	2300      	movs	r3, #0
 8001206:	6003      	str	r3, [r0, #0]
		pid_iq18_reset(pid);
 8001208:	f7ff ffba 	bl	8001180 <pid_iq18_reset>
 800120c:	e7c9      	b.n	80011a2 <pid_iq18_calculate+0x14>

0800120e <pid_iq18_getOutput>:

// Getter for output
_iq18 pid_iq18_getOutput(pid_iq18_t *pid) {
	return pid->output;
}
 800120e:	6b40      	ldr	r0, [r0, #52]	@ 0x34
 8001210:	4770      	bx	lr
	...

08001214 <update_crc_history>:

// Counters for packets that failed crc check
uint32_t failed_sync_packets_count, failed_data_packets_count;

void update_crc_history(uint8_t crc_ok){
    bus_crc_history = (bus_crc_history << 1) | crc_ok;
 8001214:	4b02      	ldr	r3, [pc, #8]	@ (8001220 <update_crc_history+0xc>)
 8001216:	681a      	ldr	r2, [r3, #0]
 8001218:	ea40 0042 	orr.w	r0, r0, r2, lsl #1
 800121c:	6018      	str	r0, [r3, #0]
}
 800121e:	4770      	bx	lr
 8001220:	2000009c 	.word	0x2000009c

08001224 <get_crc_success_rate>:

uint8_t  get_crc_success_rate(){
 8001224:	b508      	push	{r3, lr}
    uint8_t success_count = __builtin_popcount(bus_crc_history);
 8001226:	4b05      	ldr	r3, [pc, #20]	@ (800123c <get_crc_success_rate+0x18>)
 8001228:	6818      	ldr	r0, [r3, #0]
 800122a:	f003 ffef 	bl	800520c <__popcountsi2>
    return (success_count * 100) / 32;
 800122e:	b2c0      	uxtb	r0, r0
 8001230:	2364      	movs	r3, #100	@ 0x64
 8001232:	fb03 f000 	mul.w	r0, r3, r0
}
 8001236:	f3c0 1047 	ubfx	r0, r0, #5, #8
 800123a:	bd08      	pop	{r3, pc}
 800123c:	2000009c 	.word	0x2000009c

08001240 <pack_encoder_feedback>:

void pack_encoder_feedback(pack_data_encoder_t *packet) // Pack and crc encoder data
{
 8001240:	b570      	push	{r4, r5, r6, lr}
 8001242:	4604      	mov	r4, r0
    packet->angle_1 = encoder_getAngle_iq18(&servo1_g.encoder) >> 9;
 8001244:	4e11      	ldr	r6, [pc, #68]	@ (800128c <pack_encoder_feedback+0x4c>)
 8001246:	4630      	mov	r0, r6
 8001248:	f7ff fbb3 	bl	80009b2 <encoder_getAngle_iq18>
 800124c:	1240      	asrs	r0, r0, #9
 800124e:	f8c4 0001 	str.w	r0, [r4, #1]
    packet->angle_1 = encoder_getAngle_iq18(&servo2_g.encoder) >> 9;
 8001252:	4d0f      	ldr	r5, [pc, #60]	@ (8001290 <pack_encoder_feedback+0x50>)
 8001254:	4628      	mov	r0, r5
 8001256:	f7ff fbac 	bl	80009b2 <encoder_getAngle_iq18>
 800125a:	1240      	asrs	r0, r0, #9
 800125c:	f8c4 0001 	str.w	r0, [r4, #1]
    packet->velocity_1 = (int16_t)(encoder_getVelocity_iq18(&servo1_g.encoder) >> 9);
 8001260:	4630      	mov	r0, r6
 8001262:	f7ff fba8 	bl	80009b6 <encoder_getVelocity_iq18>
 8001266:	f340 204f 	sbfx	r0, r0, #9, #16
 800126a:	f8a4 0005 	strh.w	r0, [r4, #5]
    packet->velocity_2 = (int16_t)(encoder_getVelocity_iq18(&servo2_g.encoder) >> 9);
 800126e:	4628      	mov	r0, r5
 8001270:	f7ff fba1 	bl	80009b6 <encoder_getVelocity_iq18>
 8001274:	f340 204f 	sbfx	r0, r0, #9, #16
 8001278:	f8a4 000b 	strh.w	r0, [r4, #11]
    packet->crc16 = crc16_ccitt((uint8_t*)packet, S_DATA_ENC_S1-2); // Using S1 size since they are same
 800127c:	210d      	movs	r1, #13
 800127e:	4620      	mov	r0, r4
 8001280:	f7ff f9f4 	bl	800066c <crc16_ccitt>
 8001284:	f8a4 000d 	strh.w	r0, [r4, #13]
}
 8001288:	bd70      	pop	{r4, r5, r6, pc}
 800128a:	bf00      	nop
 800128c:	200002b0 	.word	0x200002b0
 8001290:	20000198 	.word	0x20000198

08001294 <pack_current_feedback>:

void pack_current_feedback(pack_data_current_t *packet) // Pack and crc encoder data
{
 8001294:	b510      	push	{r4, lr}
 8001296:	4604      	mov	r4, r0
    packet->current1 = (int16_t)(current[0] >> 9);
 8001298:	4a07      	ldr	r2, [pc, #28]	@ (80012b8 <pack_current_feedback+0x24>)
 800129a:	6813      	ldr	r3, [r2, #0]
 800129c:	f343 234f 	sbfx	r3, r3, #9, #16
 80012a0:	f8a0 3001 	strh.w	r3, [r0, #1]
    packet->current2 = (int16_t)(current[1] >> 9);
 80012a4:	6853      	ldr	r3, [r2, #4]
 80012a6:	f343 234f 	sbfx	r3, r3, #9, #16
 80012aa:	f8a0 3003 	strh.w	r3, [r0, #3]
    packet->crc16 = crc16_ccitt((uint8_t*)packet, S_DATA_CUR_S1-2); // Using S1 size since they are same
 80012ae:	2106      	movs	r1, #6
 80012b0:	f7ff f9dc 	bl	800066c <crc16_ccitt>
 80012b4:	80e0      	strh	r0, [r4, #6]
}
 80012b6:	bd10      	pop	{r4, pc}
 80012b8:	2000014c 	.word	0x2000014c

080012bc <sync_packet_handler>:

void sync_packet_handler(pack_sync_t *packet)
{
 80012bc:	b510      	push	{r4, lr}
    switch (packet->ID)
 80012be:	7803      	ldrb	r3, [r0, #0]
 80012c0:	2b0c      	cmp	r3, #12
 80012c2:	d817      	bhi.n	80012f4 <sync_packet_handler+0x38>
 80012c4:	e8df f003 	tbb	[pc, r3]
 80012c8:	16251707 	.word	0x16251707
 80012cc:	47331616 	.word	0x47331616
 80012d0:	95785b16 	.word	0x95785b16
 80012d4:	b2          	.byte	0xb2
 80012d5:	00          	.byte	0x00
    {
    case ID_S_STBY:
        system_enabled = 0;
 80012d6:	2400      	movs	r4, #0
 80012d8:	4b63      	ldr	r3, [pc, #396]	@ (8001468 <sync_packet_handler+0x1ac>)
 80012da:	701c      	strb	r4, [r3, #0]
        expected_packet = SYNC;
 80012dc:	4b63      	ldr	r3, [pc, #396]	@ (800146c <sync_packet_handler+0x1b0>)
 80012de:	701c      	strb	r4, [r3, #0]
        HAL_UART_Receive_DMA(&huart1, (uint8_t *)&packet_sync, S_SYNC);
 80012e0:	2202      	movs	r2, #2
 80012e2:	4963      	ldr	r1, [pc, #396]	@ (8001470 <sync_packet_handler+0x1b4>)
 80012e4:	4863      	ldr	r0, [pc, #396]	@ (8001474 <sync_packet_handler+0x1b8>)
 80012e6:	f003 fedb 	bl	80050a0 <HAL_UART_Receive_DMA>
        data_ctrl.velocity_1 = 0;
 80012ea:	4b63      	ldr	r3, [pc, #396]	@ (8001478 <sync_packet_handler+0x1bc>)
 80012ec:	715c      	strb	r4, [r3, #5]
 80012ee:	719c      	strb	r4, [r3, #6]
        data_ctrl.velocity_2 = 0;
 80012f0:	72dc      	strb	r4, [r3, #11]
 80012f2:	731c      	strb	r4, [r3, #12]
        }
        break;
    default:
        break;
    }
}
 80012f4:	bd10      	pop	{r4, pc}
        system_enabled = 1;
 80012f6:	4b5c      	ldr	r3, [pc, #368]	@ (8001468 <sync_packet_handler+0x1ac>)
 80012f8:	2201      	movs	r2, #1
 80012fa:	701a      	strb	r2, [r3, #0]
        control_mode = 0; // control velocity
 80012fc:	2300      	movs	r3, #0
 80012fe:	4a5f      	ldr	r2, [pc, #380]	@ (800147c <sync_packet_handler+0x1c0>)
 8001300:	7013      	strb	r3, [r2, #0]
        expected_packet = SYNC;
 8001302:	4a5a      	ldr	r2, [pc, #360]	@ (800146c <sync_packet_handler+0x1b0>)
 8001304:	7013      	strb	r3, [r2, #0]
        HAL_UART_Receive_DMA(&huart1, (uint8_t *)&packet_sync, S_SYNC);
 8001306:	2202      	movs	r2, #2
 8001308:	4959      	ldr	r1, [pc, #356]	@ (8001470 <sync_packet_handler+0x1b4>)
 800130a:	485a      	ldr	r0, [pc, #360]	@ (8001474 <sync_packet_handler+0x1b8>)
 800130c:	f003 fec8 	bl	80050a0 <HAL_UART_Receive_DMA>
        break;
 8001310:	e7f0      	b.n	80012f4 <sync_packet_handler+0x38>
        system_enabled = 1;
 8001312:	2301      	movs	r3, #1
 8001314:	4a54      	ldr	r2, [pc, #336]	@ (8001468 <sync_packet_handler+0x1ac>)
 8001316:	7013      	strb	r3, [r2, #0]
        control_mode = 1; // control angle
 8001318:	4a58      	ldr	r2, [pc, #352]	@ (800147c <sync_packet_handler+0x1c0>)
 800131a:	7013      	strb	r3, [r2, #0]
        expected_packet = SYNC;
 800131c:	4b53      	ldr	r3, [pc, #332]	@ (800146c <sync_packet_handler+0x1b0>)
 800131e:	2200      	movs	r2, #0
 8001320:	701a      	strb	r2, [r3, #0]
        HAL_UART_Receive_DMA(&huart1, (uint8_t *)&packet_sync, S_SYNC);
 8001322:	2202      	movs	r2, #2
 8001324:	4952      	ldr	r1, [pc, #328]	@ (8001470 <sync_packet_handler+0x1b4>)
 8001326:	4853      	ldr	r0, [pc, #332]	@ (8001474 <sync_packet_handler+0x1b8>)
 8001328:	f003 feba 	bl	80050a0 <HAL_UART_Receive_DMA>
        break;
 800132c:	e7e2      	b.n	80012f4 <sync_packet_handler+0x38>
        expected_packet = DATA_CTRL_S1;
 800132e:	4b4f      	ldr	r3, [pc, #316]	@ (800146c <sync_packet_handler+0x1b0>)
 8001330:	2201      	movs	r2, #1
 8001332:	701a      	strb	r2, [r3, #0]
        if (axis_define == 1)
 8001334:	4b52      	ldr	r3, [pc, #328]	@ (8001480 <sync_packet_handler+0x1c4>)
 8001336:	781b      	ldrb	r3, [r3, #0]
 8001338:	b2db      	uxtb	r3, r3
 800133a:	4293      	cmp	r3, r2
 800133c:	d005      	beq.n	800134a <sync_packet_handler+0x8e>
            HAL_UART_Receive_DMA(&huart1, uart_rx_dump_buffer, S_DATA_CTRL_S1);
 800133e:	2210      	movs	r2, #16
 8001340:	4950      	ldr	r1, [pc, #320]	@ (8001484 <sync_packet_handler+0x1c8>)
 8001342:	484c      	ldr	r0, [pc, #304]	@ (8001474 <sync_packet_handler+0x1b8>)
 8001344:	f003 feac 	bl	80050a0 <HAL_UART_Receive_DMA>
 8001348:	e7d4      	b.n	80012f4 <sync_packet_handler+0x38>
            HAL_UART_Receive_DMA(&huart1, (uint8_t *)&data_ctrl_unchecked, S_DATA_CTRL_S1);
 800134a:	2210      	movs	r2, #16
 800134c:	494e      	ldr	r1, [pc, #312]	@ (8001488 <sync_packet_handler+0x1cc>)
 800134e:	4849      	ldr	r0, [pc, #292]	@ (8001474 <sync_packet_handler+0x1b8>)
 8001350:	f003 fea6 	bl	80050a0 <HAL_UART_Receive_DMA>
 8001354:	e7ce      	b.n	80012f4 <sync_packet_handler+0x38>
        expected_packet = DATA_CTRL_S2;
 8001356:	4b45      	ldr	r3, [pc, #276]	@ (800146c <sync_packet_handler+0x1b0>)
 8001358:	2202      	movs	r2, #2
 800135a:	701a      	strb	r2, [r3, #0]
        if (axis_define == 2)
 800135c:	4b48      	ldr	r3, [pc, #288]	@ (8001480 <sync_packet_handler+0x1c4>)
 800135e:	781b      	ldrb	r3, [r3, #0]
 8001360:	b2db      	uxtb	r3, r3
 8001362:	4293      	cmp	r3, r2
 8001364:	d005      	beq.n	8001372 <sync_packet_handler+0xb6>
            HAL_UART_Receive_DMA(&huart1, uart_rx_dump_buffer, S_DATA_CTRL_S2);
 8001366:	2210      	movs	r2, #16
 8001368:	4946      	ldr	r1, [pc, #280]	@ (8001484 <sync_packet_handler+0x1c8>)
 800136a:	4842      	ldr	r0, [pc, #264]	@ (8001474 <sync_packet_handler+0x1b8>)
 800136c:	f003 fe98 	bl	80050a0 <HAL_UART_Receive_DMA>
 8001370:	e7c0      	b.n	80012f4 <sync_packet_handler+0x38>
            HAL_UART_Receive_DMA(&huart1, (uint8_t *)&data_ctrl_unchecked, S_DATA_CTRL_S2);
 8001372:	2210      	movs	r2, #16
 8001374:	4944      	ldr	r1, [pc, #272]	@ (8001488 <sync_packet_handler+0x1cc>)
 8001376:	483f      	ldr	r0, [pc, #252]	@ (8001474 <sync_packet_handler+0x1b8>)
 8001378:	f003 fe92 	bl	80050a0 <HAL_UART_Receive_DMA>
 800137c:	e7ba      	b.n	80012f4 <sync_packet_handler+0x38>
        expected_packet = DATA_ENC_S1;
 800137e:	4b3b      	ldr	r3, [pc, #236]	@ (800146c <sync_packet_handler+0x1b0>)
 8001380:	2203      	movs	r2, #3
 8001382:	701a      	strb	r2, [r3, #0]
        if (axis_define == 1)
 8001384:	4b3e      	ldr	r3, [pc, #248]	@ (8001480 <sync_packet_handler+0x1c4>)
 8001386:	781b      	ldrb	r3, [r3, #0]
 8001388:	b2db      	uxtb	r3, r3
 800138a:	2b01      	cmp	r3, #1
 800138c:	d005      	beq.n	800139a <sync_packet_handler+0xde>
            HAL_UART_Receive_DMA(&huart1, uart_rx_dump_buffer, S_DATA_ENC_S1);
 800138e:	220f      	movs	r2, #15
 8001390:	493c      	ldr	r1, [pc, #240]	@ (8001484 <sync_packet_handler+0x1c8>)
 8001392:	4838      	ldr	r0, [pc, #224]	@ (8001474 <sync_packet_handler+0x1b8>)
 8001394:	f003 fe84 	bl	80050a0 <HAL_UART_Receive_DMA>
 8001398:	e7ac      	b.n	80012f4 <sync_packet_handler+0x38>
            pack_encoder_feedback(&data_encoder);
 800139a:	4c3c      	ldr	r4, [pc, #240]	@ (800148c <sync_packet_handler+0x1d0>)
 800139c:	4620      	mov	r0, r4
 800139e:	f7ff ff4f 	bl	8001240 <pack_encoder_feedback>
            TXON; // Turn on transmission on Transceiver
 80013a2:	2201      	movs	r2, #1
 80013a4:	2120      	movs	r1, #32
 80013a6:	483a      	ldr	r0, [pc, #232]	@ (8001490 <sync_packet_handler+0x1d4>)
 80013a8:	f001 fe27 	bl	8002ffa <HAL_GPIO_WritePin>
            HAL_UART_Transmit_DMA(&huart1, (uint8_t*)&data_encoder, S_DATA_ENC_S1);
 80013ac:	220f      	movs	r2, #15
 80013ae:	4621      	mov	r1, r4
 80013b0:	4830      	ldr	r0, [pc, #192]	@ (8001474 <sync_packet_handler+0x1b8>)
 80013b2:	f003 fb5f 	bl	8004a74 <HAL_UART_Transmit_DMA>
 80013b6:	e79d      	b.n	80012f4 <sync_packet_handler+0x38>
        expected_packet = DATA_ENC_S2;
 80013b8:	4b2c      	ldr	r3, [pc, #176]	@ (800146c <sync_packet_handler+0x1b0>)
 80013ba:	2204      	movs	r2, #4
 80013bc:	701a      	strb	r2, [r3, #0]
        if (axis_define == 2)
 80013be:	4b30      	ldr	r3, [pc, #192]	@ (8001480 <sync_packet_handler+0x1c4>)
 80013c0:	781b      	ldrb	r3, [r3, #0]
 80013c2:	b2db      	uxtb	r3, r3
 80013c4:	2b02      	cmp	r3, #2
 80013c6:	d005      	beq.n	80013d4 <sync_packet_handler+0x118>
            HAL_UART_Receive_DMA(&huart1, uart_rx_dump_buffer, S_DATA_ENC_S2);
 80013c8:	220f      	movs	r2, #15
 80013ca:	492e      	ldr	r1, [pc, #184]	@ (8001484 <sync_packet_handler+0x1c8>)
 80013cc:	4829      	ldr	r0, [pc, #164]	@ (8001474 <sync_packet_handler+0x1b8>)
 80013ce:	f003 fe67 	bl	80050a0 <HAL_UART_Receive_DMA>
 80013d2:	e78f      	b.n	80012f4 <sync_packet_handler+0x38>
            pack_encoder_feedback(&data_encoder);
 80013d4:	4c2d      	ldr	r4, [pc, #180]	@ (800148c <sync_packet_handler+0x1d0>)
 80013d6:	4620      	mov	r0, r4
 80013d8:	f7ff ff32 	bl	8001240 <pack_encoder_feedback>
            TXON; // Turn on transmission on Transceiver
 80013dc:	2201      	movs	r2, #1
 80013de:	2120      	movs	r1, #32
 80013e0:	482b      	ldr	r0, [pc, #172]	@ (8001490 <sync_packet_handler+0x1d4>)
 80013e2:	f001 fe0a 	bl	8002ffa <HAL_GPIO_WritePin>
            HAL_UART_Transmit_DMA(&huart1, (uint8_t*)&data_encoder, S_DATA_ENC_S2);
 80013e6:	220f      	movs	r2, #15
 80013e8:	4621      	mov	r1, r4
 80013ea:	4822      	ldr	r0, [pc, #136]	@ (8001474 <sync_packet_handler+0x1b8>)
 80013ec:	f003 fb42 	bl	8004a74 <HAL_UART_Transmit_DMA>
 80013f0:	e780      	b.n	80012f4 <sync_packet_handler+0x38>
        expected_packet = DATA_CUR_S1;
 80013f2:	4b1e      	ldr	r3, [pc, #120]	@ (800146c <sync_packet_handler+0x1b0>)
 80013f4:	2205      	movs	r2, #5
 80013f6:	701a      	strb	r2, [r3, #0]
        if (axis_define == 1)
 80013f8:	4b21      	ldr	r3, [pc, #132]	@ (8001480 <sync_packet_handler+0x1c4>)
 80013fa:	781b      	ldrb	r3, [r3, #0]
 80013fc:	b2db      	uxtb	r3, r3
 80013fe:	2b01      	cmp	r3, #1
 8001400:	d005      	beq.n	800140e <sync_packet_handler+0x152>
            HAL_UART_Receive_DMA(&huart1, uart_rx_dump_buffer, S_DATA_CUR_S1);
 8001402:	2208      	movs	r2, #8
 8001404:	491f      	ldr	r1, [pc, #124]	@ (8001484 <sync_packet_handler+0x1c8>)
 8001406:	481b      	ldr	r0, [pc, #108]	@ (8001474 <sync_packet_handler+0x1b8>)
 8001408:	f003 fe4a 	bl	80050a0 <HAL_UART_Receive_DMA>
 800140c:	e772      	b.n	80012f4 <sync_packet_handler+0x38>
            pack_current_feedback(&data_current);
 800140e:	4c21      	ldr	r4, [pc, #132]	@ (8001494 <sync_packet_handler+0x1d8>)
 8001410:	4620      	mov	r0, r4
 8001412:	f7ff ff3f 	bl	8001294 <pack_current_feedback>
            TXON; // Turn on transmission on Transceiver
 8001416:	2201      	movs	r2, #1
 8001418:	2120      	movs	r1, #32
 800141a:	481d      	ldr	r0, [pc, #116]	@ (8001490 <sync_packet_handler+0x1d4>)
 800141c:	f001 fded 	bl	8002ffa <HAL_GPIO_WritePin>
            HAL_UART_Transmit_DMA(&huart1, (uint8_t *)&data_current, S_DATA_CUR_S1);
 8001420:	2208      	movs	r2, #8
 8001422:	4621      	mov	r1, r4
 8001424:	4813      	ldr	r0, [pc, #76]	@ (8001474 <sync_packet_handler+0x1b8>)
 8001426:	f003 fb25 	bl	8004a74 <HAL_UART_Transmit_DMA>
 800142a:	e763      	b.n	80012f4 <sync_packet_handler+0x38>
        expected_packet = DATA_CUR_S2;
 800142c:	4b0f      	ldr	r3, [pc, #60]	@ (800146c <sync_packet_handler+0x1b0>)
 800142e:	2206      	movs	r2, #6
 8001430:	701a      	strb	r2, [r3, #0]
        if (axis_define == 2)
 8001432:	4b13      	ldr	r3, [pc, #76]	@ (8001480 <sync_packet_handler+0x1c4>)
 8001434:	781b      	ldrb	r3, [r3, #0]
 8001436:	b2db      	uxtb	r3, r3
 8001438:	2b02      	cmp	r3, #2
 800143a:	d005      	beq.n	8001448 <sync_packet_handler+0x18c>
            HAL_UART_Receive_DMA(&huart1, uart_rx_dump_buffer, S_DATA_CUR_S2);
 800143c:	2208      	movs	r2, #8
 800143e:	4911      	ldr	r1, [pc, #68]	@ (8001484 <sync_packet_handler+0x1c8>)
 8001440:	480c      	ldr	r0, [pc, #48]	@ (8001474 <sync_packet_handler+0x1b8>)
 8001442:	f003 fe2d 	bl	80050a0 <HAL_UART_Receive_DMA>
}
 8001446:	e755      	b.n	80012f4 <sync_packet_handler+0x38>
            pack_current_feedback(&data_current);
 8001448:	4c12      	ldr	r4, [pc, #72]	@ (8001494 <sync_packet_handler+0x1d8>)
 800144a:	4620      	mov	r0, r4
 800144c:	f7ff ff22 	bl	8001294 <pack_current_feedback>
            TXON; // Turn on transmission on Transceiver
 8001450:	2201      	movs	r2, #1
 8001452:	2120      	movs	r1, #32
 8001454:	480e      	ldr	r0, [pc, #56]	@ (8001490 <sync_packet_handler+0x1d4>)
 8001456:	f001 fdd0 	bl	8002ffa <HAL_GPIO_WritePin>
            HAL_UART_Transmit_DMA(&huart1, (uint8_t *)&data_current, S_DATA_CUR_S2);
 800145a:	2208      	movs	r2, #8
 800145c:	4621      	mov	r1, r4
 800145e:	4805      	ldr	r0, [pc, #20]	@ (8001474 <sync_packet_handler+0x1b8>)
 8001460:	f003 fb08 	bl	8004a74 <HAL_UART_Transmit_DMA>
 8001464:	e746      	b.n	80012f4 <sync_packet_handler+0x38>
 8001466:	bf00      	nop
 8001468:	2000015d 	.word	0x2000015d
 800146c:	200003c8 	.word	0x200003c8
 8001470:	20000404 	.word	0x20000404
 8001474:	200006a4 	.word	0x200006a4
 8001478:	200003e4 	.word	0x200003e4
 800147c:	2000015c 	.word	0x2000015c
 8001480:	20000158 	.word	0x20000158
 8001484:	20000408 	.word	0x20000408
 8001488:	200003f4 	.word	0x200003f4
 800148c:	200003d4 	.word	0x200003d4
 8001490:	40010c00 	.word	0x40010c00
 8001494:	200003cc 	.word	0x200003cc

08001498 <HAL_UART_RxCpltCallback>:

void HAL_UART_RxCpltCallback(UART_HandleTypeDef *huart)
{
 8001498:	b510      	push	{r4, lr}
    switch (expected_packet)
 800149a:	4b3f      	ldr	r3, [pc, #252]	@ (8001598 <HAL_UART_RxCpltCallback+0x100>)
 800149c:	781b      	ldrb	r3, [r3, #0]
 800149e:	2b01      	cmp	r3, #1
 80014a0:	d01d      	beq.n	80014de <HAL_UART_RxCpltCallback+0x46>
 80014a2:	2b02      	cmp	r3, #2
 80014a4:	d045      	beq.n	8001532 <HAL_UART_RxCpltCallback+0x9a>
 80014a6:	2b00      	cmp	r3, #0
 80014a8:	d16d      	bne.n	8001586 <HAL_UART_RxCpltCallback+0xee>
    {
    case SYNC:
        if (packet_sync.crc8 == crc8_ccitt((uint8_t *)&packet_sync, 1))
 80014aa:	483c      	ldr	r0, [pc, #240]	@ (800159c <HAL_UART_RxCpltCallback+0x104>)
 80014ac:	7844      	ldrb	r4, [r0, #1]
 80014ae:	2101      	movs	r1, #1
 80014b0:	f7ff f8be 	bl	8000630 <crc8_ccitt>
 80014b4:	4284      	cmp	r4, r0
 80014b6:	d00b      	beq.n	80014d0 <HAL_UART_RxCpltCallback+0x38>
            update_crc_history(1);
            sync_packet_handler(&packet_sync);
        }
        else
        {
            update_crc_history(0);
 80014b8:	2000      	movs	r0, #0
 80014ba:	f7ff feab 	bl	8001214 <update_crc_history>
            expected_packet = SYNC;
 80014be:	4b36      	ldr	r3, [pc, #216]	@ (8001598 <HAL_UART_RxCpltCallback+0x100>)
 80014c0:	2200      	movs	r2, #0
 80014c2:	701a      	strb	r2, [r3, #0]
            HAL_UART_Receive_DMA(&huart1, (uint8_t *)&packet_sync, S_SYNC);
 80014c4:	2202      	movs	r2, #2
 80014c6:	4935      	ldr	r1, [pc, #212]	@ (800159c <HAL_UART_RxCpltCallback+0x104>)
 80014c8:	4835      	ldr	r0, [pc, #212]	@ (80015a0 <HAL_UART_RxCpltCallback+0x108>)
 80014ca:	f003 fde9 	bl	80050a0 <HAL_UART_Receive_DMA>
 80014ce:	e013      	b.n	80014f8 <HAL_UART_RxCpltCallback+0x60>
            update_crc_history(1);
 80014d0:	2001      	movs	r0, #1
 80014d2:	f7ff fe9f 	bl	8001214 <update_crc_history>
            sync_packet_handler(&packet_sync);
 80014d6:	4831      	ldr	r0, [pc, #196]	@ (800159c <HAL_UART_RxCpltCallback+0x104>)
 80014d8:	f7ff fef0 	bl	80012bc <sync_packet_handler>
 80014dc:	e00c      	b.n	80014f8 <HAL_UART_RxCpltCallback+0x60>
        }
        break;
    case DATA_CTRL_S1:
        if (axis_define == 1)
 80014de:	4b31      	ldr	r3, [pc, #196]	@ (80015a4 <HAL_UART_RxCpltCallback+0x10c>)
 80014e0:	781b      	ldrb	r3, [r3, #0]
 80014e2:	b2db      	uxtb	r3, r3
 80014e4:	2b01      	cmp	r3, #1
 80014e6:	d008      	beq.n	80014fa <HAL_UART_RxCpltCallback+0x62>
                update_crc_history(0);
                expected_packet = SYNC;
                HAL_UART_Receive_DMA(&huart1, (uint8_t *)&packet_sync, S_SYNC);
            }
        }
        expected_packet = SYNC;
 80014e8:	4b2b      	ldr	r3, [pc, #172]	@ (8001598 <HAL_UART_RxCpltCallback+0x100>)
 80014ea:	2200      	movs	r2, #0
 80014ec:	701a      	strb	r2, [r3, #0]
        HAL_UART_Receive_DMA(&huart1, (uint8_t *)&packet_sync, S_SYNC);
 80014ee:	2202      	movs	r2, #2
 80014f0:	492a      	ldr	r1, [pc, #168]	@ (800159c <HAL_UART_RxCpltCallback+0x104>)
 80014f2:	482b      	ldr	r0, [pc, #172]	@ (80015a0 <HAL_UART_RxCpltCallback+0x108>)
 80014f4:	f003 fdd4 	bl	80050a0 <HAL_UART_Receive_DMA>
    default:
        expected_packet = SYNC;
        HAL_UART_Receive_DMA(&huart1, (uint8_t *)&packet_sync, S_SYNC);
        break;
    }
}
 80014f8:	bd10      	pop	{r4, pc}
            if (data_ctrl_unchecked.crc16 == crc16_ccitt((uint8_t *)&data_ctrl_unchecked, S_DATA_CTRL_S1 - 2))
 80014fa:	482b      	ldr	r0, [pc, #172]	@ (80015a8 <HAL_UART_RxCpltCallback+0x110>)
 80014fc:	89c4      	ldrh	r4, [r0, #14]
 80014fe:	210e      	movs	r1, #14
 8001500:	f7ff f8b4 	bl	800066c <crc16_ccitt>
 8001504:	4284      	cmp	r4, r0
 8001506:	d00b      	beq.n	8001520 <HAL_UART_RxCpltCallback+0x88>
                update_crc_history(0);
 8001508:	2000      	movs	r0, #0
 800150a:	f7ff fe83 	bl	8001214 <update_crc_history>
                expected_packet = SYNC;
 800150e:	4b22      	ldr	r3, [pc, #136]	@ (8001598 <HAL_UART_RxCpltCallback+0x100>)
 8001510:	2200      	movs	r2, #0
 8001512:	701a      	strb	r2, [r3, #0]
                HAL_UART_Receive_DMA(&huart1, (uint8_t *)&packet_sync, S_SYNC);
 8001514:	2202      	movs	r2, #2
 8001516:	4921      	ldr	r1, [pc, #132]	@ (800159c <HAL_UART_RxCpltCallback+0x104>)
 8001518:	4821      	ldr	r0, [pc, #132]	@ (80015a0 <HAL_UART_RxCpltCallback+0x108>)
 800151a:	f003 fdc1 	bl	80050a0 <HAL_UART_Receive_DMA>
 800151e:	e7e3      	b.n	80014e8 <HAL_UART_RxCpltCallback+0x50>
                update_crc_history(1);
 8001520:	2001      	movs	r0, #1
 8001522:	f7ff fe77 	bl	8001214 <update_crc_history>
                memcpy(&data_ctrl, &data_ctrl_unchecked, S_DATA_CTRL_S1);
 8001526:	4c21      	ldr	r4, [pc, #132]	@ (80015ac <HAL_UART_RxCpltCallback+0x114>)
 8001528:	4b1f      	ldr	r3, [pc, #124]	@ (80015a8 <HAL_UART_RxCpltCallback+0x110>)
 800152a:	cb0f      	ldmia	r3, {r0, r1, r2, r3}
 800152c:	e884 000f 	stmia.w	r4, {r0, r1, r2, r3}
 8001530:	e7da      	b.n	80014e8 <HAL_UART_RxCpltCallback+0x50>
        if (axis_define == 2)
 8001532:	4b1c      	ldr	r3, [pc, #112]	@ (80015a4 <HAL_UART_RxCpltCallback+0x10c>)
 8001534:	781b      	ldrb	r3, [r3, #0]
 8001536:	b2db      	uxtb	r3, r3
 8001538:	2b02      	cmp	r3, #2
 800153a:	d008      	beq.n	800154e <HAL_UART_RxCpltCallback+0xb6>
        expected_packet = SYNC;
 800153c:	4b16      	ldr	r3, [pc, #88]	@ (8001598 <HAL_UART_RxCpltCallback+0x100>)
 800153e:	2200      	movs	r2, #0
 8001540:	701a      	strb	r2, [r3, #0]
        HAL_UART_Receive_DMA(&huart1, (uint8_t *)&packet_sync, S_SYNC);
 8001542:	2202      	movs	r2, #2
 8001544:	4915      	ldr	r1, [pc, #84]	@ (800159c <HAL_UART_RxCpltCallback+0x104>)
 8001546:	4816      	ldr	r0, [pc, #88]	@ (80015a0 <HAL_UART_RxCpltCallback+0x108>)
 8001548:	f003 fdaa 	bl	80050a0 <HAL_UART_Receive_DMA>
        break;
 800154c:	e7d4      	b.n	80014f8 <HAL_UART_RxCpltCallback+0x60>
            if (data_ctrl_unchecked.crc16 == crc16_ccitt((uint8_t *)&data_ctrl_unchecked, S_DATA_CTRL_S2 - 2))
 800154e:	4816      	ldr	r0, [pc, #88]	@ (80015a8 <HAL_UART_RxCpltCallback+0x110>)
 8001550:	89c4      	ldrh	r4, [r0, #14]
 8001552:	210e      	movs	r1, #14
 8001554:	f7ff f88a 	bl	800066c <crc16_ccitt>
 8001558:	4284      	cmp	r4, r0
 800155a:	d00b      	beq.n	8001574 <HAL_UART_RxCpltCallback+0xdc>
                update_crc_history(0);
 800155c:	2000      	movs	r0, #0
 800155e:	f7ff fe59 	bl	8001214 <update_crc_history>
                expected_packet = SYNC;
 8001562:	4b0d      	ldr	r3, [pc, #52]	@ (8001598 <HAL_UART_RxCpltCallback+0x100>)
 8001564:	2200      	movs	r2, #0
 8001566:	701a      	strb	r2, [r3, #0]
                HAL_UART_Receive_DMA(&huart1, (uint8_t *)&packet_sync, S_SYNC);
 8001568:	2202      	movs	r2, #2
 800156a:	490c      	ldr	r1, [pc, #48]	@ (800159c <HAL_UART_RxCpltCallback+0x104>)
 800156c:	480c      	ldr	r0, [pc, #48]	@ (80015a0 <HAL_UART_RxCpltCallback+0x108>)
 800156e:	f003 fd97 	bl	80050a0 <HAL_UART_Receive_DMA>
 8001572:	e7e3      	b.n	800153c <HAL_UART_RxCpltCallback+0xa4>
                update_crc_history(1);
 8001574:	2001      	movs	r0, #1
 8001576:	f7ff fe4d 	bl	8001214 <update_crc_history>
                memcpy(&data_ctrl, &data_ctrl_unchecked, S_DATA_CTRL_S2);
 800157a:	4c0c      	ldr	r4, [pc, #48]	@ (80015ac <HAL_UART_RxCpltCallback+0x114>)
 800157c:	4b0a      	ldr	r3, [pc, #40]	@ (80015a8 <HAL_UART_RxCpltCallback+0x110>)
 800157e:	cb0f      	ldmia	r3, {r0, r1, r2, r3}
 8001580:	e884 000f 	stmia.w	r4, {r0, r1, r2, r3}
 8001584:	e7da      	b.n	800153c <HAL_UART_RxCpltCallback+0xa4>
        expected_packet = SYNC;
 8001586:	4b04      	ldr	r3, [pc, #16]	@ (8001598 <HAL_UART_RxCpltCallback+0x100>)
 8001588:	2200      	movs	r2, #0
 800158a:	701a      	strb	r2, [r3, #0]
        HAL_UART_Receive_DMA(&huart1, (uint8_t *)&packet_sync, S_SYNC);
 800158c:	2202      	movs	r2, #2
 800158e:	4903      	ldr	r1, [pc, #12]	@ (800159c <HAL_UART_RxCpltCallback+0x104>)
 8001590:	4803      	ldr	r0, [pc, #12]	@ (80015a0 <HAL_UART_RxCpltCallback+0x108>)
 8001592:	f003 fd85 	bl	80050a0 <HAL_UART_Receive_DMA>
}
 8001596:	e7af      	b.n	80014f8 <HAL_UART_RxCpltCallback+0x60>
 8001598:	200003c8 	.word	0x200003c8
 800159c:	20000404 	.word	0x20000404
 80015a0:	200006a4 	.word	0x200006a4
 80015a4:	20000158 	.word	0x20000158
 80015a8:	200003f4 	.word	0x200003f4
 80015ac:	200003e4 	.word	0x200003e4

080015b0 <HAL_UART_TxCpltCallback>:

void HAL_UART_TxCpltCallback(UART_HandleTypeDef *huart)
{
 80015b0:	b508      	push	{r3, lr}
    TXOFF; // Turn of transmission on transceiver in order to not hang the bus
 80015b2:	2200      	movs	r2, #0
 80015b4:	2120      	movs	r1, #32
 80015b6:	4806      	ldr	r0, [pc, #24]	@ (80015d0 <HAL_UART_TxCpltCallback+0x20>)
 80015b8:	f001 fd1f 	bl	8002ffa <HAL_GPIO_WritePin>
    expected_packet = SYNC;
 80015bc:	4b05      	ldr	r3, [pc, #20]	@ (80015d4 <HAL_UART_TxCpltCallback+0x24>)
 80015be:	2200      	movs	r2, #0
 80015c0:	701a      	strb	r2, [r3, #0]
    HAL_UART_Receive_DMA(&huart1, (uint8_t *)&packet_sync, S_SYNC);
 80015c2:	2202      	movs	r2, #2
 80015c4:	4904      	ldr	r1, [pc, #16]	@ (80015d8 <HAL_UART_TxCpltCallback+0x28>)
 80015c6:	4805      	ldr	r0, [pc, #20]	@ (80015dc <HAL_UART_TxCpltCallback+0x2c>)
 80015c8:	f003 fd6a 	bl	80050a0 <HAL_UART_Receive_DMA>
 80015cc:	bd08      	pop	{r3, pc}
 80015ce:	bf00      	nop
 80015d0:	40010c00 	.word	0x40010c00
 80015d4:	200003c8 	.word	0x200003c8
 80015d8:	20000404 	.word	0x20000404
 80015dc:	200006a4 	.word	0x200006a4

080015e0 <pwm_setSpeed>:
void pwm_dutyLimits(pwmControl_t *driver, uint16_t minDuty, uint16_t maxDuty) {
	driver->minDuty = minDuty;
	driver->maxDuty = maxDuty;
}

void pwm_setSpeed(pwmControl_t *driver, int32_t duty) {
 80015e0:	b510      	push	{r4, lr}
 80015e2:	4604      	mov	r4, r0
	if (!duty) {
 80015e4:	b951      	cbnz	r1, 80015fc <pwm_setSpeed+0x1c>
		driver->_duty = 0;
 80015e6:	2300      	movs	r3, #0
 80015e8:	6083      	str	r3, [r0, #8]
		driver->dir = 0;
 80015ea:	7503      	strb	r3, [r0, #20]
			HAL_GPIO_WritePin(driver->dir1_Port, driver->dir1_Pin, 0);
			driver->dir = -1;
		}
	}

	switch (driver->timerChannel) {
 80015ec:	7d63      	ldrb	r3, [r4, #21]
 80015ee:	3b01      	subs	r3, #1
 80015f0:	2b03      	cmp	r3, #3
 80015f2:	d826      	bhi.n	8001642 <pwm_setSpeed+0x62>
 80015f4:	e8df f003 	tbb	[pc, r3]
 80015f8:	302b2621 	.word	0x302b2621
 80015fc:	460a      	mov	r2, r1
		driver->_duty = constrain(ABS(duty), driver->minDuty, driver->maxDuty);
 80015fe:	ea81 71e1 	eor.w	r1, r1, r1, asr #31
 8001602:	eba1 71e2 	sub.w	r1, r1, r2, asr #31
 8001606:	8a43      	ldrh	r3, [r0, #18]
 8001608:	4299      	cmp	r1, r3
 800160a:	db03      	blt.n	8001614 <pwm_setSpeed+0x34>
 800160c:	8a03      	ldrh	r3, [r0, #16]
 800160e:	428b      	cmp	r3, r1
 8001610:	bfa8      	it	ge
 8001612:	460b      	movge	r3, r1
 8001614:	60a3      	str	r3, [r4, #8]
		if (duty > 0) {
 8001616:	2a00      	cmp	r2, #0
 8001618:	dd07      	ble.n	800162a <pwm_setSpeed+0x4a>
			HAL_GPIO_WritePin(driver->dir1_Port, driver->dir1_Pin, 1);
 800161a:	2201      	movs	r2, #1
 800161c:	89a1      	ldrh	r1, [r4, #12]
 800161e:	6860      	ldr	r0, [r4, #4]
 8001620:	f001 fceb 	bl	8002ffa <HAL_GPIO_WritePin>
			driver->dir = 1;
 8001624:	2301      	movs	r3, #1
 8001626:	7523      	strb	r3, [r4, #20]
 8001628:	e7e0      	b.n	80015ec <pwm_setSpeed+0xc>
			HAL_GPIO_WritePin(driver->dir1_Port, driver->dir1_Pin, 0);
 800162a:	2200      	movs	r2, #0
 800162c:	89a1      	ldrh	r1, [r4, #12]
 800162e:	6860      	ldr	r0, [r4, #4]
 8001630:	f001 fce3 	bl	8002ffa <HAL_GPIO_WritePin>
			driver->dir = -1;
 8001634:	23ff      	movs	r3, #255	@ 0xff
 8001636:	7523      	strb	r3, [r4, #20]
 8001638:	e7d8      	b.n	80015ec <pwm_setSpeed+0xc>
	case 1:
		driver->htim->Instance->CCR1 = driver->_duty;
 800163a:	6823      	ldr	r3, [r4, #0]
 800163c:	681b      	ldr	r3, [r3, #0]
 800163e:	68a2      	ldr	r2, [r4, #8]
 8001640:	635a      	str	r2, [r3, #52]	@ 0x34
		driver->htim->Instance->CCR4 = driver->_duty;
		break;
	default:
		break;
	}
}
 8001642:	bd10      	pop	{r4, pc}
		driver->htim->Instance->CCR2 = driver->_duty;
 8001644:	6823      	ldr	r3, [r4, #0]
 8001646:	681b      	ldr	r3, [r3, #0]
 8001648:	68a2      	ldr	r2, [r4, #8]
 800164a:	639a      	str	r2, [r3, #56]	@ 0x38
		break;
 800164c:	e7f9      	b.n	8001642 <pwm_setSpeed+0x62>
		driver->htim->Instance->CCR3 = driver->_duty;
 800164e:	6823      	ldr	r3, [r4, #0]
 8001650:	681b      	ldr	r3, [r3, #0]
 8001652:	68a2      	ldr	r2, [r4, #8]
 8001654:	63da      	str	r2, [r3, #60]	@ 0x3c
		break;
 8001656:	e7f4      	b.n	8001642 <pwm_setSpeed+0x62>
		driver->htim->Instance->CCR4 = driver->_duty;
 8001658:	6823      	ldr	r3, [r4, #0]
 800165a:	681b      	ldr	r3, [r3, #0]
 800165c:	68a2      	ldr	r2, [r4, #8]
 800165e:	641a      	str	r2, [r3, #64]	@ 0x40
}
 8001660:	e7ef      	b.n	8001642 <pwm_setSpeed+0x62>
	...

08001664 <servo_periph_init>:
#include "servo_init.h"

// servo_iq18_t servo1_g, servo2_g;

void servo_periph_init()
{
 8001664:	b510      	push	{r4, lr}
    // Init timers

    // TIM1&2 for encoders
    MX_TIM1_Init();
 8001666:	f000 fbd9 	bl	8001e1c <MX_TIM1_Init>
    MX_TIM2_Init();
 800166a:	f000 fc0d 	bl	8001e88 <MX_TIM2_Init>

    // TIM3&4 for periodical tasks
    MX_TIM3_Init(); // PWM as well
 800166e:	f000 fd6f 	bl	8002150 <MX_TIM3_Init>

    // Init & calibrate ADC
    MX_ADC1_Init();
 8001672:	f7fe fee1 	bl	8000438 <MX_ADC1_Init>
    HAL_ADCEx_Calibration_Start(&hadc1);
 8001676:	4815      	ldr	r0, [pc, #84]	@ (80016cc <servo_periph_init+0x68>)
 8001678:	f001 f91c 	bl	80028b4 <HAL_ADCEx_Calibration_Start>

    // Start timers

    // Clear CNT and start timers 1&2 in encoder mode
    __HAL_TIM_CLEAR_IT(&htim1, TIM_IT_UPDATE);
 800167c:	4814      	ldr	r0, [pc, #80]	@ (80016d0 <servo_periph_init+0x6c>)
 800167e:	6803      	ldr	r3, [r0, #0]
 8001680:	f06f 0401 	mvn.w	r4, #1
 8001684:	611c      	str	r4, [r3, #16]
    HAL_TIM_Encoder_Start(&htim1, TIM_CHANNEL_ALL);
 8001686:	213c      	movs	r1, #60	@ 0x3c
 8001688:	f003 f86e 	bl	8004768 <HAL_TIM_Encoder_Start>
    __HAL_TIM_CLEAR_IT(&htim2, TIM_IT_UPDATE);
 800168c:	4811      	ldr	r0, [pc, #68]	@ (80016d4 <servo_periph_init+0x70>)
 800168e:	6803      	ldr	r3, [r0, #0]
 8001690:	611c      	str	r4, [r3, #16]
    HAL_TIM_Encoder_Start(&htim2, TIM_CHANNEL_ALL);
 8001692:	213c      	movs	r1, #60	@ 0x3c
 8001694:	f003 f868 	bl	8004768 <HAL_TIM_Encoder_Start>

    // Start TIM3 in PWM mode and also turn on interrupts
    HAL_TIM_PWM_Start(&htim3, TIM_CHANNEL_1);
 8001698:	4c0f      	ldr	r4, [pc, #60]	@ (80016d8 <servo_periph_init+0x74>)
 800169a:	2100      	movs	r1, #0
 800169c:	4620      	mov	r0, r4
 800169e:	f002 ff51 	bl	8004544 <HAL_TIM_PWM_Start>
    HAL_TIM_PWM_Start(&htim3, TIM_CHANNEL_2);
 80016a2:	2104      	movs	r1, #4
 80016a4:	4620      	mov	r0, r4
 80016a6:	f002 ff4d 	bl	8004544 <HAL_TIM_PWM_Start>
    HAL_TIM_Base_Start_IT(&htim3);
 80016aa:	4620      	mov	r0, r4
 80016ac:	f002 fc2e 	bl	8003f0c <HAL_TIM_Base_Start_IT>

    
    HAL_TIM_IC_Start_IT(&htim4, TIM_CHANNEL_3);
 80016b0:	4c0a      	ldr	r4, [pc, #40]	@ (80016dc <servo_periph_init+0x78>)
 80016b2:	2108      	movs	r1, #8
 80016b4:	4620      	mov	r0, r4
 80016b6:	f002 ffb3 	bl	8004620 <HAL_TIM_IC_Start_IT>
    HAL_TIM_IC_Start_IT(&htim4, TIM_CHANNEL_4);
 80016ba:	210c      	movs	r1, #12
 80016bc:	4620      	mov	r0, r4
 80016be:	f002 ffaf 	bl	8004620 <HAL_TIM_IC_Start_IT>
    HAL_TIM_Base_Start_IT(&htim4);
 80016c2:	4620      	mov	r0, r4
 80016c4:	f002 fc22 	bl	8003f0c <HAL_TIM_Base_Start_IT>
}
 80016c8:	bd10      	pop	{r4, pc}
 80016ca:	bf00      	nop
 80016cc:	2000010c 	.word	0x2000010c
 80016d0:	200005d4 	.word	0x200005d4
 80016d4:	2000058c 	.word	0x2000058c
 80016d8:	20000544 	.word	0x20000544
 80016dc:	200004fc 	.word	0x200004fc

080016e0 <servo_init>:

void servo_init()
{
 80016e0:	e92d 4ff0 	stmdb	sp!, {r4, r5, r6, r7, r8, r9, sl, fp, lr}
 80016e4:	b085      	sub	sp, #20
    // Init servo1
    if (SERVO1_ENABLE)
    {
        servo_iq18_base_init(&servo1_g, Triple, MT_VELOCITY, MT_GEAR_RATIO, SERVO1_REVERSE);
 80016e6:	4d42      	ldr	r5, [pc, #264]	@ (80017f0 <servo_init+0x110>)
 80016e8:	f04f 0800 	mov.w	r8, #0
 80016ec:	f8cd 8000 	str.w	r8, [sp]
 80016f0:	4b40      	ldr	r3, [pc, #256]	@ (80017f4 <servo_init+0x114>)
 80016f2:	4a41      	ldr	r2, [pc, #260]	@ (80017f8 <servo_init+0x118>)
 80016f4:	2102      	movs	r1, #2
 80016f6:	4628      	mov	r0, r5
 80016f8:	f000 f8a0 	bl	800183c <servo_iq18_base_init>
        servo_iq18_encoder_init(&servo1_g, &htim1, ENC_TPR, SERVO1_ENC_REVERSE);
 80016fc:	2301      	movs	r3, #1
 80016fe:	222c      	movs	r2, #44	@ 0x2c
 8001700:	493e      	ldr	r1, [pc, #248]	@ (80017fc <servo_init+0x11c>)
 8001702:	4628      	mov	r0, r5
 8001704:	f000 f8c8 	bl	8001898 <servo_iq18_encoder_init>

        servo_iq18_driver_init(&servo1_g, &htim3, 1, DIR1_1_GPIO_Port, DIR1_1_Pin, 0, 1000);
 8001708:	f44f 737a 	mov.w	r3, #1000	@ 0x3e8
 800170c:	9302      	str	r3, [sp, #8]
 800170e:	f8cd 8004 	str.w	r8, [sp, #4]
 8001712:	2602      	movs	r6, #2
 8001714:	9600      	str	r6, [sp, #0]
 8001716:	4b3a      	ldr	r3, [pc, #232]	@ (8001800 <servo_init+0x120>)
 8001718:	2201      	movs	r2, #1
 800171a:	493a      	ldr	r1, [pc, #232]	@ (8001804 <servo_init+0x124>)
 800171c:	4628      	mov	r0, r5
 800171e:	f000 f8d1 	bl	80018c4 <servo_iq18_driver_init>

        servo_iq18_position_init(&servo1_g, ANG_KP, ANG_KI, ANG_KD, ANG_DT, ANG_KB);
 8001722:	2400      	movs	r4, #0
 8001724:	9401      	str	r4, [sp, #4]
 8001726:	4f38      	ldr	r7, [pc, #224]	@ (8001808 <servo_init+0x128>)
 8001728:	9700      	str	r7, [sp, #0]
 800172a:	4623      	mov	r3, r4
 800172c:	4622      	mov	r2, r4
 800172e:	4937      	ldr	r1, [pc, #220]	@ (800180c <servo_init+0x12c>)
 8001730:	4628      	mov	r0, r5
 8001732:	f000 f8f9 	bl	8001928 <servo_iq18_position_init>
        servo_iq18_velocity_init(&servo1_g, VEL_KP, VEL_KI,
 8001736:	f8df b0d8 	ldr.w	fp, [pc, #216]	@ 8001810 <servo_init+0x130>
 800173a:	f8cd b004 	str.w	fp, [sp, #4]
 800173e:	9700      	str	r7, [sp, #0]
 8001740:	4623      	mov	r3, r4
 8001742:	4a34      	ldr	r2, [pc, #208]	@ (8001814 <servo_init+0x134>)
 8001744:	4934      	ldr	r1, [pc, #208]	@ (8001818 <servo_init+0x138>)
 8001746:	4628      	mov	r0, r5
 8001748:	f000 f91b 	bl	8001982 <servo_iq18_velocity_init>
                                 VEL_KD, VEL_DT, VEL_KB);
        servo_iq18_current_init(&servo1_g, CUR_LIMIT, CUR_KP, CUR_KI, CUR_KD,
 800174c:	f8df a0cc 	ldr.w	sl, [pc, #204]	@ 800181c <servo_init+0x13c>
 8001750:	f8cd a008 	str.w	sl, [sp, #8]
 8001754:	f8df 90c8 	ldr.w	r9, [pc, #200]	@ 8001820 <servo_init+0x140>
 8001758:	f8cd 9004 	str.w	r9, [sp, #4]
 800175c:	9400      	str	r4, [sp, #0]
 800175e:	4b31      	ldr	r3, [pc, #196]	@ (8001824 <servo_init+0x144>)
 8001760:	4a31      	ldr	r2, [pc, #196]	@ (8001828 <servo_init+0x148>)
 8001762:	f04f 517e 	mov.w	r1, #1065353216	@ 0x3f800000
 8001766:	4628      	mov	r0, r5
 8001768:	f000 f93b 	bl	80019e2 <servo_iq18_current_init>
                                CUR_DT, CUR_KB);
        servo_iq18_setPositionTolerance(&servo1_g, ANG_TOLERANCE);
 800176c:	492f      	ldr	r1, [pc, #188]	@ (800182c <servo_init+0x14c>)
 800176e:	4628      	mov	r0, r5
 8001770:	f000 f981 	bl	8001a76 <servo_iq18_setPositionTolerance>
    }

    // Init servo2
    if (SERVO2_ENABLE)
    {
        servo_iq18_base_init(&servo2_g, Triple, MT_VELOCITY, MT_GEAR_RATIO, SERVO2_REVERSE);
 8001774:	4d2e      	ldr	r5, [pc, #184]	@ (8001830 <servo_init+0x150>)
 8001776:	9600      	str	r6, [sp, #0]
 8001778:	4b1e      	ldr	r3, [pc, #120]	@ (80017f4 <servo_init+0x114>)
 800177a:	4a1f      	ldr	r2, [pc, #124]	@ (80017f8 <servo_init+0x118>)
 800177c:	4631      	mov	r1, r6
 800177e:	4628      	mov	r0, r5
 8001780:	f000 f85c 	bl	800183c <servo_iq18_base_init>
        servo_iq18_encoder_init(&servo2_g, &htim2, ENC_TPR, SERVO2_ENC_REVERSE);
 8001784:	2301      	movs	r3, #1
 8001786:	222c      	movs	r2, #44	@ 0x2c
 8001788:	492a      	ldr	r1, [pc, #168]	@ (8001834 <servo_init+0x154>)
 800178a:	4628      	mov	r0, r5
 800178c:	f000 f884 	bl	8001898 <servo_iq18_encoder_init>

        servo_iq18_driver_init(&servo2_g, &htim3, 2, DIR2_1_GPIO_Port, DIR2_1_Pin, 0, 1000);
 8001790:	f44f 737a 	mov.w	r3, #1000	@ 0x3e8
 8001794:	9302      	str	r3, [sp, #8]
 8001796:	f8cd 8004 	str.w	r8, [sp, #4]
 800179a:	9600      	str	r6, [sp, #0]
 800179c:	4b26      	ldr	r3, [pc, #152]	@ (8001838 <servo_init+0x158>)
 800179e:	4632      	mov	r2, r6
 80017a0:	4918      	ldr	r1, [pc, #96]	@ (8001804 <servo_init+0x124>)
 80017a2:	4628      	mov	r0, r5
 80017a4:	f000 f88e 	bl	80018c4 <servo_iq18_driver_init>

        servo_iq18_position_init(&servo2_g, ANG_KP, ANG_KI, ANG_KD, ANG_DT, ANG_KB);
 80017a8:	9401      	str	r4, [sp, #4]
 80017aa:	9700      	str	r7, [sp, #0]
 80017ac:	4623      	mov	r3, r4
 80017ae:	4622      	mov	r2, r4
 80017b0:	4916      	ldr	r1, [pc, #88]	@ (800180c <servo_init+0x12c>)
 80017b2:	4628      	mov	r0, r5
 80017b4:	f000 f8b8 	bl	8001928 <servo_iq18_position_init>
        servo_iq18_velocity_init(&servo2_g, VEL_KP, VEL_KI,
 80017b8:	f8cd b004 	str.w	fp, [sp, #4]
 80017bc:	9700      	str	r7, [sp, #0]
 80017be:	4623      	mov	r3, r4
 80017c0:	4a14      	ldr	r2, [pc, #80]	@ (8001814 <servo_init+0x134>)
 80017c2:	4915      	ldr	r1, [pc, #84]	@ (8001818 <servo_init+0x138>)
 80017c4:	4628      	mov	r0, r5
 80017c6:	f000 f8dc 	bl	8001982 <servo_iq18_velocity_init>
                                 VEL_KD, VEL_DT, VEL_KB);
        servo_iq18_current_init(&servo2_g, CUR_LIMIT, CUR_KP, CUR_KI, CUR_KD,
 80017ca:	f8cd a008 	str.w	sl, [sp, #8]
 80017ce:	f8cd 9004 	str.w	r9, [sp, #4]
 80017d2:	9400      	str	r4, [sp, #0]
 80017d4:	4b13      	ldr	r3, [pc, #76]	@ (8001824 <servo_init+0x144>)
 80017d6:	4a14      	ldr	r2, [pc, #80]	@ (8001828 <servo_init+0x148>)
 80017d8:	f04f 517e 	mov.w	r1, #1065353216	@ 0x3f800000
 80017dc:	4628      	mov	r0, r5
 80017de:	f000 f900 	bl	80019e2 <servo_iq18_current_init>
                                CUR_DT, CUR_KB);
        servo_iq18_setPositionTolerance(&servo2_g, ANG_TOLERANCE);
 80017e2:	4912      	ldr	r1, [pc, #72]	@ (800182c <servo_init+0x14c>)
 80017e4:	4628      	mov	r0, r5
 80017e6:	f000 f946 	bl	8001a76 <servo_iq18_setPositionTolerance>
    }
 80017ea:	b005      	add	sp, #20
 80017ec:	e8bd 8ff0 	ldmia.w	sp!, {r4, r5, r6, r7, r8, r9, sl, fp, pc}
 80017f0:	200002b0 	.word	0x200002b0
 80017f4:	41aa6666 	.word	0x41aa6666
 80017f8:	44852000 	.word	0x44852000
 80017fc:	200005d4 	.word	0x200005d4
 8001800:	40010c00 	.word	0x40010c00
 8001804:	20000544 	.word	0x20000544
 8001808:	3b83126f 	.word	0x3b83126f
 800180c:	4064dd2f 	.word	0x4064dd2f
 8001810:	3f126e98 	.word	0x3f126e98
 8001814:	3e428f5c 	.word	0x3e428f5c
 8001818:	3d6a5f85 	.word	0x3d6a5f85
 800181c:	44a2472b 	.word	0x44a2472b
 8001820:	386903ba 	.word	0x386903ba
 8001824:	44e15b12 	.word	0x44e15b12
 8001828:	40bfd639 	.word	0x40bfd639
 800182c:	3ca3d70a 	.word	0x3ca3d70a
 8001830:	20000198 	.word	0x20000198
 8001834:	2000058c 	.word	0x2000058c
 8001838:	40010800 	.word	0x40010800

0800183c <servo_iq18_base_init>:
 *      Author: zhmis
 */
#include "servo_iq18.h"

void servo_iq18_base_init(servo_iq18_t *servo, enum loops servoLoops,
		float motorSpeed, float gearRatio, uint8_t reverse) {
 800183c:	e92d 41f0 	stmdb	sp!, {r4, r5, r6, r7, r8, lr}
 8001840:	4604      	mov	r4, r0
 8001842:	460d      	mov	r5, r1
 8001844:	4617      	mov	r7, r2
 8001846:	461e      	mov	r6, r3
 8001848:	f89d 8018 	ldrb.w	r8, [sp, #24]
	servo->controllerLoops = servoLoops;
 800184c:	f880 1114 	strb.w	r1, [r0, #276]	@ 0x114
	servo->encoder.gearRatio = _IQ18(gearRatio);
 8001850:	f04f 4191 	mov.w	r1, #1216348160	@ 0x48800000
 8001854:	4618      	mov	r0, r3
 8001856:	f7fe fc59 	bl	800010c <__aeabi_fmul>
 800185a:	f7fe fda7 	bl	80003ac <__aeabi_f2iz>
 800185e:	6220      	str	r0, [r4, #32]
	if (reverse) {
 8001860:	f1b8 0f00 	cmp.w	r8, #0
 8001864:	d014      	beq.n	8001890 <servo_iq18_base_init+0x54>
		servo->reverseFlag = -1;
 8001866:	23ff      	movs	r3, #255	@ 0xff
 8001868:	f884 3110 	strb.w	r3, [r4, #272]	@ 0x110
	} else {
		servo->reverseFlag = 1;
	}
	servo->maxShaftSpeed = _IQ18(motorSpeed / gearRatio);
 800186c:	4631      	mov	r1, r6
 800186e:	4638      	mov	r0, r7
 8001870:	f7fe fd00 	bl	8000274 <__aeabi_fdiv>
 8001874:	f04f 4191 	mov.w	r1, #1216348160	@ 0x48800000
 8001878:	f7fe fc48 	bl	800010c <__aeabi_fmul>
 800187c:	f7fe fd96 	bl	80003ac <__aeabi_f2iz>
 8001880:	f8c4 0108 	str.w	r0, [r4, #264]	@ 0x108

	if (servoLoops != Single) {
 8001884:	b115      	cbz	r5, 800188c <servo_iq18_base_init+0x50>
		servo->pid_position.lowerLimit = -servo->maxShaftSpeed;
 8001886:	4243      	negs	r3, r0
 8001888:	65e3      	str	r3, [r4, #92]	@ 0x5c
		servo->pid_position.upperLimit = servo->maxShaftSpeed;
 800188a:	65a0      	str	r0, [r4, #88]	@ 0x58
	}
}
 800188c:	e8bd 81f0 	ldmia.w	sp!, {r4, r5, r6, r7, r8, pc}
		servo->reverseFlag = 1;
 8001890:	2301      	movs	r3, #1
 8001892:	f884 3110 	strb.w	r3, [r4, #272]	@ 0x110
 8001896:	e7e9      	b.n	800186c <servo_iq18_base_init+0x30>

08001898 <servo_iq18_encoder_init>:

void servo_iq18_encoder_init(servo_iq18_t *servo, TIM_HandleTypeDef *htim,
		uint16_t CPR, uint8_t encoder_is_reversed) {
 8001898:	b538      	push	{r3, r4, r5, lr}
 800189a:	4604      	mov	r4, r0
 800189c:	461d      	mov	r5, r3
	servo->encoder.htim = htim;
 800189e:	6001      	str	r1, [r0, #0]
	servo->encoder.countsPerRevolution = CPR;
 80018a0:	8542      	strh	r2, [r0, #42]	@ 0x2a
	initEMA_iq18(&servo->encoder.filter, VEL_EMA, 0);
 80018a2:	2200      	movs	r2, #0
 80018a4:	4906      	ldr	r1, [pc, #24]	@ (80018c0 <servo_iq18_encoder_init+0x28>)
 80018a6:	3004      	adds	r0, #4
 80018a8:	f7ff f815 	bl	80008d6 <initEMA_iq18>
	if(!encoder_is_reversed){
 80018ac:	b91d      	cbnz	r5, 80018b6 <servo_iq18_encoder_init+0x1e>
		servo->encoder.reverse_flag = 1;
 80018ae:	2301      	movs	r3, #1
 80018b0:	f884 302c 	strb.w	r3, [r4, #44]	@ 0x2c
	}else{
		servo->encoder.reverse_flag = -1;
	}
}
 80018b4:	bd38      	pop	{r3, r4, r5, pc}
		servo->encoder.reverse_flag = -1;
 80018b6:	23ff      	movs	r3, #255	@ 0xff
 80018b8:	f884 302c 	strb.w	r3, [r4, #44]	@ 0x2c
}
 80018bc:	e7fa      	b.n	80018b4 <servo_iq18_encoder_init+0x1c>
 80018be:	bf00      	nop
 80018c0:	3ecccccd 	.word	0x3ecccccd

080018c4 <servo_iq18_driver_init>:

void servo_iq18_driver_init(servo_iq18_t *servo, TIM_HandleTypeDef *htim,
		uint8_t timerChannel, GPIO_TypeDef *dir1_Port, uint32_t dir1_Pin, uint16_t minDuty,
		uint16_t maxDuty) {
	servo->driver.htim = htim;
 80018c4:	f8c0 10e4 	str.w	r1, [r0, #228]	@ 0xe4
	servo->driver.timerChannel = timerChannel;
 80018c8:	f880 20f9 	strb.w	r2, [r0, #249]	@ 0xf9
	servo->driver.dir1_Port = dir1_Port;
 80018cc:	f8c0 30e8 	str.w	r3, [r0, #232]	@ 0xe8
	servo->driver.dir1_Pin = dir1_Pin;
 80018d0:	9b00      	ldr	r3, [sp, #0]
 80018d2:	f8c0 30f0 	str.w	r3, [r0, #240]	@ 0xf0

	servo->driver.minDuty = minDuty;
 80018d6:	f8bd 3004 	ldrh.w	r3, [sp, #4]
 80018da:	f8a0 30f6 	strh.w	r3, [r0, #246]	@ 0xf6
	servo->driver.maxDuty = maxDuty;
 80018de:	f8bd 3008 	ldrh.w	r3, [sp, #8]
 80018e2:	f8a0 30f4 	strh.w	r3, [r0, #244]	@ 0xf4

	switch (servo->controllerLoops) {
 80018e6:	f890 3114 	ldrb.w	r3, [r0, #276]	@ 0x114
 80018ea:	2b01      	cmp	r3, #1
 80018ec:	d009      	beq.n	8001902 <servo_iq18_driver_init+0x3e>
 80018ee:	2b02      	cmp	r3, #2
 80018f0:	d00f      	beq.n	8001912 <servo_iq18_driver_init+0x4e>
 80018f2:	b9ab      	cbnz	r3, 8001920 <servo_iq18_driver_init+0x5c>
	case Single:
		servo->pid_position.lowerLimit = _IQ18(-1);
 80018f4:	f5a3 2380 	sub.w	r3, r3, #262144	@ 0x40000
 80018f8:	65c3      	str	r3, [r0, #92]	@ 0x5c
		servo->pid_position.upperLimit = _IQ18(1);
 80018fa:	f44f 2380 	mov.w	r3, #262144	@ 0x40000
 80018fe:	6583      	str	r3, [r0, #88]	@ 0x58
		break;
 8001900:	4770      	bx	lr
	case Double:
		servo->pid_velocity.lowerLimit = _IQ18(-1);
 8001902:	4b08      	ldr	r3, [pc, #32]	@ (8001924 <servo_iq18_driver_init+0x60>)
 8001904:	f8c0 3098 	str.w	r3, [r0, #152]	@ 0x98
		servo->pid_velocity.upperLimit = _IQ18(1);
 8001908:	f44f 2380 	mov.w	r3, #262144	@ 0x40000
 800190c:	f8c0 3094 	str.w	r3, [r0, #148]	@ 0x94
		break;
 8001910:	4770      	bx	lr
	case Triple:
		servo->pid_current.lowerLimit = _IQ18(-1);
 8001912:	4b04      	ldr	r3, [pc, #16]	@ (8001924 <servo_iq18_driver_init+0x60>)
 8001914:	f8c0 30d4 	str.w	r3, [r0, #212]	@ 0xd4
		servo->pid_current.upperLimit = _IQ18(1);
 8001918:	f44f 2380 	mov.w	r3, #262144	@ 0x40000
 800191c:	f8c0 30d0 	str.w	r3, [r0, #208]	@ 0xd0
		break;
	default:
		break;
	}
}
 8001920:	4770      	bx	lr
 8001922:	bf00      	nop
 8001924:	fffc0000 	.word	0xfffc0000

08001928 <servo_iq18_position_init>:

void servo_iq18_position_init(servo_iq18_t *servo, float kp, float ki, float kd,
		float dt, float kb) {
 8001928:	b570      	push	{r4, r5, r6, lr}
 800192a:	4604      	mov	r4, r0
 800192c:	4608      	mov	r0, r1
 800192e:	4616      	mov	r6, r2
 8001930:	461d      	mov	r5, r3
	servo->pid_position.kp = _IQ18(kp);
 8001932:	f04f 4191 	mov.w	r1, #1216348160	@ 0x48800000
 8001936:	f7fe fbe9 	bl	800010c <__aeabi_fmul>
 800193a:	f7fe fd37 	bl	80003ac <__aeabi_f2iz>
 800193e:	6360      	str	r0, [r4, #52]	@ 0x34
	servo->pid_position.ki = _IQ18(ki);
 8001940:	f04f 4191 	mov.w	r1, #1216348160	@ 0x48800000
 8001944:	4630      	mov	r0, r6
 8001946:	f7fe fbe1 	bl	800010c <__aeabi_fmul>
 800194a:	f7fe fd2f 	bl	80003ac <__aeabi_f2iz>
 800194e:	63a0      	str	r0, [r4, #56]	@ 0x38
	servo->pid_position.kd = _IQ18(kd);
 8001950:	f04f 4191 	mov.w	r1, #1216348160	@ 0x48800000
 8001954:	4628      	mov	r0, r5
 8001956:	f7fe fbd9 	bl	800010c <__aeabi_fmul>
 800195a:	f7fe fd27 	bl	80003ac <__aeabi_f2iz>
 800195e:	63e0      	str	r0, [r4, #60]	@ 0x3c
	servo->pid_position.dt = _IQ18(dt);
 8001960:	f04f 4191 	mov.w	r1, #1216348160	@ 0x48800000
 8001964:	9804      	ldr	r0, [sp, #16]
 8001966:	f7fe fbd1 	bl	800010c <__aeabi_fmul>
 800196a:	f7fe fd1f 	bl	80003ac <__aeabi_f2iz>
 800196e:	6560      	str	r0, [r4, #84]	@ 0x54
	servo->pid_position.kb = _IQ18(kb);
 8001970:	f04f 4191 	mov.w	r1, #1216348160	@ 0x48800000
 8001974:	9805      	ldr	r0, [sp, #20]
 8001976:	f7fe fbc9 	bl	800010c <__aeabi_fmul>
 800197a:	f7fe fd17 	bl	80003ac <__aeabi_f2iz>
 800197e:	6420      	str	r0, [r4, #64]	@ 0x40
}
 8001980:	bd70      	pop	{r4, r5, r6, pc}

08001982 <servo_iq18_velocity_init>:

void servo_iq18_velocity_init(servo_iq18_t *servo, float kp, float ki, float kd,
		float dt, float kb) {
 8001982:	b570      	push	{r4, r5, r6, lr}
 8001984:	4604      	mov	r4, r0
 8001986:	4608      	mov	r0, r1
 8001988:	4616      	mov	r6, r2
 800198a:	461d      	mov	r5, r3
	servo->pid_velocity.kp = _IQ18(kp);
 800198c:	f04f 4191 	mov.w	r1, #1216348160	@ 0x48800000
 8001990:	f7fe fbbc 	bl	800010c <__aeabi_fmul>
 8001994:	f7fe fd0a 	bl	80003ac <__aeabi_f2iz>
 8001998:	6720      	str	r0, [r4, #112]	@ 0x70
	servo->pid_velocity.ki = _IQ18(ki);
 800199a:	f04f 4191 	mov.w	r1, #1216348160	@ 0x48800000
 800199e:	4630      	mov	r0, r6
 80019a0:	f7fe fbb4 	bl	800010c <__aeabi_fmul>
 80019a4:	f7fe fd02 	bl	80003ac <__aeabi_f2iz>
 80019a8:	6760      	str	r0, [r4, #116]	@ 0x74
	servo->pid_velocity.kd = _IQ18(kd);
 80019aa:	f04f 4191 	mov.w	r1, #1216348160	@ 0x48800000
 80019ae:	4628      	mov	r0, r5
 80019b0:	f7fe fbac 	bl	800010c <__aeabi_fmul>
 80019b4:	f7fe fcfa 	bl	80003ac <__aeabi_f2iz>
 80019b8:	67a0      	str	r0, [r4, #120]	@ 0x78
	servo->pid_velocity.dt = _IQ18(dt);
 80019ba:	f04f 4191 	mov.w	r1, #1216348160	@ 0x48800000
 80019be:	9804      	ldr	r0, [sp, #16]
 80019c0:	f7fe fba4 	bl	800010c <__aeabi_fmul>
 80019c4:	f7fe fcf2 	bl	80003ac <__aeabi_f2iz>
 80019c8:	4605      	mov	r5, r0
 80019ca:	f8c4 0090 	str.w	r0, [r4, #144]	@ 0x90
	servo->pid_velocity.kb = _IQ18(kb);
 80019ce:	f04f 4191 	mov.w	r1, #1216348160	@ 0x48800000
 80019d2:	9805      	ldr	r0, [sp, #20]
 80019d4:	f7fe fb9a 	bl	800010c <__aeabi_fmul>
 80019d8:	f7fe fce8 	bl	80003ac <__aeabi_f2iz>
 80019dc:	67e0      	str	r0, [r4, #124]	@ 0x7c
	servo->encoder.dt = _IQ18(dt);
 80019de:	61e5      	str	r5, [r4, #28]
}
 80019e0:	bd70      	pop	{r4, r5, r6, pc}

080019e2 <servo_iq18_current_init>:

void servo_iq18_current_init(servo_iq18_t *servo, float ratedCurrent, float kp,
		float ki, float kd, float dt, float kb) {
 80019e2:	b570      	push	{r4, r5, r6, lr}
 80019e4:	4604      	mov	r4, r0
 80019e6:	460d      	mov	r5, r1
 80019e8:	461e      	mov	r6, r3
	servo->pid_current.kp = _IQ18(kp);
 80019ea:	f04f 4191 	mov.w	r1, #1216348160	@ 0x48800000
 80019ee:	4610      	mov	r0, r2
 80019f0:	f7fe fb8c 	bl	800010c <__aeabi_fmul>
 80019f4:	f7fe fcda 	bl	80003ac <__aeabi_f2iz>
 80019f8:	f8c4 00ac 	str.w	r0, [r4, #172]	@ 0xac
	servo->pid_current.ki = _IQ18(ki);
 80019fc:	f04f 4191 	mov.w	r1, #1216348160	@ 0x48800000
 8001a00:	4630      	mov	r0, r6
 8001a02:	f7fe fb83 	bl	800010c <__aeabi_fmul>
 8001a06:	f7fe fcd1 	bl	80003ac <__aeabi_f2iz>
 8001a0a:	f8c4 00b0 	str.w	r0, [r4, #176]	@ 0xb0
	servo->pid_current.kd = _IQ18(kd);
 8001a0e:	f04f 4191 	mov.w	r1, #1216348160	@ 0x48800000
 8001a12:	9804      	ldr	r0, [sp, #16]
 8001a14:	f7fe fb7a 	bl	800010c <__aeabi_fmul>
 8001a18:	f7fe fcc8 	bl	80003ac <__aeabi_f2iz>
 8001a1c:	f8c4 00b4 	str.w	r0, [r4, #180]	@ 0xb4
	servo->pid_current.dt = _IQ18(dt);
 8001a20:	f04f 4191 	mov.w	r1, #1216348160	@ 0x48800000
 8001a24:	9805      	ldr	r0, [sp, #20]
 8001a26:	f7fe fb71 	bl	800010c <__aeabi_fmul>
 8001a2a:	f7fe fcbf 	bl	80003ac <__aeabi_f2iz>
 8001a2e:	f8c4 00cc 	str.w	r0, [r4, #204]	@ 0xcc
	servo->pid_current.kb = _IQ18(kb);
 8001a32:	f04f 4191 	mov.w	r1, #1216348160	@ 0x48800000
 8001a36:	9806      	ldr	r0, [sp, #24]
 8001a38:	f7fe fb68 	bl	800010c <__aeabi_fmul>
 8001a3c:	f7fe fcb6 	bl	80003ac <__aeabi_f2iz>
 8001a40:	f8c4 00b8 	str.w	r0, [r4, #184]	@ 0xb8
	servo->maxCurrent = _IQ18(ratedCurrent);
 8001a44:	f04f 4191 	mov.w	r1, #1216348160	@ 0x48800000
 8001a48:	4628      	mov	r0, r5
 8001a4a:	f7fe fb5f 	bl	800010c <__aeabi_fmul>
 8001a4e:	4606      	mov	r6, r0
 8001a50:	f7fe fcac 	bl	80003ac <__aeabi_f2iz>
 8001a54:	f8c4 010c 	str.w	r0, [r4, #268]	@ 0x10c
	if (servo->controllerLoops == Triple) {
 8001a58:	f894 3114 	ldrb.w	r3, [r4, #276]	@ 0x114
 8001a5c:	2b02      	cmp	r3, #2
 8001a5e:	d000      	beq.n	8001a62 <servo_iq18_current_init+0x80>
		servo->pid_velocity.lowerLimit = _IQ18(-ratedCurrent);
		servo->pid_velocity.upperLimit = _IQ18(ratedCurrent);
	}
}
 8001a60:	bd70      	pop	{r4, r5, r6, pc}
 8001a62:	4605      	mov	r5, r0
		servo->pid_velocity.lowerLimit = _IQ18(-ratedCurrent);
 8001a64:	f106 4000 	add.w	r0, r6, #2147483648	@ 0x80000000
 8001a68:	f7fe fca0 	bl	80003ac <__aeabi_f2iz>
 8001a6c:	f8c4 0098 	str.w	r0, [r4, #152]	@ 0x98
		servo->pid_velocity.upperLimit = _IQ18(ratedCurrent);
 8001a70:	f8c4 5094 	str.w	r5, [r4, #148]	@ 0x94
}
 8001a74:	e7f4      	b.n	8001a60 <servo_iq18_current_init+0x7e>

08001a76 <servo_iq18_setPositionTolerance>:

void servo_iq18_setPositionTolerance(servo_iq18_t *servo, float tolerance) {
 8001a76:	b510      	push	{r4, lr}
 8001a78:	4604      	mov	r4, r0
 8001a7a:	4608      	mov	r0, r1
	servo->pid_position.toleranceBand = _IQ18(tolerance);
 8001a7c:	f04f 4191 	mov.w	r1, #1216348160	@ 0x48800000
 8001a80:	f7fe fb44 	bl	800010c <__aeabi_fmul>
 8001a84:	f7fe fc92 	bl	80003ac <__aeabi_f2iz>
 8001a88:	6460      	str	r0, [r4, #68]	@ 0x44
}
 8001a8a:	bd10      	pop	{r4, pc}

08001a8c <servo_iq18_velocityLoop>:
		break;
	}
	}
}

void servo_iq18_velocityLoop(servo_iq18_t *servo) {
 8001a8c:	b538      	push	{r3, r4, r5, lr}
 8001a8e:	4604      	mov	r4, r0
	// encoder_updatePosition_iq18(&servo->encoder);
	// encoder_updateVelocity_qep_iq18(&servo->encoder);
	if (servo->currentMode != Current) {
 8001a90:	f890 3115 	ldrb.w	r3, [r0, #277]	@ 0x115
 8001a94:	2b03      	cmp	r3, #3
 8001a96:	d10e      	bne.n	8001ab6 <servo_iq18_velocityLoop+0x2a>
		pid_iq18_calculate(&servo->pid_velocity, servo->velocitySetpoint,
				encoder_getVelocity_iq18(&servo->encoder));
	}

	switch (servo->controllerLoops) {
 8001a98:	f894 3114 	ldrb.w	r3, [r4, #276]	@ 0x114
 8001a9c:	2b01      	cmp	r3, #1
 8001a9e:	d015      	beq.n	8001acc <servo_iq18_velocityLoop+0x40>
 8001aa0:	2b02      	cmp	r3, #2
 8001aa2:	d026      	beq.n	8001af2 <servo_iq18_velocityLoop+0x66>
 8001aa4:	b933      	cbnz	r3, 8001ab4 <servo_iq18_velocityLoop+0x28>
	case Single:
		pid_iq18_reset(&servo->pid_velocity);
 8001aa6:	f104 006c 	add.w	r0, r4, #108	@ 0x6c
 8001aaa:	f7ff fb69 	bl	8001180 <pid_iq18_reset>
		servo->velocitySetpoint = 0;
 8001aae:	2300      	movs	r3, #0
 8001ab0:	f8c4 3100 	str.w	r3, [r4, #256]	@ 0x100
			pid_iq18_reset(&servo->pid_velocity);
			servo->velocitySetpoint = 0;
		}
		break;
	}
}
 8001ab4:	bd38      	pop	{r3, r4, r5, pc}
		pid_iq18_calculate(&servo->pid_velocity, servo->velocitySetpoint,
 8001ab6:	f8d0 5100 	ldr.w	r5, [r0, #256]	@ 0x100
 8001aba:	f7fe ff7c 	bl	80009b6 <encoder_getVelocity_iq18>
 8001abe:	4602      	mov	r2, r0
 8001ac0:	4629      	mov	r1, r5
 8001ac2:	f104 006c 	add.w	r0, r4, #108	@ 0x6c
 8001ac6:	f7ff fb62 	bl	800118e <pid_iq18_calculate>
 8001aca:	e7e5      	b.n	8001a98 <servo_iq18_velocityLoop+0xc>
		int32_t duty = (int32_t) (((int64_t) pid_iq18_getOutput(
 8001acc:	f104 006c 	add.w	r0, r4, #108	@ 0x6c
 8001ad0:	f7ff fb9d 	bl	800120e <pid_iq18_getOutput>
 8001ad4:	17c2      	asrs	r2, r0, #31
				&servo->pid_velocity) * servo->driver.maxDuty) >> 18);
 8001ad6:	f8b4 30f4 	ldrh.w	r3, [r4, #244]	@ 0xf4
 8001ada:	fba0 0103 	umull	r0, r1, r0, r3
 8001ade:	fb03 1102 	mla	r1, r3, r2, r1
 8001ae2:	0c80      	lsrs	r0, r0, #18
		pwm_setSpeed(&servo->driver, duty);
 8001ae4:	ea40 3181 	orr.w	r1, r0, r1, lsl #14
 8001ae8:	f104 00e4 	add.w	r0, r4, #228	@ 0xe4
 8001aec:	f7ff fd78 	bl	80015e0 <pwm_setSpeed>
		break;
 8001af0:	e7e0      	b.n	8001ab4 <servo_iq18_velocityLoop+0x28>
		if (servo->currentMode != Current) {
 8001af2:	f894 3115 	ldrb.w	r3, [r4, #277]	@ 0x115
 8001af6:	2b03      	cmp	r3, #3
 8001af8:	d006      	beq.n	8001b08 <servo_iq18_velocityLoop+0x7c>
			servo->currentSetpoint = pid_iq18_getOutput(&servo->pid_velocity);
 8001afa:	f104 006c 	add.w	r0, r4, #108	@ 0x6c
 8001afe:	f7ff fb86 	bl	800120e <pid_iq18_getOutput>
 8001b02:	f8c4 0104 	str.w	r0, [r4, #260]	@ 0x104
 8001b06:	e7d5      	b.n	8001ab4 <servo_iq18_velocityLoop+0x28>
			pid_iq18_reset(&servo->pid_velocity);
 8001b08:	f104 006c 	add.w	r0, r4, #108	@ 0x6c
 8001b0c:	f7ff fb38 	bl	8001180 <pid_iq18_reset>
			servo->velocitySetpoint = 0;
 8001b10:	2300      	movs	r3, #0
 8001b12:	f8c4 3100 	str.w	r3, [r4, #256]	@ 0x100
}
 8001b16:	e7cd      	b.n	8001ab4 <servo_iq18_velocityLoop+0x28>

08001b18 <servo_iq18_currentLoop>:

void servo_iq18_currentLoop(servo_iq18_t *servo, _iq18 currentFeedback) {
 8001b18:	b538      	push	{r3, r4, r5, lr}
 8001b1a:	4604      	mov	r4, r0
	if (servo->controllerLoops == Triple) {
 8001b1c:	f890 3114 	ldrb.w	r3, [r0, #276]	@ 0x114
 8001b20:	2b02      	cmp	r3, #2
 8001b22:	d006      	beq.n	8001b32 <servo_iq18_currentLoop+0x1a>
				currentFeedback);
		int32_t duty = (int32_t) (((int64_t) pid_iq18_getOutput(
				&servo->pid_current) * servo->driver.maxDuty) >> 18);
		pwm_setSpeed(&servo->driver, duty);
	} else {
		pid_iq18_reset(&servo->pid_current);
 8001b24:	30a8      	adds	r0, #168	@ 0xa8
 8001b26:	f7ff fb2b 	bl	8001180 <pid_iq18_reset>
		servo->currentSetpoint = 0;
 8001b2a:	2300      	movs	r3, #0
 8001b2c:	f8c4 3104 	str.w	r3, [r4, #260]	@ 0x104
	}
}
 8001b30:	bd38      	pop	{r3, r4, r5, pc}
		pid_iq18_calculate(&servo->pid_current, servo->currentSetpoint,
 8001b32:	f100 05a8 	add.w	r5, r0, #168	@ 0xa8
 8001b36:	460a      	mov	r2, r1
 8001b38:	f8d0 1104 	ldr.w	r1, [r0, #260]	@ 0x104
 8001b3c:	4628      	mov	r0, r5
 8001b3e:	f7ff fb26 	bl	800118e <pid_iq18_calculate>
		int32_t duty = (int32_t) (((int64_t) pid_iq18_getOutput(
 8001b42:	4628      	mov	r0, r5
 8001b44:	f7ff fb63 	bl	800120e <pid_iq18_getOutput>
 8001b48:	17c2      	asrs	r2, r0, #31
				&servo->pid_current) * servo->driver.maxDuty) >> 18);
 8001b4a:	f8b4 30f4 	ldrh.w	r3, [r4, #244]	@ 0xf4
 8001b4e:	fba0 0103 	umull	r0, r1, r0, r3
 8001b52:	fb03 1102 	mla	r1, r3, r2, r1
 8001b56:	0c80      	lsrs	r0, r0, #18
		pwm_setSpeed(&servo->driver, duty);
 8001b58:	ea40 3181 	orr.w	r1, r0, r1, lsl #14
 8001b5c:	f104 00e4 	add.w	r0, r4, #228	@ 0xe4
 8001b60:	f7ff fd3e 	bl	80015e0 <pwm_setSpeed>
 8001b64:	e7e4      	b.n	8001b30 <servo_iq18_currentLoop+0x18>

08001b66 <servo_iq18_controlPosition>:

void servo_iq18_controlPosition(servo_iq18_t *servo, _iq18 setpoint) {
	servo->currentMode = Position;
 8001b66:	2301      	movs	r3, #1
 8001b68:	f880 3115 	strb.w	r3, [r0, #277]	@ 0x115
	servo->positionSetpoint = setpoint * servo->reverseFlag;
 8001b6c:	f990 3110 	ldrsb.w	r3, [r0, #272]	@ 0x110
 8001b70:	fb01 f303 	mul.w	r3, r1, r3
 8001b74:	f8c0 30fc 	str.w	r3, [r0, #252]	@ 0xfc
}
 8001b78:	4770      	bx	lr

08001b7a <servo_iq18_controlVelocity>:

void servo_iq18_controlVelocity(servo_iq18_t *servo, _iq18 setpoint) {
	if (servo->controllerLoops != Single) {
 8001b7a:	f890 3114 	ldrb.w	r3, [r0, #276]	@ 0x114
 8001b7e:	b183      	cbz	r3, 8001ba2 <servo_iq18_controlVelocity+0x28>
		servo->currentMode = Velocity;
 8001b80:	2302      	movs	r3, #2
 8001b82:	f880 3115 	strb.w	r3, [r0, #277]	@ 0x115
		// _iq18 vel_setp_iq18 = (_iq18)setpoint_q9 << 9;
		servo->velocitySetpoint = _IQsat(setpoint * servo->reverseFlag,
 8001b86:	f990 2110 	ldrsb.w	r2, [r0, #272]	@ 0x110
 8001b8a:	fb01 f202 	mul.w	r2, r1, r2
 8001b8e:	f8d0 3108 	ldr.w	r3, [r0, #264]	@ 0x108
 8001b92:	429a      	cmp	r2, r3
 8001b94:	dc03      	bgt.n	8001b9e <servo_iq18_controlVelocity+0x24>
 8001b96:	425b      	negs	r3, r3
 8001b98:	4293      	cmp	r3, r2
 8001b9a:	bfb8      	it	lt
 8001b9c:	4613      	movlt	r3, r2
 8001b9e:	f8c0 3100 	str.w	r3, [r0, #256]	@ 0x100
				servo->maxShaftSpeed, -servo->maxShaftSpeed);
	}
}
 8001ba2:	4770      	bx	lr

08001ba4 <servo_iq18_controlCurrent>:

void servo_iq18_controlCurrent(servo_iq18_t *servo, _iq18 setpoint) {
	if (servo->controllerLoops == Triple) {
 8001ba4:	f890 3114 	ldrb.w	r3, [r0, #276]	@ 0x114
 8001ba8:	2b02      	cmp	r3, #2
 8001baa:	d000      	beq.n	8001bae <servo_iq18_controlCurrent+0xa>
		servo->currentMode = Current;
		servo->currentSetpoint = _IQsat(setpoint * servo->reverseFlag,
				servo->maxCurrent, -servo->maxCurrent);
		// servo->currentSetpoint = _IQ18(setpoint);
	}
}
 8001bac:	4770      	bx	lr
		servo->currentMode = Current;
 8001bae:	2303      	movs	r3, #3
 8001bb0:	f880 3115 	strb.w	r3, [r0, #277]	@ 0x115
		servo->currentSetpoint = _IQsat(setpoint * servo->reverseFlag,
 8001bb4:	f990 2110 	ldrsb.w	r2, [r0, #272]	@ 0x110
 8001bb8:	fb01 f202 	mul.w	r2, r1, r2
 8001bbc:	f8d0 310c 	ldr.w	r3, [r0, #268]	@ 0x10c
 8001bc0:	429a      	cmp	r2, r3
 8001bc2:	dc03      	bgt.n	8001bcc <servo_iq18_controlCurrent+0x28>
 8001bc4:	425b      	negs	r3, r3
 8001bc6:	4293      	cmp	r3, r2
 8001bc8:	bfb8      	it	lt
 8001bca:	4613      	movlt	r3, r2
 8001bcc:	f8c0 3104 	str.w	r3, [r0, #260]	@ 0x104
}
 8001bd0:	e7ec      	b.n	8001bac <servo_iq18_controlCurrent+0x8>

08001bd2 <servo_iq18_reset>:

void servo_iq18_reset(servo_iq18_t *servo){
 8001bd2:	b510      	push	{r4, lr}
 8001bd4:	4604      	mov	r4, r0
	// encoder_reset_iq18(&servo->encoder);
	pid_iq18_reset(&servo->pid_current);
 8001bd6:	30a8      	adds	r0, #168	@ 0xa8
 8001bd8:	f7ff fad2 	bl	8001180 <pid_iq18_reset>
	pid_iq18_reset(&servo->pid_velocity);
 8001bdc:	f104 006c 	add.w	r0, r4, #108	@ 0x6c
 8001be0:	f7ff face 	bl	8001180 <pid_iq18_reset>
	pid_iq18_reset(&servo->pid_position);
 8001be4:	f104 0030 	add.w	r0, r4, #48	@ 0x30
 8001be8:	f7ff faca 	bl	8001180 <pid_iq18_reset>
 8001bec:	bd10      	pop	{r4, pc}
	...

08001bf0 <MX_SPI1_Init>:
DMA_HandleTypeDef hdma_spi1_rx;
DMA_HandleTypeDef hdma_spi1_tx;

/* SPI1 init function */
void MX_SPI1_Init(void)
{
 8001bf0:	b508      	push	{r3, lr}
  /* USER CODE END SPI1_Init 0 */

  /* USER CODE BEGIN SPI1_Init 1 */

  /* USER CODE END SPI1_Init 1 */
  hspi1.Instance = SPI1;
 8001bf2:	480f      	ldr	r0, [pc, #60]	@ (8001c30 <MX_SPI1_Init+0x40>)
 8001bf4:	4b0f      	ldr	r3, [pc, #60]	@ (8001c34 <MX_SPI1_Init+0x44>)
 8001bf6:	6003      	str	r3, [r0, #0]
  hspi1.Init.Mode = SPI_MODE_MASTER;
 8001bf8:	f44f 7382 	mov.w	r3, #260	@ 0x104
 8001bfc:	6043      	str	r3, [r0, #4]
  hspi1.Init.Direction = SPI_DIRECTION_2LINES;
 8001bfe:	2300      	movs	r3, #0
 8001c00:	6083      	str	r3, [r0, #8]
  hspi1.Init.DataSize = SPI_DATASIZE_16BIT;
 8001c02:	f44f 6200 	mov.w	r2, #2048	@ 0x800
 8001c06:	60c2      	str	r2, [r0, #12]
  hspi1.Init.CLKPolarity = SPI_POLARITY_LOW;
 8001c08:	6103      	str	r3, [r0, #16]
  hspi1.Init.CLKPhase = SPI_PHASE_2EDGE;
 8001c0a:	2201      	movs	r2, #1
 8001c0c:	6142      	str	r2, [r0, #20]
  hspi1.Init.NSS = SPI_NSS_SOFT;
 8001c0e:	f44f 7200 	mov.w	r2, #512	@ 0x200
 8001c12:	6182      	str	r2, [r0, #24]
  hspi1.Init.BaudRatePrescaler = SPI_BAUDRATEPRESCALER_64;
 8001c14:	2228      	movs	r2, #40	@ 0x28
 8001c16:	61c2      	str	r2, [r0, #28]
  hspi1.Init.FirstBit = SPI_FIRSTBIT_MSB;
 8001c18:	6203      	str	r3, [r0, #32]
  hspi1.Init.TIMode = SPI_TIMODE_DISABLE;
 8001c1a:	6243      	str	r3, [r0, #36]	@ 0x24
  hspi1.Init.CRCCalculation = SPI_CRCCALCULATION_DISABLE;
 8001c1c:	6283      	str	r3, [r0, #40]	@ 0x28
  hspi1.Init.CRCPolynomial = 10;
 8001c1e:	230a      	movs	r3, #10
 8001c20:	62c3      	str	r3, [r0, #44]	@ 0x2c
  if (HAL_SPI_Init(&hspi1) != HAL_OK)
 8001c22:	f001 fe93 	bl	800394c <HAL_SPI_Init>
 8001c26:	b900      	cbnz	r0, 8001c2a <MX_SPI1_Init+0x3a>
  }
  /* USER CODE BEGIN SPI1_Init 2 */

  /* USER CODE END SPI1_Init 2 */

}
 8001c28:	bd08      	pop	{r3, pc}
    Error_Handler();
 8001c2a:	f7ff f965 	bl	8000ef8 <Error_Handler>
}
 8001c2e:	e7fb      	b.n	8001c28 <MX_SPI1_Init+0x38>
 8001c30:	200004a4 	.word	0x200004a4
 8001c34:	40013000 	.word	0x40013000

08001c38 <HAL_SPI_MspInit>:

void HAL_SPI_MspInit(SPI_HandleTypeDef* spiHandle)
{
 8001c38:	b570      	push	{r4, r5, r6, lr}
 8001c3a:	b086      	sub	sp, #24

  GPIO_InitTypeDef GPIO_InitStruct = {0};
 8001c3c:	2300      	movs	r3, #0
 8001c3e:	9302      	str	r3, [sp, #8]
 8001c40:	9303      	str	r3, [sp, #12]
 8001c42:	9304      	str	r3, [sp, #16]
 8001c44:	9305      	str	r3, [sp, #20]
  if(spiHandle->Instance==SPI1)
 8001c46:	6802      	ldr	r2, [r0, #0]
 8001c48:	4b36      	ldr	r3, [pc, #216]	@ (8001d24 <HAL_SPI_MspInit+0xec>)
 8001c4a:	429a      	cmp	r2, r3
 8001c4c:	d001      	beq.n	8001c52 <HAL_SPI_MspInit+0x1a>
    HAL_NVIC_EnableIRQ(SPI1_IRQn);
  /* USER CODE BEGIN SPI1_MspInit 1 */

  /* USER CODE END SPI1_MspInit 1 */
  }
}
 8001c4e:	b006      	add	sp, #24
 8001c50:	bd70      	pop	{r4, r5, r6, pc}
 8001c52:	4604      	mov	r4, r0
    __HAL_RCC_SPI1_CLK_ENABLE();
 8001c54:	f503 4360 	add.w	r3, r3, #57344	@ 0xe000
 8001c58:	699a      	ldr	r2, [r3, #24]
 8001c5a:	f442 5280 	orr.w	r2, r2, #4096	@ 0x1000
 8001c5e:	619a      	str	r2, [r3, #24]
 8001c60:	699a      	ldr	r2, [r3, #24]
 8001c62:	f402 5280 	and.w	r2, r2, #4096	@ 0x1000
 8001c66:	9200      	str	r2, [sp, #0]
 8001c68:	9a00      	ldr	r2, [sp, #0]
    __HAL_RCC_GPIOA_CLK_ENABLE();
 8001c6a:	699a      	ldr	r2, [r3, #24]
 8001c6c:	f042 0204 	orr.w	r2, r2, #4
 8001c70:	619a      	str	r2, [r3, #24]
 8001c72:	699b      	ldr	r3, [r3, #24]
 8001c74:	f003 0304 	and.w	r3, r3, #4
 8001c78:	9301      	str	r3, [sp, #4]
 8001c7a:	9b01      	ldr	r3, [sp, #4]
    GPIO_InitStruct.Pin = GPIO_PIN_5|GPIO_PIN_7;
 8001c7c:	23a0      	movs	r3, #160	@ 0xa0
 8001c7e:	9302      	str	r3, [sp, #8]
    GPIO_InitStruct.Mode = GPIO_MODE_AF_PP;
 8001c80:	2302      	movs	r3, #2
 8001c82:	9303      	str	r3, [sp, #12]
    GPIO_InitStruct.Speed = GPIO_SPEED_FREQ_HIGH;
 8001c84:	2303      	movs	r3, #3
 8001c86:	9305      	str	r3, [sp, #20]
    HAL_GPIO_Init(GPIOA, &GPIO_InitStruct);
 8001c88:	4e27      	ldr	r6, [pc, #156]	@ (8001d28 <HAL_SPI_MspInit+0xf0>)
 8001c8a:	a902      	add	r1, sp, #8
 8001c8c:	4630      	mov	r0, r6
 8001c8e:	f001 f89f 	bl	8002dd0 <HAL_GPIO_Init>
    GPIO_InitStruct.Pin = GPIO_PIN_6;
 8001c92:	2340      	movs	r3, #64	@ 0x40
 8001c94:	9302      	str	r3, [sp, #8]
    GPIO_InitStruct.Mode = GPIO_MODE_INPUT;
 8001c96:	2500      	movs	r5, #0
 8001c98:	9503      	str	r5, [sp, #12]
    GPIO_InitStruct.Pull = GPIO_NOPULL;
 8001c9a:	9504      	str	r5, [sp, #16]
    HAL_GPIO_Init(GPIOA, &GPIO_InitStruct);
 8001c9c:	a902      	add	r1, sp, #8
 8001c9e:	4630      	mov	r0, r6
 8001ca0:	f001 f896 	bl	8002dd0 <HAL_GPIO_Init>
    hdma_spi1_rx.Instance = DMA1_Channel2;
 8001ca4:	4821      	ldr	r0, [pc, #132]	@ (8001d2c <HAL_SPI_MspInit+0xf4>)
 8001ca6:	4b22      	ldr	r3, [pc, #136]	@ (8001d30 <HAL_SPI_MspInit+0xf8>)
 8001ca8:	6003      	str	r3, [r0, #0]
    hdma_spi1_rx.Init.Direction = DMA_PERIPH_TO_MEMORY;
 8001caa:	6045      	str	r5, [r0, #4]
    hdma_spi1_rx.Init.PeriphInc = DMA_PINC_DISABLE;
 8001cac:	6085      	str	r5, [r0, #8]
    hdma_spi1_rx.Init.MemInc = DMA_MINC_ENABLE;
 8001cae:	2380      	movs	r3, #128	@ 0x80
 8001cb0:	60c3      	str	r3, [r0, #12]
    hdma_spi1_rx.Init.PeriphDataAlignment = DMA_PDATAALIGN_HALFWORD;
 8001cb2:	f44f 7380 	mov.w	r3, #256	@ 0x100
 8001cb6:	6103      	str	r3, [r0, #16]
    hdma_spi1_rx.Init.MemDataAlignment = DMA_MDATAALIGN_HALFWORD;
 8001cb8:	f44f 6380 	mov.w	r3, #1024	@ 0x400
 8001cbc:	6143      	str	r3, [r0, #20]
    hdma_spi1_rx.Init.Mode = DMA_NORMAL;
 8001cbe:	6185      	str	r5, [r0, #24]
    hdma_spi1_rx.Init.Priority = DMA_PRIORITY_MEDIUM;
 8001cc0:	f44f 5380 	mov.w	r3, #4096	@ 0x1000
 8001cc4:	61c3      	str	r3, [r0, #28]
    if (HAL_DMA_Init(&hdma_spi1_rx) != HAL_OK)
 8001cc6:	f000 ff03 	bl	8002ad0 <HAL_DMA_Init>
 8001cca:	bb20      	cbnz	r0, 8001d16 <HAL_SPI_MspInit+0xde>
    __HAL_LINKDMA(spiHandle,hdmarx,hdma_spi1_rx);
 8001ccc:	4b17      	ldr	r3, [pc, #92]	@ (8001d2c <HAL_SPI_MspInit+0xf4>)
 8001cce:	64e3      	str	r3, [r4, #76]	@ 0x4c
 8001cd0:	625c      	str	r4, [r3, #36]	@ 0x24
    hdma_spi1_tx.Instance = DMA1_Channel3;
 8001cd2:	4818      	ldr	r0, [pc, #96]	@ (8001d34 <HAL_SPI_MspInit+0xfc>)
 8001cd4:	4b18      	ldr	r3, [pc, #96]	@ (8001d38 <HAL_SPI_MspInit+0x100>)
 8001cd6:	6003      	str	r3, [r0, #0]
    hdma_spi1_tx.Init.Direction = DMA_MEMORY_TO_PERIPH;
 8001cd8:	2310      	movs	r3, #16
 8001cda:	6043      	str	r3, [r0, #4]
    hdma_spi1_tx.Init.PeriphInc = DMA_PINC_DISABLE;
 8001cdc:	2300      	movs	r3, #0
 8001cde:	6083      	str	r3, [r0, #8]
    hdma_spi1_tx.Init.MemInc = DMA_MINC_ENABLE;
 8001ce0:	2280      	movs	r2, #128	@ 0x80
 8001ce2:	60c2      	str	r2, [r0, #12]
    hdma_spi1_tx.Init.PeriphDataAlignment = DMA_PDATAALIGN_HALFWORD;
 8001ce4:	f44f 7280 	mov.w	r2, #256	@ 0x100
 8001ce8:	6102      	str	r2, [r0, #16]
    hdma_spi1_tx.Init.MemDataAlignment = DMA_MDATAALIGN_HALFWORD;
 8001cea:	f44f 6280 	mov.w	r2, #1024	@ 0x400
 8001cee:	6142      	str	r2, [r0, #20]
    hdma_spi1_tx.Init.Mode = DMA_NORMAL;
 8001cf0:	6183      	str	r3, [r0, #24]
    hdma_spi1_tx.Init.Priority = DMA_PRIORITY_MEDIUM;
 8001cf2:	f44f 5380 	mov.w	r3, #4096	@ 0x1000
 8001cf6:	61c3      	str	r3, [r0, #28]
    if (HAL_DMA_Init(&hdma_spi1_tx) != HAL_OK)
 8001cf8:	f000 feea 	bl	8002ad0 <HAL_DMA_Init>
 8001cfc:	b970      	cbnz	r0, 8001d1c <HAL_SPI_MspInit+0xe4>
    __HAL_LINKDMA(spiHandle,hdmatx,hdma_spi1_tx);
 8001cfe:	4b0d      	ldr	r3, [pc, #52]	@ (8001d34 <HAL_SPI_MspInit+0xfc>)
 8001d00:	64a3      	str	r3, [r4, #72]	@ 0x48
 8001d02:	625c      	str	r4, [r3, #36]	@ 0x24
    HAL_NVIC_SetPriority(SPI1_IRQn, 3, 0);
 8001d04:	2200      	movs	r2, #0
 8001d06:	2103      	movs	r1, #3
 8001d08:	2023      	movs	r0, #35	@ 0x23
 8001d0a:	f000 fe99 	bl	8002a40 <HAL_NVIC_SetPriority>
    HAL_NVIC_EnableIRQ(SPI1_IRQn);
 8001d0e:	2023      	movs	r0, #35	@ 0x23
 8001d10:	f000 fea6 	bl	8002a60 <HAL_NVIC_EnableIRQ>
}
 8001d14:	e79b      	b.n	8001c4e <HAL_SPI_MspInit+0x16>
      Error_Handler();
 8001d16:	f7ff f8ef 	bl	8000ef8 <Error_Handler>
 8001d1a:	e7d7      	b.n	8001ccc <HAL_SPI_MspInit+0x94>
      Error_Handler();
 8001d1c:	f7ff f8ec 	bl	8000ef8 <Error_Handler>
 8001d20:	e7ed      	b.n	8001cfe <HAL_SPI_MspInit+0xc6>
 8001d22:	bf00      	nop
 8001d24:	40013000 	.word	0x40013000
 8001d28:	40010800 	.word	0x40010800
 8001d2c:	20000460 	.word	0x20000460
 8001d30:	4002001c 	.word	0x4002001c
 8001d34:	2000041c 	.word	0x2000041c
 8001d38:	40020030 	.word	0x40020030

08001d3c <HAL_MspInit>:
/* USER CODE END 0 */
/**
  * Initializes the Global MSP.
  */
void HAL_MspInit(void)
{
 8001d3c:	b082      	sub	sp, #8

  /* USER CODE BEGIN MspInit 0 */

  /* USER CODE END MspInit 0 */

  __HAL_RCC_AFIO_CLK_ENABLE();
 8001d3e:	4b0e      	ldr	r3, [pc, #56]	@ (8001d78 <HAL_MspInit+0x3c>)
 8001d40:	699a      	ldr	r2, [r3, #24]
 8001d42:	f042 0201 	orr.w	r2, r2, #1
 8001d46:	619a      	str	r2, [r3, #24]
 8001d48:	699a      	ldr	r2, [r3, #24]
 8001d4a:	f002 0201 	and.w	r2, r2, #1
 8001d4e:	9200      	str	r2, [sp, #0]
 8001d50:	9a00      	ldr	r2, [sp, #0]
  __HAL_RCC_PWR_CLK_ENABLE();
 8001d52:	69da      	ldr	r2, [r3, #28]
 8001d54:	f042 5280 	orr.w	r2, r2, #268435456	@ 0x10000000
 8001d58:	61da      	str	r2, [r3, #28]
 8001d5a:	69db      	ldr	r3, [r3, #28]
 8001d5c:	f003 5380 	and.w	r3, r3, #268435456	@ 0x10000000
 8001d60:	9301      	str	r3, [sp, #4]
 8001d62:	9b01      	ldr	r3, [sp, #4]

  /* System interrupt init*/

  /** NOJTAG: JTAG-DP Disabled and SW-DP Enabled
  */
  __HAL_AFIO_REMAP_SWJ_NOJTAG();
 8001d64:	4a05      	ldr	r2, [pc, #20]	@ (8001d7c <HAL_MspInit+0x40>)
 8001d66:	6853      	ldr	r3, [r2, #4]
 8001d68:	f023 63e0 	bic.w	r3, r3, #117440512	@ 0x7000000
 8001d6c:	f043 7300 	orr.w	r3, r3, #33554432	@ 0x2000000
 8001d70:	6053      	str	r3, [r2, #4]

  /* USER CODE BEGIN MspInit 1 */

  /* USER CODE END MspInit 1 */
}
 8001d72:	b002      	add	sp, #8
 8001d74:	4770      	bx	lr
 8001d76:	bf00      	nop
 8001d78:	40021000 	.word	0x40021000
 8001d7c:	40010000 	.word	0x40010000

08001d80 <NMI_Handler>:
{
  /* USER CODE BEGIN NonMaskableInt_IRQn 0 */

  /* USER CODE END NonMaskableInt_IRQn 0 */
  /* USER CODE BEGIN NonMaskableInt_IRQn 1 */
   while (1)
 8001d80:	e7fe      	b.n	8001d80 <NMI_Handler>

08001d82 <HardFault_Handler>:
void HardFault_Handler(void)
{
  /* USER CODE BEGIN HardFault_IRQn 0 */

  /* USER CODE END HardFault_IRQn 0 */
  while (1)
 8001d82:	e7fe      	b.n	8001d82 <HardFault_Handler>

08001d84 <MemManage_Handler>:
void MemManage_Handler(void)
{
  /* USER CODE BEGIN MemoryManagement_IRQn 0 */

  /* USER CODE END MemoryManagement_IRQn 0 */
  while (1)
 8001d84:	e7fe      	b.n	8001d84 <MemManage_Handler>

08001d86 <BusFault_Handler>:
void BusFault_Handler(void)
{
  /* USER CODE BEGIN BusFault_IRQn 0 */

  /* USER CODE END BusFault_IRQn 0 */
  while (1)
 8001d86:	e7fe      	b.n	8001d86 <BusFault_Handler>

08001d88 <UsageFault_Handler>:
void UsageFault_Handler(void)
{
  /* USER CODE BEGIN UsageFault_IRQn 0 */

  /* USER CODE END UsageFault_IRQn 0 */
  while (1)
 8001d88:	e7fe      	b.n	8001d88 <UsageFault_Handler>

08001d8a <SVC_Handler>:

  /* USER CODE END SVCall_IRQn 0 */
  /* USER CODE BEGIN SVCall_IRQn 1 */

  /* USER CODE END SVCall_IRQn 1 */
}
 8001d8a:	4770      	bx	lr

08001d8c <DebugMon_Handler>:

  /* USER CODE END DebugMonitor_IRQn 0 */
  /* USER CODE BEGIN DebugMonitor_IRQn 1 */

  /* USER CODE END DebugMonitor_IRQn 1 */
}
 8001d8c:	4770      	bx	lr

08001d8e <PendSV_Handler>:

  /* USER CODE END PendSV_IRQn 0 */
  /* USER CODE BEGIN PendSV_IRQn 1 */

  /* USER CODE END PendSV_IRQn 1 */
}
 8001d8e:	4770      	bx	lr

08001d90 <SysTick_Handler>:

/**
  * @brief This function handles System tick timer.
  */
void SysTick_Handler(void)
{
 8001d90:	b508      	push	{r3, lr}
  /* USER CODE BEGIN SysTick_IRQn 0 */

  /* USER CODE END SysTick_IRQn 0 */
  HAL_IncTick();
 8001d92:	f000 faff 	bl	8002394 <HAL_IncTick>
  /* USER CODE BEGIN SysTick_IRQn 1 */

  /* USER CODE END SysTick_IRQn 1 */
}
 8001d96:	bd08      	pop	{r3, pc}

08001d98 <DMA1_Channel1_IRQHandler>:

/**
  * @brief This function handles DMA1 channel1 global interrupt.
  */
void DMA1_Channel1_IRQHandler(void)
{
 8001d98:	b508      	push	{r3, lr}
  /* USER CODE BEGIN DMA1_Channel1_IRQn 0 */

  /* USER CODE END DMA1_Channel1_IRQn 0 */
  HAL_DMA_IRQHandler(&hdma_adc1);
 8001d9a:	4802      	ldr	r0, [pc, #8]	@ (8001da4 <DMA1_Channel1_IRQHandler+0xc>)
 8001d9c:	f000 ff76 	bl	8002c8c <HAL_DMA_IRQHandler>
  /* USER CODE BEGIN DMA1_Channel1_IRQn 1 */

  /* USER CODE END DMA1_Channel1_IRQn 1 */
}
 8001da0:	bd08      	pop	{r3, pc}
 8001da2:	bf00      	nop
 8001da4:	200000c8 	.word	0x200000c8

08001da8 <DMA1_Channel2_IRQHandler>:

/**
  * @brief This function handles DMA1 channel2 global interrupt.
  */
void DMA1_Channel2_IRQHandler(void)
{
 8001da8:	b508      	push	{r3, lr}
  /* USER CODE BEGIN DMA1_Channel2_IRQn 0 */

  /* USER CODE END DMA1_Channel2_IRQn 0 */
  HAL_DMA_IRQHandler(&hdma_spi1_rx);
 8001daa:	4802      	ldr	r0, [pc, #8]	@ (8001db4 <DMA1_Channel2_IRQHandler+0xc>)
 8001dac:	f000 ff6e 	bl	8002c8c <HAL_DMA_IRQHandler>
  /* USER CODE BEGIN DMA1_Channel2_IRQn 1 */

  /* USER CODE END DMA1_Channel2_IRQn 1 */
}
 8001db0:	bd08      	pop	{r3, pc}
 8001db2:	bf00      	nop
 8001db4:	20000460 	.word	0x20000460

08001db8 <DMA1_Channel3_IRQHandler>:

/**
  * @brief This function handles DMA1 channel3 global interrupt.
  */
void DMA1_Channel3_IRQHandler(void)
{
 8001db8:	b508      	push	{r3, lr}
  /* USER CODE BEGIN DMA1_Channel3_IRQn 0 */

  /* USER CODE END DMA1_Channel3_IRQn 0 */
  HAL_DMA_IRQHandler(&hdma_spi1_tx);
 8001dba:	4802      	ldr	r0, [pc, #8]	@ (8001dc4 <DMA1_Channel3_IRQHandler+0xc>)
 8001dbc:	f000 ff66 	bl	8002c8c <HAL_DMA_IRQHandler>
  /* USER CODE BEGIN DMA1_Channel3_IRQn 1 */

  /* USER CODE END DMA1_Channel3_IRQn 1 */
}
 8001dc0:	bd08      	pop	{r3, pc}
 8001dc2:	bf00      	nop
 8001dc4:	2000041c 	.word	0x2000041c

08001dc8 <DMA1_Channel4_IRQHandler>:

/**
  * @brief This function handles DMA1 channel4 global interrupt.
  */
void DMA1_Channel4_IRQHandler(void)
{
 8001dc8:	b508      	push	{r3, lr}
  /* USER CODE BEGIN DMA1_Channel4_IRQn 0 */

  /* USER CODE END DMA1_Channel4_IRQn 0 */
  HAL_DMA_IRQHandler(&hdma_usart1_tx);
 8001dca:	4802      	ldr	r0, [pc, #8]	@ (8001dd4 <DMA1_Channel4_IRQHandler+0xc>)
 8001dcc:	f000 ff5e 	bl	8002c8c <HAL_DMA_IRQHandler>
  /* USER CODE BEGIN DMA1_Channel4_IRQn 1 */

  /* USER CODE END DMA1_Channel4_IRQn 1 */
}
 8001dd0:	bd08      	pop	{r3, pc}
 8001dd2:	bf00      	nop
 8001dd4:	20000660 	.word	0x20000660

08001dd8 <DMA1_Channel5_IRQHandler>:

/**
  * @brief This function handles DMA1 channel5 global interrupt.
  */
void DMA1_Channel5_IRQHandler(void)
{
 8001dd8:	b508      	push	{r3, lr}
  /* USER CODE BEGIN DMA1_Channel5_IRQn 0 */

  /* USER CODE END DMA1_Channel5_IRQn 0 */
  HAL_DMA_IRQHandler(&hdma_usart1_rx);
 8001dda:	4802      	ldr	r0, [pc, #8]	@ (8001de4 <DMA1_Channel5_IRQHandler+0xc>)
 8001ddc:	f000 ff56 	bl	8002c8c <HAL_DMA_IRQHandler>
  /* USER CODE BEGIN DMA1_Channel5_IRQn 1 */

  /* USER CODE END DMA1_Channel5_IRQn 1 */
}
 8001de0:	bd08      	pop	{r3, pc}
 8001de2:	bf00      	nop
 8001de4:	2000061c 	.word	0x2000061c

08001de8 <TIM3_IRQHandler>:

/**
  * @brief This function handles TIM3 global interrupt.
  */
void TIM3_IRQHandler(void)
{
 8001de8:	b508      	push	{r3, lr}
  /* USER CODE BEGIN TIM3_IRQn 0 */

  /* USER CODE END TIM3_IRQn 0 */
  HAL_TIM_IRQHandler(&htim3);
 8001dea:	4802      	ldr	r0, [pc, #8]	@ (8001df4 <TIM3_IRQHandler+0xc>)
 8001dec:	f002 f8c6 	bl	8003f7c <HAL_TIM_IRQHandler>
  /* USER CODE BEGIN TIM3_IRQn 1 */
  // sos++;
  // task18khz();

  /* USER CODE END TIM3_IRQn 1 */
}
 8001df0:	bd08      	pop	{r3, pc}
 8001df2:	bf00      	nop
 8001df4:	20000544 	.word	0x20000544

08001df8 <SPI1_IRQHandler>:

/**
  * @brief This function handles SPI1 global interrupt.
  */
void SPI1_IRQHandler(void)
{
 8001df8:	b508      	push	{r3, lr}
  /* USER CODE BEGIN SPI1_IRQn 0 */

  /* USER CODE END SPI1_IRQn 0 */
  HAL_SPI_IRQHandler(&hspi1);
 8001dfa:	4802      	ldr	r0, [pc, #8]	@ (8001e04 <SPI1_IRQHandler+0xc>)
 8001dfc:	f001 ff2c 	bl	8003c58 <HAL_SPI_IRQHandler>
  /* USER CODE BEGIN SPI1_IRQn 1 */

  /* USER CODE END SPI1_IRQn 1 */
}
 8001e00:	bd08      	pop	{r3, pc}
 8001e02:	bf00      	nop
 8001e04:	200004a4 	.word	0x200004a4

08001e08 <USART1_IRQHandler>:

/**
  * @brief This function handles USART1 global interrupt.
  */
void USART1_IRQHandler(void)
{
 8001e08:	b508      	push	{r3, lr}
  /* USER CODE BEGIN USART1_IRQn 0 */

  /* USER CODE END USART1_IRQn 0 */
  HAL_UART_IRQHandler(&huart1);
 8001e0a:	4802      	ldr	r0, [pc, #8]	@ (8001e14 <USART1_IRQHandler+0xc>)
 8001e0c:	f002 ff58 	bl	8004cc0 <HAL_UART_IRQHandler>
  /* USER CODE BEGIN USART1_IRQn 1 */

  /* USER CODE END USART1_IRQn 1 */
}
 8001e10:	bd08      	pop	{r3, pc}
 8001e12:	bf00      	nop
 8001e14:	200006a4 	.word	0x200006a4

08001e18 <SystemInit>:

  /* Configure the Vector Table location -------------------------------------*/
#if defined(USER_VECT_TAB_ADDRESS)
  SCB->VTOR = VECT_TAB_BASE_ADDRESS | VECT_TAB_OFFSET; /* Vector Table Relocation in Internal SRAM. */
#endif /* USER_VECT_TAB_ADDRESS */
}
 8001e18:	4770      	bx	lr
	...

08001e1c <MX_TIM1_Init>:
TIM_HandleTypeDef htim3;
TIM_HandleTypeDef htim4;

/* TIM1 init function */
void MX_TIM1_Init(void)
{
 8001e1c:	b500      	push	{lr}
 8001e1e:	b08d      	sub	sp, #52	@ 0x34

  /* USER CODE BEGIN TIM1_Init 0 */

  /* USER CODE END TIM1_Init 0 */

  TIM_Encoder_InitTypeDef sConfig = {0};
 8001e20:	2224      	movs	r2, #36	@ 0x24
 8001e22:	2100      	movs	r1, #0
 8001e24:	a803      	add	r0, sp, #12
 8001e26:	f003 f9c5 	bl	80051b4 <memset>
  TIM_MasterConfigTypeDef sMasterConfig = {0};
 8001e2a:	2300      	movs	r3, #0
 8001e2c:	9301      	str	r3, [sp, #4]
 8001e2e:	9302      	str	r3, [sp, #8]

  /* USER CODE BEGIN TIM1_Init 1 */

  /* USER CODE END TIM1_Init 1 */
  htim1.Instance = TIM1;
 8001e30:	4813      	ldr	r0, [pc, #76]	@ (8001e80 <MX_TIM1_Init+0x64>)
 8001e32:	4a14      	ldr	r2, [pc, #80]	@ (8001e84 <MX_TIM1_Init+0x68>)
 8001e34:	6002      	str	r2, [r0, #0]
  htim1.Init.Prescaler = 0;
 8001e36:	6043      	str	r3, [r0, #4]
  htim1.Init.CounterMode = TIM_COUNTERMODE_UP;
 8001e38:	6083      	str	r3, [r0, #8]
  htim1.Init.Period = 65535;
 8001e3a:	f64f 72ff 	movw	r2, #65535	@ 0xffff
 8001e3e:	60c2      	str	r2, [r0, #12]
  htim1.Init.ClockDivision = TIM_CLOCKDIVISION_DIV1;
 8001e40:	6103      	str	r3, [r0, #16]
  htim1.Init.RepetitionCounter = 0;
 8001e42:	6143      	str	r3, [r0, #20]
  htim1.Init.AutoReloadPreload = TIM_AUTORELOAD_PRELOAD_DISABLE;
 8001e44:	6183      	str	r3, [r0, #24]
  sConfig.EncoderMode = TIM_ENCODERMODE_TI12;
 8001e46:	2303      	movs	r3, #3
 8001e48:	9303      	str	r3, [sp, #12]
  sConfig.IC1Polarity = TIM_ICPOLARITY_RISING;
  sConfig.IC1Selection = TIM_ICSELECTION_DIRECTTI;
 8001e4a:	2201      	movs	r2, #1
 8001e4c:	9205      	str	r2, [sp, #20]
  sConfig.IC1Prescaler = TIM_ICPSC_DIV1;
  sConfig.IC1Filter = 10;
 8001e4e:	230a      	movs	r3, #10
 8001e50:	9307      	str	r3, [sp, #28]
  sConfig.IC2Polarity = TIM_ICPOLARITY_RISING;
  sConfig.IC2Selection = TIM_ICSELECTION_DIRECTTI;
 8001e52:	9209      	str	r2, [sp, #36]	@ 0x24
  sConfig.IC2Prescaler = TIM_ICPSC_DIV1;
  sConfig.IC2Filter = 10;
 8001e54:	930b      	str	r3, [sp, #44]	@ 0x2c
  if (HAL_TIM_Encoder_Init(&htim1, &sConfig) != HAL_OK)
 8001e56:	a903      	add	r1, sp, #12
 8001e58:	f002 f9da 	bl	8004210 <HAL_TIM_Encoder_Init>
 8001e5c:	b950      	cbnz	r0, 8001e74 <MX_TIM1_Init+0x58>
  {
    Error_Handler();
  }
  sMasterConfig.MasterOutputTrigger = TIM_TRGO_RESET;
 8001e5e:	2300      	movs	r3, #0
 8001e60:	9301      	str	r3, [sp, #4]
  sMasterConfig.MasterSlaveMode = TIM_MASTERSLAVEMODE_DISABLE;
 8001e62:	9302      	str	r3, [sp, #8]
  if (HAL_TIMEx_MasterConfigSynchronization(&htim1, &sMasterConfig) != HAL_OK)
 8001e64:	a901      	add	r1, sp, #4
 8001e66:	4806      	ldr	r0, [pc, #24]	@ (8001e80 <MX_TIM1_Init+0x64>)
 8001e68:	f002 fce4 	bl	8004834 <HAL_TIMEx_MasterConfigSynchronization>
 8001e6c:	b928      	cbnz	r0, 8001e7a <MX_TIM1_Init+0x5e>
  }
  /* USER CODE BEGIN TIM1_Init 2 */

  /* USER CODE END TIM1_Init 2 */

}
 8001e6e:	b00d      	add	sp, #52	@ 0x34
 8001e70:	f85d fb04 	ldr.w	pc, [sp], #4
    Error_Handler();
 8001e74:	f7ff f840 	bl	8000ef8 <Error_Handler>
 8001e78:	e7f1      	b.n	8001e5e <MX_TIM1_Init+0x42>
    Error_Handler();
 8001e7a:	f7ff f83d 	bl	8000ef8 <Error_Handler>
}
 8001e7e:	e7f6      	b.n	8001e6e <MX_TIM1_Init+0x52>
 8001e80:	200005d4 	.word	0x200005d4
 8001e84:	40012c00 	.word	0x40012c00

08001e88 <MX_TIM2_Init>:
/* TIM2 init function */
void MX_TIM2_Init(void)
{
 8001e88:	b500      	push	{lr}
 8001e8a:	b08d      	sub	sp, #52	@ 0x34

  /* USER CODE BEGIN TIM2_Init 0 */

  /* USER CODE END TIM2_Init 0 */

  TIM_Encoder_InitTypeDef sConfig = {0};
 8001e8c:	2224      	movs	r2, #36	@ 0x24
 8001e8e:	2100      	movs	r1, #0
 8001e90:	a803      	add	r0, sp, #12
 8001e92:	f003 f98f 	bl	80051b4 <memset>
  TIM_MasterConfigTypeDef sMasterConfig = {0};
 8001e96:	2300      	movs	r3, #0
 8001e98:	9301      	str	r3, [sp, #4]
 8001e9a:	9302      	str	r3, [sp, #8]

  /* USER CODE BEGIN TIM2_Init 1 */

  /* USER CODE END TIM2_Init 1 */
  htim2.Instance = TIM2;
 8001e9c:	4812      	ldr	r0, [pc, #72]	@ (8001ee8 <MX_TIM2_Init+0x60>)
 8001e9e:	f04f 4280 	mov.w	r2, #1073741824	@ 0x40000000
 8001ea2:	6002      	str	r2, [r0, #0]
  htim2.Init.Prescaler = 0;
 8001ea4:	6043      	str	r3, [r0, #4]
  htim2.Init.CounterMode = TIM_COUNTERMODE_UP;
 8001ea6:	6083      	str	r3, [r0, #8]
  htim2.Init.Period = 65535;
 8001ea8:	f64f 72ff 	movw	r2, #65535	@ 0xffff
 8001eac:	60c2      	str	r2, [r0, #12]
  htim2.Init.ClockDivision = TIM_CLOCKDIVISION_DIV1;
 8001eae:	6103      	str	r3, [r0, #16]
  htim2.Init.AutoReloadPreload = TIM_AUTORELOAD_PRELOAD_DISABLE;
 8001eb0:	6183      	str	r3, [r0, #24]
  sConfig.EncoderMode = TIM_ENCODERMODE_TI12;
 8001eb2:	2303      	movs	r3, #3
 8001eb4:	9303      	str	r3, [sp, #12]
  sConfig.IC1Polarity = TIM_ICPOLARITY_RISING;
  sConfig.IC1Selection = TIM_ICSELECTION_DIRECTTI;
 8001eb6:	2301      	movs	r3, #1
 8001eb8:	9305      	str	r3, [sp, #20]
  sConfig.IC1Prescaler = TIM_ICPSC_DIV1;
  sConfig.IC1Filter = 0;
  sConfig.IC2Polarity = TIM_ICPOLARITY_RISING;
  sConfig.IC2Selection = TIM_ICSELECTION_DIRECTTI;
 8001eba:	9309      	str	r3, [sp, #36]	@ 0x24
  sConfig.IC2Prescaler = TIM_ICPSC_DIV1;
  sConfig.IC2Filter = 0;
  if (HAL_TIM_Encoder_Init(&htim2, &sConfig) != HAL_OK)
 8001ebc:	a903      	add	r1, sp, #12
 8001ebe:	f002 f9a7 	bl	8004210 <HAL_TIM_Encoder_Init>
 8001ec2:	b950      	cbnz	r0, 8001eda <MX_TIM2_Init+0x52>
  {
    Error_Handler();
  }
  sMasterConfig.MasterOutputTrigger = TIM_TRGO_RESET;
 8001ec4:	2300      	movs	r3, #0
 8001ec6:	9301      	str	r3, [sp, #4]
  sMasterConfig.MasterSlaveMode = TIM_MASTERSLAVEMODE_DISABLE;
 8001ec8:	9302      	str	r3, [sp, #8]
  if (HAL_TIMEx_MasterConfigSynchronization(&htim2, &sMasterConfig) != HAL_OK)
 8001eca:	a901      	add	r1, sp, #4
 8001ecc:	4806      	ldr	r0, [pc, #24]	@ (8001ee8 <MX_TIM2_Init+0x60>)
 8001ece:	f002 fcb1 	bl	8004834 <HAL_TIMEx_MasterConfigSynchronization>
 8001ed2:	b928      	cbnz	r0, 8001ee0 <MX_TIM2_Init+0x58>
  }
  /* USER CODE BEGIN TIM2_Init 2 */

  /* USER CODE END TIM2_Init 2 */

}
 8001ed4:	b00d      	add	sp, #52	@ 0x34
 8001ed6:	f85d fb04 	ldr.w	pc, [sp], #4
    Error_Handler();
 8001eda:	f7ff f80d 	bl	8000ef8 <Error_Handler>
 8001ede:	e7f1      	b.n	8001ec4 <MX_TIM2_Init+0x3c>
    Error_Handler();
 8001ee0:	f7ff f80a 	bl	8000ef8 <Error_Handler>
}
 8001ee4:	e7f6      	b.n	8001ed4 <MX_TIM2_Init+0x4c>
 8001ee6:	bf00      	nop
 8001ee8:	2000058c 	.word	0x2000058c

08001eec <MX_TIM4_Init>:
  HAL_TIM_MspPostInit(&htim3);

}
/* TIM4 init function */
void MX_TIM4_Init(void)
{
 8001eec:	b500      	push	{lr}
 8001eee:	b087      	sub	sp, #28

  /* USER CODE BEGIN TIM4_Init 0 */

  /* USER CODE END TIM4_Init 0 */

  TIM_MasterConfigTypeDef sMasterConfig = {0};
 8001ef0:	2300      	movs	r3, #0
 8001ef2:	9304      	str	r3, [sp, #16]
 8001ef4:	9305      	str	r3, [sp, #20]
  TIM_IC_InitTypeDef sConfigIC = {0};
 8001ef6:	9300      	str	r3, [sp, #0]
 8001ef8:	9301      	str	r3, [sp, #4]
 8001efa:	9302      	str	r3, [sp, #8]
 8001efc:	9303      	str	r3, [sp, #12]

  /* USER CODE BEGIN TIM4_Init 1 */

  /* USER CODE END TIM4_Init 1 */
  htim4.Instance = TIM4;
 8001efe:	481c      	ldr	r0, [pc, #112]	@ (8001f70 <MX_TIM4_Init+0x84>)
 8001f00:	4a1c      	ldr	r2, [pc, #112]	@ (8001f74 <MX_TIM4_Init+0x88>)
 8001f02:	6002      	str	r2, [r0, #0]
  htim4.Init.Prescaler = 1100-1;
 8001f04:	f240 424b 	movw	r2, #1099	@ 0x44b
 8001f08:	6042      	str	r2, [r0, #4]
  htim4.Init.CounterMode = TIM_COUNTERMODE_UP;
 8001f0a:	6083      	str	r3, [r0, #8]
  htim4.Init.Period = 72-1;
 8001f0c:	2247      	movs	r2, #71	@ 0x47
 8001f0e:	60c2      	str	r2, [r0, #12]
  htim4.Init.ClockDivision = TIM_CLOCKDIVISION_DIV1;
 8001f10:	6103      	str	r3, [r0, #16]
  htim4.Init.AutoReloadPreload = TIM_AUTORELOAD_PRELOAD_DISABLE;
 8001f12:	6183      	str	r3, [r0, #24]
  if (HAL_TIM_IC_Init(&htim4) != HAL_OK)
 8001f14:	f002 f950 	bl	80041b8 <HAL_TIM_IC_Init>
 8001f18:	b9e8      	cbnz	r0, 8001f56 <MX_TIM4_Init+0x6a>
  {
    Error_Handler();
  }
  sMasterConfig.MasterOutputTrigger = TIM_TRGO_RESET;
 8001f1a:	2300      	movs	r3, #0
 8001f1c:	9304      	str	r3, [sp, #16]
  sMasterConfig.MasterSlaveMode = TIM_MASTERSLAVEMODE_DISABLE;
 8001f1e:	9305      	str	r3, [sp, #20]
  if (HAL_TIMEx_MasterConfigSynchronization(&htim4, &sMasterConfig) != HAL_OK)
 8001f20:	a904      	add	r1, sp, #16
 8001f22:	4813      	ldr	r0, [pc, #76]	@ (8001f70 <MX_TIM4_Init+0x84>)
 8001f24:	f002 fc86 	bl	8004834 <HAL_TIMEx_MasterConfigSynchronization>
 8001f28:	b9c0      	cbnz	r0, 8001f5c <MX_TIM4_Init+0x70>
  {
    Error_Handler();
  }
  sConfigIC.ICPolarity = TIM_INPUTCHANNELPOLARITY_RISING;
 8001f2a:	2300      	movs	r3, #0
 8001f2c:	9300      	str	r3, [sp, #0]
  sConfigIC.ICSelection = TIM_ICSELECTION_DIRECTTI;
 8001f2e:	2201      	movs	r2, #1
 8001f30:	9201      	str	r2, [sp, #4]
  sConfigIC.ICPrescaler = TIM_ICPSC_DIV1;
 8001f32:	9302      	str	r3, [sp, #8]
  sConfigIC.ICFilter = 15;
 8001f34:	230f      	movs	r3, #15
 8001f36:	9303      	str	r3, [sp, #12]
  if (HAL_TIM_IC_ConfigChannel(&htim4, &sConfigIC, TIM_CHANNEL_3) != HAL_OK)
 8001f38:	2208      	movs	r2, #8
 8001f3a:	4669      	mov	r1, sp
 8001f3c:	480c      	ldr	r0, [pc, #48]	@ (8001f70 <MX_TIM4_Init+0x84>)
 8001f3e:	f002 fa8b 	bl	8004458 <HAL_TIM_IC_ConfigChannel>
 8001f42:	b970      	cbnz	r0, 8001f62 <MX_TIM4_Init+0x76>
  {
    Error_Handler();
  }
  if (HAL_TIM_IC_ConfigChannel(&htim4, &sConfigIC, TIM_CHANNEL_4) != HAL_OK)
 8001f44:	220c      	movs	r2, #12
 8001f46:	4669      	mov	r1, sp
 8001f48:	4809      	ldr	r0, [pc, #36]	@ (8001f70 <MX_TIM4_Init+0x84>)
 8001f4a:	f002 fa85 	bl	8004458 <HAL_TIM_IC_ConfigChannel>
 8001f4e:	b958      	cbnz	r0, 8001f68 <MX_TIM4_Init+0x7c>
  }
  /* USER CODE BEGIN TIM4_Init 2 */

  /* USER CODE END TIM4_Init 2 */

}
 8001f50:	b007      	add	sp, #28
 8001f52:	f85d fb04 	ldr.w	pc, [sp], #4
    Error_Handler();
 8001f56:	f7fe ffcf 	bl	8000ef8 <Error_Handler>
 8001f5a:	e7de      	b.n	8001f1a <MX_TIM4_Init+0x2e>
    Error_Handler();
 8001f5c:	f7fe ffcc 	bl	8000ef8 <Error_Handler>
 8001f60:	e7e3      	b.n	8001f2a <MX_TIM4_Init+0x3e>
    Error_Handler();
 8001f62:	f7fe ffc9 	bl	8000ef8 <Error_Handler>
 8001f66:	e7ed      	b.n	8001f44 <MX_TIM4_Init+0x58>
    Error_Handler();
 8001f68:	f7fe ffc6 	bl	8000ef8 <Error_Handler>
}
 8001f6c:	e7f0      	b.n	8001f50 <MX_TIM4_Init+0x64>
 8001f6e:	bf00      	nop
 8001f70:	200004fc 	.word	0x200004fc
 8001f74:	40000800 	.word	0x40000800

08001f78 <HAL_TIM_Encoder_MspInit>:

void HAL_TIM_Encoder_MspInit(TIM_HandleTypeDef* tim_encoderHandle)
{
 8001f78:	b500      	push	{lr}
 8001f7a:	b08b      	sub	sp, #44	@ 0x2c

  GPIO_InitTypeDef GPIO_InitStruct = {0};
 8001f7c:	2300      	movs	r3, #0
 8001f7e:	9306      	str	r3, [sp, #24]
 8001f80:	9307      	str	r3, [sp, #28]
 8001f82:	9308      	str	r3, [sp, #32]
 8001f84:	9309      	str	r3, [sp, #36]	@ 0x24
  if(tim_encoderHandle->Instance==TIM1)
 8001f86:	6803      	ldr	r3, [r0, #0]
 8001f88:	4a2d      	ldr	r2, [pc, #180]	@ (8002040 <HAL_TIM_Encoder_MspInit+0xc8>)
 8001f8a:	4293      	cmp	r3, r2
 8001f8c:	d005      	beq.n	8001f9a <HAL_TIM_Encoder_MspInit+0x22>

  /* USER CODE BEGIN TIM1_MspInit 1 */

  /* USER CODE END TIM1_MspInit 1 */
  }
  else if(tim_encoderHandle->Instance==TIM2)
 8001f8e:	f1b3 4f80 	cmp.w	r3, #1073741824	@ 0x40000000
 8001f92:	d01d      	beq.n	8001fd0 <HAL_TIM_Encoder_MspInit+0x58>

  /* USER CODE BEGIN TIM2_MspInit 1 */

  /* USER CODE END TIM2_MspInit 1 */
  }
}
 8001f94:	b00b      	add	sp, #44	@ 0x2c
 8001f96:	f85d fb04 	ldr.w	pc, [sp], #4
    __HAL_RCC_TIM1_CLK_ENABLE();
 8001f9a:	4b2a      	ldr	r3, [pc, #168]	@ (8002044 <HAL_TIM_Encoder_MspInit+0xcc>)
 8001f9c:	699a      	ldr	r2, [r3, #24]
 8001f9e:	f442 6200 	orr.w	r2, r2, #2048	@ 0x800
 8001fa2:	619a      	str	r2, [r3, #24]
 8001fa4:	699a      	ldr	r2, [r3, #24]
 8001fa6:	f402 6200 	and.w	r2, r2, #2048	@ 0x800
 8001faa:	9201      	str	r2, [sp, #4]
 8001fac:	9a01      	ldr	r2, [sp, #4]
    __HAL_RCC_GPIOA_CLK_ENABLE();
 8001fae:	699a      	ldr	r2, [r3, #24]
 8001fb0:	f042 0204 	orr.w	r2, r2, #4
 8001fb4:	619a      	str	r2, [r3, #24]
 8001fb6:	699b      	ldr	r3, [r3, #24]
 8001fb8:	f003 0304 	and.w	r3, r3, #4
 8001fbc:	9302      	str	r3, [sp, #8]
 8001fbe:	9b02      	ldr	r3, [sp, #8]
    GPIO_InitStruct.Pin = ENC1_CH1_Pin|ENC1_CH2_Pin;
 8001fc0:	f44f 7340 	mov.w	r3, #768	@ 0x300
 8001fc4:	9306      	str	r3, [sp, #24]
    HAL_GPIO_Init(GPIOA, &GPIO_InitStruct);
 8001fc6:	a906      	add	r1, sp, #24
 8001fc8:	481f      	ldr	r0, [pc, #124]	@ (8002048 <HAL_TIM_Encoder_MspInit+0xd0>)
 8001fca:	f000 ff01 	bl	8002dd0 <HAL_GPIO_Init>
 8001fce:	e7e1      	b.n	8001f94 <HAL_TIM_Encoder_MspInit+0x1c>
    __HAL_RCC_TIM2_CLK_ENABLE();
 8001fd0:	f503 3304 	add.w	r3, r3, #135168	@ 0x21000
 8001fd4:	69da      	ldr	r2, [r3, #28]
 8001fd6:	f042 0201 	orr.w	r2, r2, #1
 8001fda:	61da      	str	r2, [r3, #28]
 8001fdc:	69da      	ldr	r2, [r3, #28]
 8001fde:	f002 0201 	and.w	r2, r2, #1
 8001fe2:	9203      	str	r2, [sp, #12]
 8001fe4:	9a03      	ldr	r2, [sp, #12]
    __HAL_RCC_GPIOA_CLK_ENABLE();
 8001fe6:	699a      	ldr	r2, [r3, #24]
 8001fe8:	f042 0204 	orr.w	r2, r2, #4
 8001fec:	619a      	str	r2, [r3, #24]
 8001fee:	699a      	ldr	r2, [r3, #24]
 8001ff0:	f002 0204 	and.w	r2, r2, #4
 8001ff4:	9204      	str	r2, [sp, #16]
 8001ff6:	9a04      	ldr	r2, [sp, #16]
    __HAL_RCC_GPIOB_CLK_ENABLE();
 8001ff8:	699a      	ldr	r2, [r3, #24]
 8001ffa:	f042 0208 	orr.w	r2, r2, #8
 8001ffe:	619a      	str	r2, [r3, #24]
 8002000:	699b      	ldr	r3, [r3, #24]
 8002002:	f003 0308 	and.w	r3, r3, #8
 8002006:	9305      	str	r3, [sp, #20]
 8002008:	9b05      	ldr	r3, [sp, #20]
    GPIO_InitStruct.Pin = ENC2_CH1_Pin;
 800200a:	f44f 4300 	mov.w	r3, #32768	@ 0x8000
 800200e:	9306      	str	r3, [sp, #24]
    HAL_GPIO_Init(ENC2_CH1_GPIO_Port, &GPIO_InitStruct);
 8002010:	a906      	add	r1, sp, #24
 8002012:	480d      	ldr	r0, [pc, #52]	@ (8002048 <HAL_TIM_Encoder_MspInit+0xd0>)
 8002014:	f000 fedc 	bl	8002dd0 <HAL_GPIO_Init>
    GPIO_InitStruct.Pin = ENC2_CH2_Pin;
 8002018:	2308      	movs	r3, #8
 800201a:	9306      	str	r3, [sp, #24]
    GPIO_InitStruct.Mode = GPIO_MODE_INPUT;
 800201c:	2300      	movs	r3, #0
 800201e:	9307      	str	r3, [sp, #28]
    GPIO_InitStruct.Pull = GPIO_NOPULL;
 8002020:	9308      	str	r3, [sp, #32]
    HAL_GPIO_Init(ENC2_CH2_GPIO_Port, &GPIO_InitStruct);
 8002022:	a906      	add	r1, sp, #24
 8002024:	4809      	ldr	r0, [pc, #36]	@ (800204c <HAL_TIM_Encoder_MspInit+0xd4>)
 8002026:	f000 fed3 	bl	8002dd0 <HAL_GPIO_Init>
    __HAL_AFIO_REMAP_TIM2_PARTIAL_1();
 800202a:	4a09      	ldr	r2, [pc, #36]	@ (8002050 <HAL_TIM_Encoder_MspInit+0xd8>)
 800202c:	6853      	ldr	r3, [r2, #4]
 800202e:	f423 7340 	bic.w	r3, r3, #768	@ 0x300
 8002032:	f043 63e0 	orr.w	r3, r3, #117440512	@ 0x7000000
 8002036:	f443 7380 	orr.w	r3, r3, #256	@ 0x100
 800203a:	6053      	str	r3, [r2, #4]
}
 800203c:	e7aa      	b.n	8001f94 <HAL_TIM_Encoder_MspInit+0x1c>
 800203e:	bf00      	nop
 8002040:	40012c00 	.word	0x40012c00
 8002044:	40021000 	.word	0x40021000
 8002048:	40010800 	.word	0x40010800
 800204c:	40010c00 	.word	0x40010c00
 8002050:	40010000 	.word	0x40010000

08002054 <HAL_TIM_PWM_MspInit>:

void HAL_TIM_PWM_MspInit(TIM_HandleTypeDef* tim_pwmHandle)
{

  if(tim_pwmHandle->Instance==TIM3)
 8002054:	6802      	ldr	r2, [r0, #0]
 8002056:	4b0e      	ldr	r3, [pc, #56]	@ (8002090 <HAL_TIM_PWM_MspInit+0x3c>)
 8002058:	429a      	cmp	r2, r3
 800205a:	d000      	beq.n	800205e <HAL_TIM_PWM_MspInit+0xa>
 800205c:	4770      	bx	lr
{
 800205e:	b500      	push	{lr}
 8002060:	b083      	sub	sp, #12
  {
  /* USER CODE BEGIN TIM3_MspInit 0 */

  /* USER CODE END TIM3_MspInit 0 */
    /* TIM3 clock enable */
    __HAL_RCC_TIM3_CLK_ENABLE();
 8002062:	f503 3303 	add.w	r3, r3, #134144	@ 0x20c00
 8002066:	69da      	ldr	r2, [r3, #28]
 8002068:	f042 0202 	orr.w	r2, r2, #2
 800206c:	61da      	str	r2, [r3, #28]
 800206e:	69db      	ldr	r3, [r3, #28]
 8002070:	f003 0302 	and.w	r3, r3, #2
 8002074:	9301      	str	r3, [sp, #4]
 8002076:	9b01      	ldr	r3, [sp, #4]

    /* TIM3 interrupt Init */
    HAL_NVIC_SetPriority(TIM3_IRQn, 1, 0);
 8002078:	2200      	movs	r2, #0
 800207a:	2101      	movs	r1, #1
 800207c:	201d      	movs	r0, #29
 800207e:	f000 fcdf 	bl	8002a40 <HAL_NVIC_SetPriority>
    HAL_NVIC_EnableIRQ(TIM3_IRQn);
 8002082:	201d      	movs	r0, #29
 8002084:	f000 fcec 	bl	8002a60 <HAL_NVIC_EnableIRQ>
  /* USER CODE BEGIN TIM3_MspInit 1 */

  /* USER CODE END TIM3_MspInit 1 */
  }
}
 8002088:	b003      	add	sp, #12
 800208a:	f85d fb04 	ldr.w	pc, [sp], #4
 800208e:	bf00      	nop
 8002090:	40000400 	.word	0x40000400

08002094 <HAL_TIM_IC_MspInit>:

void HAL_TIM_IC_MspInit(TIM_HandleTypeDef* tim_icHandle)
{
 8002094:	b500      	push	{lr}
 8002096:	b087      	sub	sp, #28

  GPIO_InitTypeDef GPIO_InitStruct = {0};
 8002098:	2300      	movs	r3, #0
 800209a:	9302      	str	r3, [sp, #8]
 800209c:	9303      	str	r3, [sp, #12]
 800209e:	9304      	str	r3, [sp, #16]
 80020a0:	9305      	str	r3, [sp, #20]
  if(tim_icHandle->Instance==TIM4)
 80020a2:	6802      	ldr	r2, [r0, #0]
 80020a4:	4b10      	ldr	r3, [pc, #64]	@ (80020e8 <HAL_TIM_IC_MspInit+0x54>)
 80020a6:	429a      	cmp	r2, r3
 80020a8:	d002      	beq.n	80020b0 <HAL_TIM_IC_MspInit+0x1c>

  /* USER CODE BEGIN TIM4_MspInit 1 */

  /* USER CODE END TIM4_MspInit 1 */
  }
}
 80020aa:	b007      	add	sp, #28
 80020ac:	f85d fb04 	ldr.w	pc, [sp], #4
    __HAL_RCC_TIM4_CLK_ENABLE();
 80020b0:	f503 3302 	add.w	r3, r3, #133120	@ 0x20800
 80020b4:	69da      	ldr	r2, [r3, #28]
 80020b6:	f042 0204 	orr.w	r2, r2, #4
 80020ba:	61da      	str	r2, [r3, #28]
 80020bc:	69da      	ldr	r2, [r3, #28]
 80020be:	f002 0204 	and.w	r2, r2, #4
 80020c2:	9200      	str	r2, [sp, #0]
 80020c4:	9a00      	ldr	r2, [sp, #0]
    __HAL_RCC_GPIOB_CLK_ENABLE();
 80020c6:	699a      	ldr	r2, [r3, #24]
 80020c8:	f042 0208 	orr.w	r2, r2, #8
 80020cc:	619a      	str	r2, [r3, #24]
 80020ce:	699b      	ldr	r3, [r3, #24]
 80020d0:	f003 0308 	and.w	r3, r3, #8
 80020d4:	9301      	str	r3, [sp, #4]
 80020d6:	9b01      	ldr	r3, [sp, #4]
    GPIO_InitStruct.Pin = ENC1_CH1_F_Pin|ENC2_CH1_F_Pin;
 80020d8:	f44f 7340 	mov.w	r3, #768	@ 0x300
 80020dc:	9302      	str	r3, [sp, #8]
    HAL_GPIO_Init(GPIOB, &GPIO_InitStruct);
 80020de:	a902      	add	r1, sp, #8
 80020e0:	4802      	ldr	r0, [pc, #8]	@ (80020ec <HAL_TIM_IC_MspInit+0x58>)
 80020e2:	f000 fe75 	bl	8002dd0 <HAL_GPIO_Init>
}
 80020e6:	e7e0      	b.n	80020aa <HAL_TIM_IC_MspInit+0x16>
 80020e8:	40000800 	.word	0x40000800
 80020ec:	40010c00 	.word	0x40010c00

080020f0 <HAL_TIM_MspPostInit>:
void HAL_TIM_MspPostInit(TIM_HandleTypeDef* timHandle)
{
 80020f0:	b500      	push	{lr}
 80020f2:	b087      	sub	sp, #28

  GPIO_InitTypeDef GPIO_InitStruct = {0};
 80020f4:	2300      	movs	r3, #0
 80020f6:	9302      	str	r3, [sp, #8]
 80020f8:	9303      	str	r3, [sp, #12]
 80020fa:	9304      	str	r3, [sp, #16]
 80020fc:	9305      	str	r3, [sp, #20]
  if(timHandle->Instance==TIM3)
 80020fe:	6802      	ldr	r2, [r0, #0]
 8002100:	4b10      	ldr	r3, [pc, #64]	@ (8002144 <HAL_TIM_MspPostInit+0x54>)
 8002102:	429a      	cmp	r2, r3
 8002104:	d002      	beq.n	800210c <HAL_TIM_MspPostInit+0x1c>
  /* USER CODE BEGIN TIM3_MspPostInit 1 */

  /* USER CODE END TIM3_MspPostInit 1 */
  }

}
 8002106:	b007      	add	sp, #28
 8002108:	f85d fb04 	ldr.w	pc, [sp], #4
    __HAL_RCC_GPIOC_CLK_ENABLE();
 800210c:	f503 3303 	add.w	r3, r3, #134144	@ 0x20c00
 8002110:	699a      	ldr	r2, [r3, #24]
 8002112:	f042 0210 	orr.w	r2, r2, #16
 8002116:	619a      	str	r2, [r3, #24]
 8002118:	699b      	ldr	r3, [r3, #24]
 800211a:	f003 0310 	and.w	r3, r3, #16
 800211e:	9301      	str	r3, [sp, #4]
 8002120:	9b01      	ldr	r3, [sp, #4]
    GPIO_InitStruct.Pin = PWM1_Pin|PWM2_Pin;
 8002122:	23c0      	movs	r3, #192	@ 0xc0
 8002124:	9302      	str	r3, [sp, #8]
    GPIO_InitStruct.Mode = GPIO_MODE_AF_PP;
 8002126:	2302      	movs	r3, #2
 8002128:	9303      	str	r3, [sp, #12]
    GPIO_InitStruct.Speed = GPIO_SPEED_FREQ_LOW;
 800212a:	9305      	str	r3, [sp, #20]
    HAL_GPIO_Init(GPIOC, &GPIO_InitStruct);
 800212c:	a902      	add	r1, sp, #8
 800212e:	4806      	ldr	r0, [pc, #24]	@ (8002148 <HAL_TIM_MspPostInit+0x58>)
 8002130:	f000 fe4e 	bl	8002dd0 <HAL_GPIO_Init>
    __HAL_AFIO_REMAP_TIM3_ENABLE();
 8002134:	4a05      	ldr	r2, [pc, #20]	@ (800214c <HAL_TIM_MspPostInit+0x5c>)
 8002136:	6853      	ldr	r3, [r2, #4]
 8002138:	f043 63e0 	orr.w	r3, r3, #117440512	@ 0x7000000
 800213c:	f443 6340 	orr.w	r3, r3, #3072	@ 0xc00
 8002140:	6053      	str	r3, [r2, #4]
}
 8002142:	e7e0      	b.n	8002106 <HAL_TIM_MspPostInit+0x16>
 8002144:	40000400 	.word	0x40000400
 8002148:	40011000 	.word	0x40011000
 800214c:	40010000 	.word	0x40010000

08002150 <MX_TIM3_Init>:
{
 8002150:	b500      	push	{lr}
 8002152:	b08b      	sub	sp, #44	@ 0x2c
  TIM_MasterConfigTypeDef sMasterConfig = {0};
 8002154:	2300      	movs	r3, #0
 8002156:	9308      	str	r3, [sp, #32]
 8002158:	9309      	str	r3, [sp, #36]	@ 0x24
  TIM_OC_InitTypeDef sConfigOC = {0};
 800215a:	9301      	str	r3, [sp, #4]
 800215c:	9302      	str	r3, [sp, #8]
 800215e:	9303      	str	r3, [sp, #12]
 8002160:	9304      	str	r3, [sp, #16]
 8002162:	9305      	str	r3, [sp, #20]
 8002164:	9306      	str	r3, [sp, #24]
 8002166:	9307      	str	r3, [sp, #28]
  htim3.Instance = TIM3;
 8002168:	481d      	ldr	r0, [pc, #116]	@ (80021e0 <MX_TIM3_Init+0x90>)
 800216a:	4a1e      	ldr	r2, [pc, #120]	@ (80021e4 <MX_TIM3_Init+0x94>)
 800216c:	6002      	str	r2, [r0, #0]
  htim3.Init.Prescaler = 4-1;
 800216e:	2203      	movs	r2, #3
 8002170:	6042      	str	r2, [r0, #4]
  htim3.Init.CounterMode = TIM_COUNTERMODE_UP;
 8002172:	6083      	str	r3, [r0, #8]
  htim3.Init.Period = 1000-1;
 8002174:	f240 32e7 	movw	r2, #999	@ 0x3e7
 8002178:	60c2      	str	r2, [r0, #12]
  htim3.Init.ClockDivision = TIM_CLOCKDIVISION_DIV1;
 800217a:	6103      	str	r3, [r0, #16]
  htim3.Init.AutoReloadPreload = TIM_AUTORELOAD_PRELOAD_DISABLE;
 800217c:	6183      	str	r3, [r0, #24]
  if (HAL_TIM_PWM_Init(&htim3) != HAL_OK)
 800217e:	f001 ffef 	bl	8004160 <HAL_TIM_PWM_Init>
 8002182:	bb00      	cbnz	r0, 80021c6 <MX_TIM3_Init+0x76>
  sMasterConfig.MasterOutputTrigger = TIM_TRGO_UPDATE;
 8002184:	2320      	movs	r3, #32
 8002186:	9308      	str	r3, [sp, #32]
  sMasterConfig.MasterSlaveMode = TIM_MASTERSLAVEMODE_DISABLE;
 8002188:	2300      	movs	r3, #0
 800218a:	9309      	str	r3, [sp, #36]	@ 0x24
  if (HAL_TIMEx_MasterConfigSynchronization(&htim3, &sMasterConfig) != HAL_OK)
 800218c:	a908      	add	r1, sp, #32
 800218e:	4814      	ldr	r0, [pc, #80]	@ (80021e0 <MX_TIM3_Init+0x90>)
 8002190:	f002 fb50 	bl	8004834 <HAL_TIMEx_MasterConfigSynchronization>
 8002194:	b9d0      	cbnz	r0, 80021cc <MX_TIM3_Init+0x7c>
  sConfigOC.OCMode = TIM_OCMODE_PWM1;
 8002196:	2360      	movs	r3, #96	@ 0x60
 8002198:	9301      	str	r3, [sp, #4]
  sConfigOC.Pulse = 0;
 800219a:	2200      	movs	r2, #0
 800219c:	9202      	str	r2, [sp, #8]
  sConfigOC.OCPolarity = TIM_OCPOLARITY_HIGH;
 800219e:	9203      	str	r2, [sp, #12]
  sConfigOC.OCFastMode = TIM_OCFAST_DISABLE;
 80021a0:	9205      	str	r2, [sp, #20]
  if (HAL_TIM_PWM_ConfigChannel(&htim3, &sConfigOC, TIM_CHANNEL_1) != HAL_OK)
 80021a2:	a901      	add	r1, sp, #4
 80021a4:	480e      	ldr	r0, [pc, #56]	@ (80021e0 <MX_TIM3_Init+0x90>)
 80021a6:	f002 f8bd 	bl	8004324 <HAL_TIM_PWM_ConfigChannel>
 80021aa:	b990      	cbnz	r0, 80021d2 <MX_TIM3_Init+0x82>
  if (HAL_TIM_PWM_ConfigChannel(&htim3, &sConfigOC, TIM_CHANNEL_2) != HAL_OK)
 80021ac:	2204      	movs	r2, #4
 80021ae:	eb0d 0102 	add.w	r1, sp, r2
 80021b2:	480b      	ldr	r0, [pc, #44]	@ (80021e0 <MX_TIM3_Init+0x90>)
 80021b4:	f002 f8b6 	bl	8004324 <HAL_TIM_PWM_ConfigChannel>
 80021b8:	b970      	cbnz	r0, 80021d8 <MX_TIM3_Init+0x88>
  HAL_TIM_MspPostInit(&htim3);
 80021ba:	4809      	ldr	r0, [pc, #36]	@ (80021e0 <MX_TIM3_Init+0x90>)
 80021bc:	f7ff ff98 	bl	80020f0 <HAL_TIM_MspPostInit>
}
 80021c0:	b00b      	add	sp, #44	@ 0x2c
 80021c2:	f85d fb04 	ldr.w	pc, [sp], #4
    Error_Handler();
 80021c6:	f7fe fe97 	bl	8000ef8 <Error_Handler>
 80021ca:	e7db      	b.n	8002184 <MX_TIM3_Init+0x34>
    Error_Handler();
 80021cc:	f7fe fe94 	bl	8000ef8 <Error_Handler>
 80021d0:	e7e1      	b.n	8002196 <MX_TIM3_Init+0x46>
    Error_Handler();
 80021d2:	f7fe fe91 	bl	8000ef8 <Error_Handler>
 80021d6:	e7e9      	b.n	80021ac <MX_TIM3_Init+0x5c>
    Error_Handler();
 80021d8:	f7fe fe8e 	bl	8000ef8 <Error_Handler>
 80021dc:	e7ed      	b.n	80021ba <MX_TIM3_Init+0x6a>
 80021de:	bf00      	nop
 80021e0:	20000544 	.word	0x20000544
 80021e4:	40000400 	.word	0x40000400

080021e8 <MX_USART1_UART_Init>:
DMA_HandleTypeDef hdma_usart1_rx;

/* USART1 init function */

void MX_USART1_UART_Init(void)
{
 80021e8:	b508      	push	{r3, lr}
  /* USER CODE END USART1_Init 0 */

  /* USER CODE BEGIN USART1_Init 1 */

  /* USER CODE END USART1_Init 1 */
  huart1.Instance = USART1;
 80021ea:	480a      	ldr	r0, [pc, #40]	@ (8002214 <MX_USART1_UART_Init+0x2c>)
 80021ec:	4b0a      	ldr	r3, [pc, #40]	@ (8002218 <MX_USART1_UART_Init+0x30>)
 80021ee:	6003      	str	r3, [r0, #0]
  huart1.Init.BaudRate = 1000000;
 80021f0:	4b0a      	ldr	r3, [pc, #40]	@ (800221c <MX_USART1_UART_Init+0x34>)
 80021f2:	6043      	str	r3, [r0, #4]
  huart1.Init.WordLength = UART_WORDLENGTH_8B;
 80021f4:	2300      	movs	r3, #0
 80021f6:	6083      	str	r3, [r0, #8]
  huart1.Init.StopBits = UART_STOPBITS_1;
 80021f8:	60c3      	str	r3, [r0, #12]
  huart1.Init.Parity = UART_PARITY_NONE;
 80021fa:	6103      	str	r3, [r0, #16]
  huart1.Init.Mode = UART_MODE_TX_RX;
 80021fc:	220c      	movs	r2, #12
 80021fe:	6142      	str	r2, [r0, #20]
  huart1.Init.HwFlowCtl = UART_HWCONTROL_NONE;
 8002200:	6183      	str	r3, [r0, #24]
  huart1.Init.OverSampling = UART_OVERSAMPLING_16;
 8002202:	61c3      	str	r3, [r0, #28]
  if (HAL_UART_Init(&huart1) != HAL_OK)
 8002204:	f002 fc06 	bl	8004a14 <HAL_UART_Init>
 8002208:	b900      	cbnz	r0, 800220c <MX_USART1_UART_Init+0x24>
  }
  /* USER CODE BEGIN USART1_Init 2 */

  /* USER CODE END USART1_Init 2 */

}
 800220a:	bd08      	pop	{r3, pc}
    Error_Handler();
 800220c:	f7fe fe74 	bl	8000ef8 <Error_Handler>
}
 8002210:	e7fb      	b.n	800220a <MX_USART1_UART_Init+0x22>
 8002212:	bf00      	nop
 8002214:	200006a4 	.word	0x200006a4
 8002218:	40013800 	.word	0x40013800
 800221c:	000f4240 	.word	0x000f4240

08002220 <HAL_UART_MspInit>:

void HAL_UART_MspInit(UART_HandleTypeDef* uartHandle)
{
 8002220:	b5f0      	push	{r4, r5, r6, r7, lr}
 8002222:	b087      	sub	sp, #28

  GPIO_InitTypeDef GPIO_InitStruct = {0};
 8002224:	2300      	movs	r3, #0
 8002226:	9302      	str	r3, [sp, #8]
 8002228:	9303      	str	r3, [sp, #12]
 800222a:	9304      	str	r3, [sp, #16]
 800222c:	9305      	str	r3, [sp, #20]
  if(uartHandle->Instance==USART1)
 800222e:	6802      	ldr	r2, [r0, #0]
 8002230:	4b35      	ldr	r3, [pc, #212]	@ (8002308 <HAL_UART_MspInit+0xe8>)
 8002232:	429a      	cmp	r2, r3
 8002234:	d001      	beq.n	800223a <HAL_UART_MspInit+0x1a>
    HAL_NVIC_EnableIRQ(USART1_IRQn);
  /* USER CODE BEGIN USART1_MspInit 1 */

  /* USER CODE END USART1_MspInit 1 */
  }
}
 8002236:	b007      	add	sp, #28
 8002238:	bdf0      	pop	{r4, r5, r6, r7, pc}
 800223a:	4604      	mov	r4, r0
    __HAL_RCC_USART1_CLK_ENABLE();
 800223c:	f503 4358 	add.w	r3, r3, #55296	@ 0xd800
 8002240:	699a      	ldr	r2, [r3, #24]
 8002242:	f442 4280 	orr.w	r2, r2, #16384	@ 0x4000
 8002246:	619a      	str	r2, [r3, #24]
 8002248:	699a      	ldr	r2, [r3, #24]
 800224a:	f402 4280 	and.w	r2, r2, #16384	@ 0x4000
 800224e:	9200      	str	r2, [sp, #0]
 8002250:	9a00      	ldr	r2, [sp, #0]
    __HAL_RCC_GPIOB_CLK_ENABLE();
 8002252:	699a      	ldr	r2, [r3, #24]
 8002254:	f042 0208 	orr.w	r2, r2, #8
 8002258:	619a      	str	r2, [r3, #24]
 800225a:	699b      	ldr	r3, [r3, #24]
 800225c:	f003 0308 	and.w	r3, r3, #8
 8002260:	9301      	str	r3, [sp, #4]
 8002262:	9b01      	ldr	r3, [sp, #4]
    GPIO_InitStruct.Pin = GPIO_PIN_6;
 8002264:	2340      	movs	r3, #64	@ 0x40
 8002266:	9302      	str	r3, [sp, #8]
    GPIO_InitStruct.Mode = GPIO_MODE_AF_PP;
 8002268:	2302      	movs	r3, #2
 800226a:	9303      	str	r3, [sp, #12]
    GPIO_InitStruct.Speed = GPIO_SPEED_FREQ_HIGH;
 800226c:	2303      	movs	r3, #3
 800226e:	9305      	str	r3, [sp, #20]
    HAL_GPIO_Init(GPIOB, &GPIO_InitStruct);
 8002270:	4f26      	ldr	r7, [pc, #152]	@ (800230c <HAL_UART_MspInit+0xec>)
 8002272:	a902      	add	r1, sp, #8
 8002274:	4638      	mov	r0, r7
 8002276:	f000 fdab 	bl	8002dd0 <HAL_GPIO_Init>
    GPIO_InitStruct.Pin = GPIO_PIN_7;
 800227a:	2680      	movs	r6, #128	@ 0x80
 800227c:	9602      	str	r6, [sp, #8]
    GPIO_InitStruct.Mode = GPIO_MODE_INPUT;
 800227e:	2500      	movs	r5, #0
 8002280:	9503      	str	r5, [sp, #12]
    GPIO_InitStruct.Pull = GPIO_NOPULL;
 8002282:	9504      	str	r5, [sp, #16]
    HAL_GPIO_Init(GPIOB, &GPIO_InitStruct);
 8002284:	a902      	add	r1, sp, #8
 8002286:	4638      	mov	r0, r7
 8002288:	f000 fda2 	bl	8002dd0 <HAL_GPIO_Init>
    __HAL_AFIO_REMAP_USART1_ENABLE();
 800228c:	4a20      	ldr	r2, [pc, #128]	@ (8002310 <HAL_UART_MspInit+0xf0>)
 800228e:	6853      	ldr	r3, [r2, #4]
 8002290:	f043 63e0 	orr.w	r3, r3, #117440512	@ 0x7000000
 8002294:	f043 0304 	orr.w	r3, r3, #4
 8002298:	6053      	str	r3, [r2, #4]
    hdma_usart1_tx.Instance = DMA1_Channel4;
 800229a:	481e      	ldr	r0, [pc, #120]	@ (8002314 <HAL_UART_MspInit+0xf4>)
 800229c:	4b1e      	ldr	r3, [pc, #120]	@ (8002318 <HAL_UART_MspInit+0xf8>)
 800229e:	6003      	str	r3, [r0, #0]
    hdma_usart1_tx.Init.Direction = DMA_MEMORY_TO_PERIPH;
 80022a0:	2310      	movs	r3, #16
 80022a2:	6043      	str	r3, [r0, #4]
    hdma_usart1_tx.Init.PeriphInc = DMA_PINC_DISABLE;
 80022a4:	6085      	str	r5, [r0, #8]
    hdma_usart1_tx.Init.MemInc = DMA_MINC_ENABLE;
 80022a6:	60c6      	str	r6, [r0, #12]
    hdma_usart1_tx.Init.PeriphDataAlignment = DMA_PDATAALIGN_BYTE;
 80022a8:	6105      	str	r5, [r0, #16]
    hdma_usart1_tx.Init.MemDataAlignment = DMA_MDATAALIGN_BYTE;
 80022aa:	6145      	str	r5, [r0, #20]
    hdma_usart1_tx.Init.Mode = DMA_NORMAL;
 80022ac:	6185      	str	r5, [r0, #24]
    hdma_usart1_tx.Init.Priority = DMA_PRIORITY_HIGH;
 80022ae:	f44f 5300 	mov.w	r3, #8192	@ 0x2000
 80022b2:	61c3      	str	r3, [r0, #28]
    if (HAL_DMA_Init(&hdma_usart1_tx) != HAL_OK)
 80022b4:	f000 fc0c 	bl	8002ad0 <HAL_DMA_Init>
 80022b8:	b9f8      	cbnz	r0, 80022fa <HAL_UART_MspInit+0xda>
    __HAL_LINKDMA(uartHandle,hdmatx,hdma_usart1_tx);
 80022ba:	4b16      	ldr	r3, [pc, #88]	@ (8002314 <HAL_UART_MspInit+0xf4>)
 80022bc:	63a3      	str	r3, [r4, #56]	@ 0x38
 80022be:	625c      	str	r4, [r3, #36]	@ 0x24
    hdma_usart1_rx.Instance = DMA1_Channel5;
 80022c0:	4816      	ldr	r0, [pc, #88]	@ (800231c <HAL_UART_MspInit+0xfc>)
 80022c2:	4b17      	ldr	r3, [pc, #92]	@ (8002320 <HAL_UART_MspInit+0x100>)
 80022c4:	6003      	str	r3, [r0, #0]
    hdma_usart1_rx.Init.Direction = DMA_PERIPH_TO_MEMORY;
 80022c6:	2300      	movs	r3, #0
 80022c8:	6043      	str	r3, [r0, #4]
    hdma_usart1_rx.Init.PeriphInc = DMA_PINC_DISABLE;
 80022ca:	6083      	str	r3, [r0, #8]
    hdma_usart1_rx.Init.MemInc = DMA_MINC_ENABLE;
 80022cc:	2280      	movs	r2, #128	@ 0x80
 80022ce:	60c2      	str	r2, [r0, #12]
    hdma_usart1_rx.Init.PeriphDataAlignment = DMA_PDATAALIGN_BYTE;
 80022d0:	6103      	str	r3, [r0, #16]
    hdma_usart1_rx.Init.MemDataAlignment = DMA_MDATAALIGN_BYTE;
 80022d2:	6143      	str	r3, [r0, #20]
    hdma_usart1_rx.Init.Mode = DMA_NORMAL;
 80022d4:	6183      	str	r3, [r0, #24]
    hdma_usart1_rx.Init.Priority = DMA_PRIORITY_HIGH;
 80022d6:	f44f 5300 	mov.w	r3, #8192	@ 0x2000
 80022da:	61c3      	str	r3, [r0, #28]
    if (HAL_DMA_Init(&hdma_usart1_rx) != HAL_OK)
 80022dc:	f000 fbf8 	bl	8002ad0 <HAL_DMA_Init>
 80022e0:	b970      	cbnz	r0, 8002300 <HAL_UART_MspInit+0xe0>
    __HAL_LINKDMA(uartHandle,hdmarx,hdma_usart1_rx);
 80022e2:	4b0e      	ldr	r3, [pc, #56]	@ (800231c <HAL_UART_MspInit+0xfc>)
 80022e4:	63e3      	str	r3, [r4, #60]	@ 0x3c
 80022e6:	625c      	str	r4, [r3, #36]	@ 0x24
    HAL_NVIC_SetPriority(USART1_IRQn, 2, 0);
 80022e8:	2200      	movs	r2, #0
 80022ea:	2102      	movs	r1, #2
 80022ec:	2025      	movs	r0, #37	@ 0x25
 80022ee:	f000 fba7 	bl	8002a40 <HAL_NVIC_SetPriority>
    HAL_NVIC_EnableIRQ(USART1_IRQn);
 80022f2:	2025      	movs	r0, #37	@ 0x25
 80022f4:	f000 fbb4 	bl	8002a60 <HAL_NVIC_EnableIRQ>
}
 80022f8:	e79d      	b.n	8002236 <HAL_UART_MspInit+0x16>
      Error_Handler();
 80022fa:	f7fe fdfd 	bl	8000ef8 <Error_Handler>
 80022fe:	e7dc      	b.n	80022ba <HAL_UART_MspInit+0x9a>
      Error_Handler();
 8002300:	f7fe fdfa 	bl	8000ef8 <Error_Handler>
 8002304:	e7ed      	b.n	80022e2 <HAL_UART_MspInit+0xc2>
 8002306:	bf00      	nop
 8002308:	40013800 	.word	0x40013800
 800230c:	40010c00 	.word	0x40010c00
 8002310:	40010000 	.word	0x40010000
 8002314:	20000660 	.word	0x20000660
 8002318:	40020044 	.word	0x40020044
 800231c:	2000061c 	.word	0x2000061c
 8002320:	40020058 	.word	0x40020058

08002324 <HAL_InitTick>:
  *       implementation  in user file.
  * @param TickPriority Tick interrupt priority.
  * @retval HAL status
  */
__weak HAL_StatusTypeDef HAL_InitTick(uint32_t TickPriority)
{
 8002324:	b510      	push	{r4, lr}
 8002326:	4604      	mov	r4, r0
  /* Configure the SysTick to have interrupt in 1ms time basis*/
  if (HAL_SYSTICK_Config(SystemCoreClock / (1000U / uwTickFreq)) > 0U)
 8002328:	4b0e      	ldr	r3, [pc, #56]	@ (8002364 <HAL_InitTick+0x40>)
 800232a:	781a      	ldrb	r2, [r3, #0]
 800232c:	f44f 737a 	mov.w	r3, #1000	@ 0x3e8
 8002330:	fbb3 f3f2 	udiv	r3, r3, r2
 8002334:	4a0c      	ldr	r2, [pc, #48]	@ (8002368 <HAL_InitTick+0x44>)
 8002336:	6810      	ldr	r0, [r2, #0]
 8002338:	fbb0 f0f3 	udiv	r0, r0, r3
 800233c:	f000 fb9e 	bl	8002a7c <HAL_SYSTICK_Config>
 8002340:	b968      	cbnz	r0, 800235e <HAL_InitTick+0x3a>
  {
    return HAL_ERROR;
  }

  /* Configure the SysTick IRQ priority */
  if (TickPriority < (1UL << __NVIC_PRIO_BITS))
 8002342:	2c0f      	cmp	r4, #15
 8002344:	d901      	bls.n	800234a <HAL_InitTick+0x26>
    HAL_NVIC_SetPriority(SysTick_IRQn, TickPriority, 0U);
    uwTickPrio = TickPriority;
  }
  else
  {
    return HAL_ERROR;
 8002346:	2001      	movs	r0, #1
 8002348:	e00a      	b.n	8002360 <HAL_InitTick+0x3c>
    HAL_NVIC_SetPriority(SysTick_IRQn, TickPriority, 0U);
 800234a:	2200      	movs	r2, #0
 800234c:	4621      	mov	r1, r4
 800234e:	f04f 30ff 	mov.w	r0, #4294967295
 8002352:	f000 fb75 	bl	8002a40 <HAL_NVIC_SetPriority>
    uwTickPrio = TickPriority;
 8002356:	4b05      	ldr	r3, [pc, #20]	@ (800236c <HAL_InitTick+0x48>)
 8002358:	601c      	str	r4, [r3, #0]
  }

  /* Return function status */
  return HAL_OK;
 800235a:	2000      	movs	r0, #0
 800235c:	e000      	b.n	8002360 <HAL_InitTick+0x3c>
    return HAL_ERROR;
 800235e:	2001      	movs	r0, #1
}
 8002360:	bd10      	pop	{r4, pc}
 8002362:	bf00      	nop
 8002364:	200000a4 	.word	0x200000a4
 8002368:	200000a0 	.word	0x200000a0
 800236c:	200000a8 	.word	0x200000a8

08002370 <HAL_Init>:
{
 8002370:	b508      	push	{r3, lr}
  __HAL_FLASH_PREFETCH_BUFFER_ENABLE();
 8002372:	4a07      	ldr	r2, [pc, #28]	@ (8002390 <HAL_Init+0x20>)
 8002374:	6813      	ldr	r3, [r2, #0]
 8002376:	f043 0310 	orr.w	r3, r3, #16
 800237a:	6013      	str	r3, [r2, #0]
  HAL_NVIC_SetPriorityGrouping(NVIC_PRIORITYGROUP_4);
 800237c:	2003      	movs	r0, #3
 800237e:	f000 fb4d 	bl	8002a1c <HAL_NVIC_SetPriorityGrouping>
  HAL_InitTick(TICK_INT_PRIORITY);
 8002382:	200f      	movs	r0, #15
 8002384:	f7ff ffce 	bl	8002324 <HAL_InitTick>
  HAL_MspInit();
 8002388:	f7ff fcd8 	bl	8001d3c <HAL_MspInit>
}
 800238c:	2000      	movs	r0, #0
 800238e:	bd08      	pop	{r3, pc}
 8002390:	40022000 	.word	0x40022000

08002394 <HAL_IncTick>:
  *      implementations in user file.
  * @retval None
  */
__weak void HAL_IncTick(void)
{
  uwTick += uwTickFreq;
 8002394:	4a03      	ldr	r2, [pc, #12]	@ (80023a4 <HAL_IncTick+0x10>)
 8002396:	6811      	ldr	r1, [r2, #0]
 8002398:	4b03      	ldr	r3, [pc, #12]	@ (80023a8 <HAL_IncTick+0x14>)
 800239a:	781b      	ldrb	r3, [r3, #0]
 800239c:	440b      	add	r3, r1
 800239e:	6013      	str	r3, [r2, #0]
}
 80023a0:	4770      	bx	lr
 80023a2:	bf00      	nop
 80023a4:	200006ec 	.word	0x200006ec
 80023a8:	200000a4 	.word	0x200000a4

080023ac <HAL_GetTick>:
  *       implementations in user file.
  * @retval tick value
  */
__weak uint32_t HAL_GetTick(void)
{
  return uwTick;
 80023ac:	4b01      	ldr	r3, [pc, #4]	@ (80023b4 <HAL_GetTick+0x8>)
 80023ae:	6818      	ldr	r0, [r3, #0]
}
 80023b0:	4770      	bx	lr
 80023b2:	bf00      	nop
 80023b4:	200006ec 	.word	0x200006ec

080023b8 <HAL_Delay>:
  *       implementations in user file.
  * @param Delay specifies the delay time length, in milliseconds.
  * @retval None
  */
__weak void HAL_Delay(uint32_t Delay)
{
 80023b8:	b538      	push	{r3, r4, r5, lr}
 80023ba:	4604      	mov	r4, r0
  uint32_t tickstart = HAL_GetTick();
 80023bc:	f7ff fff6 	bl	80023ac <HAL_GetTick>
 80023c0:	4605      	mov	r5, r0
  uint32_t wait = Delay;

  /* Add a freq to guarantee minimum wait */
  if (wait < HAL_MAX_DELAY)
 80023c2:	f1b4 3fff 	cmp.w	r4, #4294967295
 80023c6:	d002      	beq.n	80023ce <HAL_Delay+0x16>
  {
    wait += (uint32_t)(uwTickFreq);
 80023c8:	4b04      	ldr	r3, [pc, #16]	@ (80023dc <HAL_Delay+0x24>)
 80023ca:	781b      	ldrb	r3, [r3, #0]
 80023cc:	441c      	add	r4, r3
  }

  while ((HAL_GetTick() - tickstart) < wait)
 80023ce:	f7ff ffed 	bl	80023ac <HAL_GetTick>
 80023d2:	1b40      	subs	r0, r0, r5
 80023d4:	42a0      	cmp	r0, r4
 80023d6:	d3fa      	bcc.n	80023ce <HAL_Delay+0x16>
  {
  }
}
 80023d8:	bd38      	pop	{r3, r4, r5, pc}
 80023da:	bf00      	nop
 80023dc:	200000a4 	.word	0x200000a4

080023e0 <ADC_DMAConvCplt>:
  * @brief  DMA transfer complete callback. 
  * @param  hdma: pointer to DMA handle.
  * @retval None
  */
void ADC_DMAConvCplt(DMA_HandleTypeDef *hdma)
{
 80023e0:	b508      	push	{r3, lr}
  /* Retrieve ADC handle corresponding to current DMA handle */
  ADC_HandleTypeDef* hadc = ( ADC_HandleTypeDef* )((DMA_HandleTypeDef* )hdma)->Parent;
 80023e2:	6a43      	ldr	r3, [r0, #36]	@ 0x24
 
  /* Update state machine on conversion status if not in error state */
  if (HAL_IS_BIT_CLR(hadc->State, HAL_ADC_STATE_ERROR_INTERNAL | HAL_ADC_STATE_ERROR_DMA))
 80023e4:	6a9a      	ldr	r2, [r3, #40]	@ 0x28
 80023e6:	f012 0f50 	tst.w	r2, #80	@ 0x50
 80023ea:	d11e      	bne.n	800242a <ADC_DMAConvCplt+0x4a>
  {
    /* Update ADC state machine */
    SET_BIT(hadc->State, HAL_ADC_STATE_REG_EOC);
 80023ec:	6a9a      	ldr	r2, [r3, #40]	@ 0x28
 80023ee:	f442 7200 	orr.w	r2, r2, #512	@ 0x200
 80023f2:	629a      	str	r2, [r3, #40]	@ 0x28
    /* Determine whether any further conversion upcoming on group regular     */
    /* by external trigger, continuous mode or scan sequence on going.        */
    /* Note: On STM32F1 devices, in case of sequencer enabled                 */
    /*       (several ranks selected), end of conversion flag is raised       */
    /*       at the end of the sequence.                                      */
    if(ADC_IS_SOFTWARE_START_REGULAR(hadc)        && 
 80023f4:	681a      	ldr	r2, [r3, #0]
 80023f6:	6892      	ldr	r2, [r2, #8]
 80023f8:	f402 2260 	and.w	r2, r2, #917504	@ 0xe0000
 80023fc:	f5b2 2f60 	cmp.w	r2, #917504	@ 0xe0000
 8002400:	d003      	beq.n	800240a <ADC_DMAConvCplt+0x2a>
    
    /* Conversion complete callback */
#if (USE_HAL_ADC_REGISTER_CALLBACKS == 1)
    hadc->ConvCpltCallback(hadc);
#else
    HAL_ADC_ConvCpltCallback(hadc);
 8002402:	4618      	mov	r0, r3
 8002404:	f7fe f910 	bl	8000628 <HAL_ADC_ConvCpltCallback>
  else
  {
    /* Call DMA error callback */
    hadc->DMA_Handle->XferErrorCallback(hdma);
  }
}
 8002408:	bd08      	pop	{r3, pc}
       (hadc->Init.ContinuousConvMode == DISABLE)   )
 800240a:	7b1a      	ldrb	r2, [r3, #12]
    if(ADC_IS_SOFTWARE_START_REGULAR(hadc)        && 
 800240c:	2a00      	cmp	r2, #0
 800240e:	d1f8      	bne.n	8002402 <ADC_DMAConvCplt+0x22>
      CLEAR_BIT(hadc->State, HAL_ADC_STATE_REG_BUSY);   
 8002410:	6a9a      	ldr	r2, [r3, #40]	@ 0x28
 8002412:	f422 7280 	bic.w	r2, r2, #256	@ 0x100
 8002416:	629a      	str	r2, [r3, #40]	@ 0x28
      if (HAL_IS_BIT_CLR(hadc->State, HAL_ADC_STATE_INJ_BUSY))
 8002418:	6a9a      	ldr	r2, [r3, #40]	@ 0x28
 800241a:	f412 5f80 	tst.w	r2, #4096	@ 0x1000
 800241e:	d1f0      	bne.n	8002402 <ADC_DMAConvCplt+0x22>
        SET_BIT(hadc->State, HAL_ADC_STATE_READY);
 8002420:	6a9a      	ldr	r2, [r3, #40]	@ 0x28
 8002422:	f042 0201 	orr.w	r2, r2, #1
 8002426:	629a      	str	r2, [r3, #40]	@ 0x28
 8002428:	e7eb      	b.n	8002402 <ADC_DMAConvCplt+0x22>
    hadc->DMA_Handle->XferErrorCallback(hdma);
 800242a:	6a1b      	ldr	r3, [r3, #32]
 800242c:	6b1b      	ldr	r3, [r3, #48]	@ 0x30
 800242e:	4798      	blx	r3
}
 8002430:	e7ea      	b.n	8002408 <ADC_DMAConvCplt+0x28>

08002432 <HAL_ADC_ConvHalfCpltCallback>:
}
 8002432:	4770      	bx	lr

08002434 <ADC_DMAHalfConvCplt>:
  * @brief  DMA half transfer complete callback. 
  * @param  hdma: pointer to DMA handle.
  * @retval None
  */
void ADC_DMAHalfConvCplt(DMA_HandleTypeDef *hdma)   
{
 8002434:	b508      	push	{r3, lr}
  
  /* Half conversion callback */
#if (USE_HAL_ADC_REGISTER_CALLBACKS == 1)
    hadc->ConvHalfCpltCallback(hadc);
#else
  HAL_ADC_ConvHalfCpltCallback(hadc);
 8002436:	6a40      	ldr	r0, [r0, #36]	@ 0x24
 8002438:	f7ff fffb 	bl	8002432 <HAL_ADC_ConvHalfCpltCallback>
#endif /* USE_HAL_ADC_REGISTER_CALLBACKS */
}
 800243c:	bd08      	pop	{r3, pc}

0800243e <HAL_ADC_ErrorCallback>:
}
 800243e:	4770      	bx	lr

08002440 <ADC_DMAError>:
  * @brief  DMA error callback 
  * @param  hdma: pointer to DMA handle.
  * @retval None
  */
void ADC_DMAError(DMA_HandleTypeDef *hdma)   
{
 8002440:	b508      	push	{r3, lr}
  /* Retrieve ADC handle corresponding to current DMA handle */
  ADC_HandleTypeDef* hadc = ( ADC_HandleTypeDef* )((DMA_HandleTypeDef* )hdma)->Parent;
 8002442:	6a40      	ldr	r0, [r0, #36]	@ 0x24
  
  /* Set ADC state */
  SET_BIT(hadc->State, HAL_ADC_STATE_ERROR_DMA);
 8002444:	6a83      	ldr	r3, [r0, #40]	@ 0x28
 8002446:	f043 0340 	orr.w	r3, r3, #64	@ 0x40
 800244a:	6283      	str	r3, [r0, #40]	@ 0x28
  
  /* Set ADC error code to DMA error */
  SET_BIT(hadc->ErrorCode, HAL_ADC_ERROR_DMA);
 800244c:	6ac3      	ldr	r3, [r0, #44]	@ 0x2c
 800244e:	f043 0304 	orr.w	r3, r3, #4
 8002452:	62c3      	str	r3, [r0, #44]	@ 0x2c
  
  /* Error callback */
#if (USE_HAL_ADC_REGISTER_CALLBACKS == 1)
  hadc->ErrorCallback(hadc);
#else
  HAL_ADC_ErrorCallback(hadc);
 8002454:	f7ff fff3 	bl	800243e <HAL_ADC_ErrorCallback>
#endif /* USE_HAL_ADC_REGISTER_CALLBACKS */
}
 8002458:	bd08      	pop	{r3, pc}
	...

0800245c <HAL_ADC_ConfigChannel>:
{ 
 800245c:	b430      	push	{r4, r5}
 800245e:	b082      	sub	sp, #8
  __IO uint32_t wait_loop_index = 0U;
 8002460:	2200      	movs	r2, #0
 8002462:	9201      	str	r2, [sp, #4]
  __HAL_LOCK(hadc);
 8002464:	f890 2024 	ldrb.w	r2, [r0, #36]	@ 0x24
 8002468:	2a01      	cmp	r2, #1
 800246a:	f000 808f 	beq.w	800258c <HAL_ADC_ConfigChannel+0x130>
 800246e:	4603      	mov	r3, r0
 8002470:	2201      	movs	r2, #1
 8002472:	f880 2024 	strb.w	r2, [r0, #36]	@ 0x24
  if (sConfig->Rank < 7U)
 8002476:	684a      	ldr	r2, [r1, #4]
 8002478:	2a06      	cmp	r2, #6
 800247a:	d82d      	bhi.n	80024d8 <HAL_ADC_ConfigChannel+0x7c>
    MODIFY_REG(hadc->Instance->SQR3                        ,
 800247c:	6804      	ldr	r4, [r0, #0]
 800247e:	6b60      	ldr	r0, [r4, #52]	@ 0x34
 8002480:	eb02 0282 	add.w	r2, r2, r2, lsl #2
 8002484:	3a05      	subs	r2, #5
 8002486:	f04f 0c1f 	mov.w	ip, #31
 800248a:	fa0c fc02 	lsl.w	ip, ip, r2
 800248e:	ea20 000c 	bic.w	r0, r0, ip
 8002492:	680d      	ldr	r5, [r1, #0]
 8002494:	fa05 f202 	lsl.w	r2, r5, r2
 8002498:	4302      	orrs	r2, r0
 800249a:	6362      	str	r2, [r4, #52]	@ 0x34
  if (sConfig->Channel >= ADC_CHANNEL_10)
 800249c:	680a      	ldr	r2, [r1, #0]
 800249e:	2a09      	cmp	r2, #9
 80024a0:	d938      	bls.n	8002514 <HAL_ADC_ConfigChannel+0xb8>
    MODIFY_REG(hadc->Instance->SMPR1                             ,
 80024a2:	681c      	ldr	r4, [r3, #0]
 80024a4:	68e0      	ldr	r0, [r4, #12]
 80024a6:	eb02 0242 	add.w	r2, r2, r2, lsl #1
 80024aa:	3a1e      	subs	r2, #30
 80024ac:	f04f 0c07 	mov.w	ip, #7
 80024b0:	fa0c fc02 	lsl.w	ip, ip, r2
 80024b4:	ea20 000c 	bic.w	r0, r0, ip
 80024b8:	688d      	ldr	r5, [r1, #8]
 80024ba:	fa05 f202 	lsl.w	r2, r5, r2
 80024be:	4302      	orrs	r2, r0
 80024c0:	60e2      	str	r2, [r4, #12]
  if ((sConfig->Channel == ADC_CHANNEL_TEMPSENSOR) ||
 80024c2:	680a      	ldr	r2, [r1, #0]
 80024c4:	3a10      	subs	r2, #16
 80024c6:	2a01      	cmp	r2, #1
 80024c8:	d934      	bls.n	8002534 <HAL_ADC_ConfigChannel+0xd8>
  HAL_StatusTypeDef tmp_hal_status = HAL_OK;
 80024ca:	2000      	movs	r0, #0
  __HAL_UNLOCK(hadc);
 80024cc:	2200      	movs	r2, #0
 80024ce:	f883 2024 	strb.w	r2, [r3, #36]	@ 0x24
}
 80024d2:	b002      	add	sp, #8
 80024d4:	bc30      	pop	{r4, r5}
 80024d6:	4770      	bx	lr
  else if (sConfig->Rank < 13U)
 80024d8:	2a0c      	cmp	r2, #12
 80024da:	d80d      	bhi.n	80024f8 <HAL_ADC_ConfigChannel+0x9c>
    MODIFY_REG(hadc->Instance->SQR2                        ,
 80024dc:	6805      	ldr	r5, [r0, #0]
 80024de:	6b28      	ldr	r0, [r5, #48]	@ 0x30
 80024e0:	eb02 0282 	add.w	r2, r2, r2, lsl #2
 80024e4:	3a23      	subs	r2, #35	@ 0x23
 80024e6:	241f      	movs	r4, #31
 80024e8:	4094      	lsls	r4, r2
 80024ea:	ea20 0004 	bic.w	r0, r0, r4
 80024ee:	680c      	ldr	r4, [r1, #0]
 80024f0:	4094      	lsls	r4, r2
 80024f2:	4320      	orrs	r0, r4
 80024f4:	6328      	str	r0, [r5, #48]	@ 0x30
 80024f6:	e7d1      	b.n	800249c <HAL_ADC_ConfigChannel+0x40>
    MODIFY_REG(hadc->Instance->SQR1                        ,
 80024f8:	6805      	ldr	r5, [r0, #0]
 80024fa:	6ae8      	ldr	r0, [r5, #44]	@ 0x2c
 80024fc:	eb02 0282 	add.w	r2, r2, r2, lsl #2
 8002500:	3a41      	subs	r2, #65	@ 0x41
 8002502:	241f      	movs	r4, #31
 8002504:	4094      	lsls	r4, r2
 8002506:	ea20 0004 	bic.w	r0, r0, r4
 800250a:	680c      	ldr	r4, [r1, #0]
 800250c:	4094      	lsls	r4, r2
 800250e:	4320      	orrs	r0, r4
 8002510:	62e8      	str	r0, [r5, #44]	@ 0x2c
 8002512:	e7c3      	b.n	800249c <HAL_ADC_ConfigChannel+0x40>
    MODIFY_REG(hadc->Instance->SMPR2                             ,
 8002514:	681c      	ldr	r4, [r3, #0]
 8002516:	6920      	ldr	r0, [r4, #16]
 8002518:	eb02 0242 	add.w	r2, r2, r2, lsl #1
 800251c:	f04f 0c07 	mov.w	ip, #7
 8002520:	fa0c fc02 	lsl.w	ip, ip, r2
 8002524:	ea20 000c 	bic.w	r0, r0, ip
 8002528:	688d      	ldr	r5, [r1, #8]
 800252a:	fa05 f202 	lsl.w	r2, r5, r2
 800252e:	4302      	orrs	r2, r0
 8002530:	6122      	str	r2, [r4, #16]
 8002532:	e7c6      	b.n	80024c2 <HAL_ADC_ConfigChannel+0x66>
    if (hadc->Instance == ADC1)
 8002534:	681a      	ldr	r2, [r3, #0]
 8002536:	4816      	ldr	r0, [pc, #88]	@ (8002590 <HAL_ADC_ConfigChannel+0x134>)
 8002538:	4282      	cmp	r2, r0
 800253a:	d005      	beq.n	8002548 <HAL_ADC_ConfigChannel+0xec>
      SET_BIT(hadc->State, HAL_ADC_STATE_ERROR_CONFIG);
 800253c:	6a9a      	ldr	r2, [r3, #40]	@ 0x28
 800253e:	f042 0220 	orr.w	r2, r2, #32
 8002542:	629a      	str	r2, [r3, #40]	@ 0x28
      tmp_hal_status = HAL_ERROR;
 8002544:	2001      	movs	r0, #1
 8002546:	e7c1      	b.n	80024cc <HAL_ADC_ConfigChannel+0x70>
      if (READ_BIT(hadc->Instance->CR2, ADC_CR2_TSVREFE) == RESET)
 8002548:	6890      	ldr	r0, [r2, #8]
 800254a:	f410 0f00 	tst.w	r0, #8388608	@ 0x800000
 800254e:	d11b      	bne.n	8002588 <HAL_ADC_ConfigChannel+0x12c>
        SET_BIT(hadc->Instance->CR2, ADC_CR2_TSVREFE);
 8002550:	6890      	ldr	r0, [r2, #8]
 8002552:	f440 0000 	orr.w	r0, r0, #8388608	@ 0x800000
 8002556:	6090      	str	r0, [r2, #8]
        if (sConfig->Channel == ADC_CHANNEL_TEMPSENSOR)
 8002558:	680a      	ldr	r2, [r1, #0]
 800255a:	2a10      	cmp	r2, #16
 800255c:	d001      	beq.n	8002562 <HAL_ADC_ConfigChannel+0x106>
  HAL_StatusTypeDef tmp_hal_status = HAL_OK;
 800255e:	2000      	movs	r0, #0
 8002560:	e7b4      	b.n	80024cc <HAL_ADC_ConfigChannel+0x70>
          wait_loop_index = (ADC_TEMPSENSOR_DELAY_US * (SystemCoreClock / 1000000U));
 8002562:	4a0c      	ldr	r2, [pc, #48]	@ (8002594 <HAL_ADC_ConfigChannel+0x138>)
 8002564:	6812      	ldr	r2, [r2, #0]
 8002566:	490c      	ldr	r1, [pc, #48]	@ (8002598 <HAL_ADC_ConfigChannel+0x13c>)
 8002568:	fba1 1202 	umull	r1, r2, r1, r2
 800256c:	0c92      	lsrs	r2, r2, #18
 800256e:	eb02 0282 	add.w	r2, r2, r2, lsl #2
 8002572:	0052      	lsls	r2, r2, #1
 8002574:	9201      	str	r2, [sp, #4]
          while(wait_loop_index != 0U)
 8002576:	e002      	b.n	800257e <HAL_ADC_ConfigChannel+0x122>
            wait_loop_index--;
 8002578:	9a01      	ldr	r2, [sp, #4]
 800257a:	3a01      	subs	r2, #1
 800257c:	9201      	str	r2, [sp, #4]
          while(wait_loop_index != 0U)
 800257e:	9a01      	ldr	r2, [sp, #4]
 8002580:	2a00      	cmp	r2, #0
 8002582:	d1f9      	bne.n	8002578 <HAL_ADC_ConfigChannel+0x11c>
  HAL_StatusTypeDef tmp_hal_status = HAL_OK;
 8002584:	2000      	movs	r0, #0
 8002586:	e7a1      	b.n	80024cc <HAL_ADC_ConfigChannel+0x70>
 8002588:	2000      	movs	r0, #0
 800258a:	e79f      	b.n	80024cc <HAL_ADC_ConfigChannel+0x70>
  __HAL_LOCK(hadc);
 800258c:	2002      	movs	r0, #2
 800258e:	e7a0      	b.n	80024d2 <HAL_ADC_ConfigChannel+0x76>
 8002590:	40012400 	.word	0x40012400
 8002594:	200000a0 	.word	0x200000a0
 8002598:	431bde83 	.word	0x431bde83

0800259c <ADC_Enable>:
{
 800259c:	b530      	push	{r4, r5, lr}
 800259e:	b083      	sub	sp, #12
  __IO uint32_t wait_loop_index = 0U;
 80025a0:	2300      	movs	r3, #0
 80025a2:	9301      	str	r3, [sp, #4]
  if (ADC_IS_ENABLE(hadc) == RESET)
 80025a4:	6803      	ldr	r3, [r0, #0]
 80025a6:	689a      	ldr	r2, [r3, #8]
 80025a8:	f012 0f01 	tst.w	r2, #1
 80025ac:	d133      	bne.n	8002616 <ADC_Enable+0x7a>
 80025ae:	4604      	mov	r4, r0
    __HAL_ADC_ENABLE(hadc);
 80025b0:	689a      	ldr	r2, [r3, #8]
 80025b2:	f042 0201 	orr.w	r2, r2, #1
 80025b6:	609a      	str	r2, [r3, #8]
    wait_loop_index = (ADC_STAB_DELAY_US * (SystemCoreClock / 1000000U));
 80025b8:	4b18      	ldr	r3, [pc, #96]	@ (800261c <ADC_Enable+0x80>)
 80025ba:	681b      	ldr	r3, [r3, #0]
 80025bc:	4a18      	ldr	r2, [pc, #96]	@ (8002620 <ADC_Enable+0x84>)
 80025be:	fba2 2303 	umull	r2, r3, r2, r3
 80025c2:	0c9b      	lsrs	r3, r3, #18
 80025c4:	9301      	str	r3, [sp, #4]
    while(wait_loop_index != 0U)
 80025c6:	e002      	b.n	80025ce <ADC_Enable+0x32>
      wait_loop_index--;
 80025c8:	9b01      	ldr	r3, [sp, #4]
 80025ca:	3b01      	subs	r3, #1
 80025cc:	9301      	str	r3, [sp, #4]
    while(wait_loop_index != 0U)
 80025ce:	9b01      	ldr	r3, [sp, #4]
 80025d0:	2b00      	cmp	r3, #0
 80025d2:	d1f9      	bne.n	80025c8 <ADC_Enable+0x2c>
    tickstart = HAL_GetTick();
 80025d4:	f7ff feea 	bl	80023ac <HAL_GetTick>
 80025d8:	4605      	mov	r5, r0
    while(ADC_IS_ENABLE(hadc) == RESET)
 80025da:	6823      	ldr	r3, [r4, #0]
 80025dc:	689b      	ldr	r3, [r3, #8]
 80025de:	f013 0f01 	tst.w	r3, #1
 80025e2:	d116      	bne.n	8002612 <ADC_Enable+0x76>
      if((HAL_GetTick() - tickstart) > ADC_ENABLE_TIMEOUT)
 80025e4:	f7ff fee2 	bl	80023ac <HAL_GetTick>
 80025e8:	1b43      	subs	r3, r0, r5
 80025ea:	2b02      	cmp	r3, #2
 80025ec:	d9f5      	bls.n	80025da <ADC_Enable+0x3e>
        if(ADC_IS_ENABLE(hadc) == RESET)
 80025ee:	6823      	ldr	r3, [r4, #0]
 80025f0:	689b      	ldr	r3, [r3, #8]
 80025f2:	f013 0f01 	tst.w	r3, #1
 80025f6:	d1f0      	bne.n	80025da <ADC_Enable+0x3e>
          SET_BIT(hadc->State, HAL_ADC_STATE_ERROR_INTERNAL);
 80025f8:	6aa3      	ldr	r3, [r4, #40]	@ 0x28
 80025fa:	f043 0310 	orr.w	r3, r3, #16
 80025fe:	62a3      	str	r3, [r4, #40]	@ 0x28
          SET_BIT(hadc->ErrorCode, HAL_ADC_ERROR_INTERNAL);
 8002600:	6ae3      	ldr	r3, [r4, #44]	@ 0x2c
 8002602:	f043 0301 	orr.w	r3, r3, #1
 8002606:	62e3      	str	r3, [r4, #44]	@ 0x2c
          __HAL_UNLOCK(hadc);
 8002608:	2300      	movs	r3, #0
 800260a:	f884 3024 	strb.w	r3, [r4, #36]	@ 0x24
          return HAL_ERROR;
 800260e:	2001      	movs	r0, #1
 8002610:	e002      	b.n	8002618 <ADC_Enable+0x7c>
  return HAL_OK;
 8002612:	2000      	movs	r0, #0
 8002614:	e000      	b.n	8002618 <ADC_Enable+0x7c>
 8002616:	2000      	movs	r0, #0
}
 8002618:	b003      	add	sp, #12
 800261a:	bd30      	pop	{r4, r5, pc}
 800261c:	200000a0 	.word	0x200000a0
 8002620:	431bde83 	.word	0x431bde83

08002624 <HAL_ADC_Start_DMA>:
{
 8002624:	b5f8      	push	{r3, r4, r5, r6, r7, lr}
 8002626:	4604      	mov	r4, r0
 8002628:	460d      	mov	r5, r1
 800262a:	4616      	mov	r6, r2
  if(ADC_MULTIMODE_IS_ENABLE(hadc) == RESET)
 800262c:	6801      	ldr	r1, [r0, #0]
 800262e:	4844      	ldr	r0, [pc, #272]	@ (8002740 <HAL_ADC_Start_DMA+0x11c>)
 8002630:	4281      	cmp	r1, r0
 8002632:	d059      	beq.n	80026e8 <HAL_ADC_Start_DMA+0xc4>
 8002634:	4b43      	ldr	r3, [pc, #268]	@ (8002744 <HAL_ADC_Start_DMA+0x120>)
 8002636:	4299      	cmp	r1, r3
 8002638:	d056      	beq.n	80026e8 <HAL_ADC_Start_DMA+0xc4>
    __HAL_LOCK(hadc);
 800263a:	f894 3024 	ldrb.w	r3, [r4, #36]	@ 0x24
 800263e:	2b01      	cmp	r3, #1
 8002640:	d07c      	beq.n	800273c <HAL_ADC_Start_DMA+0x118>
 8002642:	2301      	movs	r3, #1
 8002644:	f884 3024 	strb.w	r3, [r4, #36]	@ 0x24
    tmp_hal_status = ADC_Enable(hadc);
 8002648:	4620      	mov	r0, r4
 800264a:	f7ff ffa7 	bl	800259c <ADC_Enable>
    if (tmp_hal_status == HAL_OK)
 800264e:	4607      	mov	r7, r0
 8002650:	2800      	cmp	r0, #0
 8002652:	d16e      	bne.n	8002732 <HAL_ADC_Start_DMA+0x10e>
      ADC_STATE_CLR_SET(hadc->State,
 8002654:	6aa1      	ldr	r1, [r4, #40]	@ 0x28
 8002656:	f421 6170 	bic.w	r1, r1, #3840	@ 0xf00
 800265a:	f021 0101 	bic.w	r1, r1, #1
 800265e:	f441 7180 	orr.w	r1, r1, #256	@ 0x100
 8002662:	62a1      	str	r1, [r4, #40]	@ 0x28
    if (ADC_NONMULTIMODE_OR_MULTIMODEMASTER(hadc))
 8002664:	6822      	ldr	r2, [r4, #0]
 8002666:	4b37      	ldr	r3, [pc, #220]	@ (8002744 <HAL_ADC_Start_DMA+0x120>)
 8002668:	429a      	cmp	r2, r3
 800266a:	d044      	beq.n	80026f6 <HAL_ADC_Start_DMA+0xd2>
      CLEAR_BIT(hadc->State, HAL_ADC_STATE_MULTIMODE_SLAVE);
 800266c:	6aa3      	ldr	r3, [r4, #40]	@ 0x28
 800266e:	f423 1380 	bic.w	r3, r3, #1048576	@ 0x100000
 8002672:	62a3      	str	r3, [r4, #40]	@ 0x28
      if (READ_BIT(hadc->Instance->CR1, ADC_CR1_JAUTO) != RESET)
 8002674:	6853      	ldr	r3, [r2, #4]
 8002676:	f413 6f80 	tst.w	r3, #1024	@ 0x400
 800267a:	d005      	beq.n	8002688 <HAL_ADC_Start_DMA+0x64>
        ADC_STATE_CLR_SET(hadc->State, HAL_ADC_STATE_INJ_EOC, HAL_ADC_STATE_INJ_BUSY);  
 800267c:	6aa3      	ldr	r3, [r4, #40]	@ 0x28
 800267e:	f423 5340 	bic.w	r3, r3, #12288	@ 0x3000
 8002682:	f443 5380 	orr.w	r3, r3, #4096	@ 0x1000
 8002686:	62a3      	str	r3, [r4, #40]	@ 0x28
      if (HAL_IS_BIT_SET(hadc->State, HAL_ADC_STATE_INJ_BUSY))
 8002688:	6aa3      	ldr	r3, [r4, #40]	@ 0x28
 800268a:	f413 5f80 	tst.w	r3, #4096	@ 0x1000
 800268e:	d048      	beq.n	8002722 <HAL_ADC_Start_DMA+0xfe>
        CLEAR_BIT(hadc->ErrorCode, (HAL_ADC_ERROR_OVR | HAL_ADC_ERROR_DMA));         
 8002690:	6ae3      	ldr	r3, [r4, #44]	@ 0x2c
 8002692:	f023 0306 	bic.w	r3, r3, #6
 8002696:	62e3      	str	r3, [r4, #44]	@ 0x2c
      __HAL_UNLOCK(hadc);
 8002698:	2300      	movs	r3, #0
 800269a:	f884 3024 	strb.w	r3, [r4, #36]	@ 0x24
      hadc->DMA_Handle->XferCpltCallback = ADC_DMAConvCplt;
 800269e:	6a23      	ldr	r3, [r4, #32]
 80026a0:	4a29      	ldr	r2, [pc, #164]	@ (8002748 <HAL_ADC_Start_DMA+0x124>)
 80026a2:	629a      	str	r2, [r3, #40]	@ 0x28
      hadc->DMA_Handle->XferHalfCpltCallback = ADC_DMAHalfConvCplt;
 80026a4:	6a23      	ldr	r3, [r4, #32]
 80026a6:	4a29      	ldr	r2, [pc, #164]	@ (800274c <HAL_ADC_Start_DMA+0x128>)
 80026a8:	62da      	str	r2, [r3, #44]	@ 0x2c
      hadc->DMA_Handle->XferErrorCallback = ADC_DMAError;
 80026aa:	6a23      	ldr	r3, [r4, #32]
 80026ac:	4a28      	ldr	r2, [pc, #160]	@ (8002750 <HAL_ADC_Start_DMA+0x12c>)
 80026ae:	631a      	str	r2, [r3, #48]	@ 0x30
      __HAL_ADC_CLEAR_FLAG(hadc, ADC_FLAG_EOC);
 80026b0:	6823      	ldr	r3, [r4, #0]
 80026b2:	f06f 0202 	mvn.w	r2, #2
 80026b6:	601a      	str	r2, [r3, #0]
      SET_BIT(hadc->Instance->CR2, ADC_CR2_DMA);
 80026b8:	6822      	ldr	r2, [r4, #0]
 80026ba:	6893      	ldr	r3, [r2, #8]
 80026bc:	f443 7380 	orr.w	r3, r3, #256	@ 0x100
 80026c0:	6093      	str	r3, [r2, #8]
      HAL_DMA_Start_IT(hadc->DMA_Handle, (uint32_t)&hadc->Instance->DR, (uint32_t)pData, Length);
 80026c2:	6821      	ldr	r1, [r4, #0]
 80026c4:	4633      	mov	r3, r6
 80026c6:	462a      	mov	r2, r5
 80026c8:	314c      	adds	r1, #76	@ 0x4c
 80026ca:	6a20      	ldr	r0, [r4, #32]
 80026cc:	f000 fa34 	bl	8002b38 <HAL_DMA_Start_IT>
      if (ADC_IS_SOFTWARE_START_REGULAR(hadc))
 80026d0:	6823      	ldr	r3, [r4, #0]
 80026d2:	689a      	ldr	r2, [r3, #8]
 80026d4:	f402 2260 	and.w	r2, r2, #917504	@ 0xe0000
 80026d8:	f5b2 2f60 	cmp.w	r2, #917504	@ 0xe0000
 80026dc:	d024      	beq.n	8002728 <HAL_ADC_Start_DMA+0x104>
        SET_BIT(hadc->Instance->CR2, ADC_CR2_EXTTRIG);
 80026de:	689a      	ldr	r2, [r3, #8]
 80026e0:	f442 1280 	orr.w	r2, r2, #1048576	@ 0x100000
 80026e4:	609a      	str	r2, [r3, #8]
 80026e6:	e027      	b.n	8002738 <HAL_ADC_Start_DMA+0x114>
  if(ADC_MULTIMODE_IS_ENABLE(hadc) == RESET)
 80026e8:	4b15      	ldr	r3, [pc, #84]	@ (8002740 <HAL_ADC_Start_DMA+0x11c>)
 80026ea:	685b      	ldr	r3, [r3, #4]
 80026ec:	f413 2f70 	tst.w	r3, #983040	@ 0xf0000
 80026f0:	d0a3      	beq.n	800263a <HAL_ADC_Start_DMA+0x16>
    tmp_hal_status = HAL_ERROR;
 80026f2:	2701      	movs	r7, #1
 80026f4:	e020      	b.n	8002738 <HAL_ADC_Start_DMA+0x114>
    if (ADC_NONMULTIMODE_OR_MULTIMODEMASTER(hadc))
 80026f6:	f5a3 6380 	sub.w	r3, r3, #1024	@ 0x400
 80026fa:	685b      	ldr	r3, [r3, #4]
 80026fc:	f413 2f70 	tst.w	r3, #983040	@ 0xf0000
 8002700:	d0b4      	beq.n	800266c <HAL_ADC_Start_DMA+0x48>
      SET_BIT(hadc->State, HAL_ADC_STATE_MULTIMODE_SLAVE);
 8002702:	6aa3      	ldr	r3, [r4, #40]	@ 0x28
 8002704:	f443 1380 	orr.w	r3, r3, #1048576	@ 0x100000
 8002708:	62a3      	str	r3, [r4, #40]	@ 0x28
      if (ADC_MULTIMODE_AUTO_INJECTED(hadc))
 800270a:	4b0d      	ldr	r3, [pc, #52]	@ (8002740 <HAL_ADC_Start_DMA+0x11c>)
 800270c:	685b      	ldr	r3, [r3, #4]
 800270e:	f413 6f80 	tst.w	r3, #1024	@ 0x400
 8002712:	d0b9      	beq.n	8002688 <HAL_ADC_Start_DMA+0x64>
        ADC_STATE_CLR_SET(hadc->State, HAL_ADC_STATE_INJ_EOC, HAL_ADC_STATE_INJ_BUSY);
 8002714:	6aa3      	ldr	r3, [r4, #40]	@ 0x28
 8002716:	f423 5340 	bic.w	r3, r3, #12288	@ 0x3000
 800271a:	f443 5380 	orr.w	r3, r3, #4096	@ 0x1000
 800271e:	62a3      	str	r3, [r4, #40]	@ 0x28
 8002720:	e7b2      	b.n	8002688 <HAL_ADC_Start_DMA+0x64>
        ADC_CLEAR_ERRORCODE(hadc);
 8002722:	2300      	movs	r3, #0
 8002724:	62e3      	str	r3, [r4, #44]	@ 0x2c
 8002726:	e7b7      	b.n	8002698 <HAL_ADC_Start_DMA+0x74>
        SET_BIT(hadc->Instance->CR2, (ADC_CR2_SWSTART | ADC_CR2_EXTTRIG));
 8002728:	689a      	ldr	r2, [r3, #8]
 800272a:	f442 02a0 	orr.w	r2, r2, #5242880	@ 0x500000
 800272e:	609a      	str	r2, [r3, #8]
 8002730:	e002      	b.n	8002738 <HAL_ADC_Start_DMA+0x114>
      __HAL_UNLOCK(hadc);
 8002732:	2300      	movs	r3, #0
 8002734:	f884 3024 	strb.w	r3, [r4, #36]	@ 0x24
}
 8002738:	4638      	mov	r0, r7
 800273a:	bdf8      	pop	{r3, r4, r5, r6, r7, pc}
    __HAL_LOCK(hadc);
 800273c:	2702      	movs	r7, #2
 800273e:	e7fb      	b.n	8002738 <HAL_ADC_Start_DMA+0x114>
 8002740:	40012400 	.word	0x40012400
 8002744:	40012800 	.word	0x40012800
 8002748:	080023e1 	.word	0x080023e1
 800274c:	08002435 	.word	0x08002435
 8002750:	08002441 	.word	0x08002441

08002754 <ADC_ConversionStop_Disable>:
{
 8002754:	b538      	push	{r3, r4, r5, lr}
  if (ADC_IS_ENABLE(hadc) != RESET)
 8002756:	6803      	ldr	r3, [r0, #0]
 8002758:	689a      	ldr	r2, [r3, #8]
 800275a:	f012 0f01 	tst.w	r2, #1
 800275e:	d101      	bne.n	8002764 <ADC_ConversionStop_Disable+0x10>
  return HAL_OK;
 8002760:	2000      	movs	r0, #0
}
 8002762:	bd38      	pop	{r3, r4, r5, pc}
 8002764:	4604      	mov	r4, r0
    __HAL_ADC_DISABLE(hadc);
 8002766:	689a      	ldr	r2, [r3, #8]
 8002768:	f022 0201 	bic.w	r2, r2, #1
 800276c:	609a      	str	r2, [r3, #8]
    tickstart = HAL_GetTick();
 800276e:	f7ff fe1d 	bl	80023ac <HAL_GetTick>
 8002772:	4605      	mov	r5, r0
    while(ADC_IS_ENABLE(hadc) != RESET)
 8002774:	6823      	ldr	r3, [r4, #0]
 8002776:	689b      	ldr	r3, [r3, #8]
 8002778:	f013 0f01 	tst.w	r3, #1
 800277c:	d013      	beq.n	80027a6 <ADC_ConversionStop_Disable+0x52>
      if((HAL_GetTick() - tickstart) > ADC_DISABLE_TIMEOUT)
 800277e:	f7ff fe15 	bl	80023ac <HAL_GetTick>
 8002782:	1b43      	subs	r3, r0, r5
 8002784:	2b02      	cmp	r3, #2
 8002786:	d9f5      	bls.n	8002774 <ADC_ConversionStop_Disable+0x20>
        if(ADC_IS_ENABLE(hadc) != RESET)
 8002788:	6823      	ldr	r3, [r4, #0]
 800278a:	689b      	ldr	r3, [r3, #8]
 800278c:	f013 0f01 	tst.w	r3, #1
 8002790:	d0f0      	beq.n	8002774 <ADC_ConversionStop_Disable+0x20>
          SET_BIT(hadc->State, HAL_ADC_STATE_ERROR_INTERNAL);
 8002792:	6aa3      	ldr	r3, [r4, #40]	@ 0x28
 8002794:	f043 0310 	orr.w	r3, r3, #16
 8002798:	62a3      	str	r3, [r4, #40]	@ 0x28
          SET_BIT(hadc->ErrorCode, HAL_ADC_ERROR_INTERNAL);
 800279a:	6ae3      	ldr	r3, [r4, #44]	@ 0x2c
 800279c:	f043 0301 	orr.w	r3, r3, #1
 80027a0:	62e3      	str	r3, [r4, #44]	@ 0x2c
          return HAL_ERROR;
 80027a2:	2001      	movs	r0, #1
 80027a4:	e7dd      	b.n	8002762 <ADC_ConversionStop_Disable+0xe>
  return HAL_OK;
 80027a6:	2000      	movs	r0, #0
 80027a8:	e7db      	b.n	8002762 <ADC_ConversionStop_Disable+0xe>
	...

080027ac <HAL_ADC_Init>:
  if(hadc == NULL)
 80027ac:	2800      	cmp	r0, #0
 80027ae:	d07b      	beq.n	80028a8 <HAL_ADC_Init+0xfc>
{
 80027b0:	b570      	push	{r4, r5, r6, lr}
 80027b2:	4604      	mov	r4, r0
  if (hadc->State == HAL_ADC_STATE_RESET)
 80027b4:	6a83      	ldr	r3, [r0, #40]	@ 0x28
 80027b6:	2b00      	cmp	r3, #0
 80027b8:	d04d      	beq.n	8002856 <HAL_ADC_Init+0xaa>
  tmp_hal_status = ADC_ConversionStop_Disable(hadc);
 80027ba:	4620      	mov	r0, r4
 80027bc:	f7ff ffca 	bl	8002754 <ADC_ConversionStop_Disable>
  if (HAL_IS_BIT_CLR(hadc->State, HAL_ADC_STATE_ERROR_INTERNAL) &&
 80027c0:	6aa3      	ldr	r3, [r4, #40]	@ 0x28
 80027c2:	f013 0310 	ands.w	r3, r3, #16
 80027c6:	d169      	bne.n	800289c <HAL_ADC_Init+0xf0>
 80027c8:	2800      	cmp	r0, #0
 80027ca:	d167      	bne.n	800289c <HAL_ADC_Init+0xf0>
    ADC_STATE_CLR_SET(hadc->State,
 80027cc:	6aa2      	ldr	r2, [r4, #40]	@ 0x28
 80027ce:	f422 5288 	bic.w	r2, r2, #4352	@ 0x1100
 80027d2:	f022 0202 	bic.w	r2, r2, #2
 80027d6:	f042 0202 	orr.w	r2, r2, #2
 80027da:	62a2      	str	r2, [r4, #40]	@ 0x28
    tmp_cr2 |= (hadc->Init.DataAlign                                          |
 80027dc:	6862      	ldr	r2, [r4, #4]
                ADC_CFGR_EXTSEL(hadc, hadc->Init.ExternalTrigConv)            |
 80027de:	69e1      	ldr	r1, [r4, #28]
    tmp_cr2 |= (hadc->Init.DataAlign                                          |
 80027e0:	430a      	orrs	r2, r1
                ADC_CR2_CONTINUOUS((uint32_t)hadc->Init.ContinuousConvMode)   );
 80027e2:	7b21      	ldrb	r1, [r4, #12]
                ADC_CFGR_EXTSEL(hadc, hadc->Init.ExternalTrigConv)            |
 80027e4:	ea42 0241 	orr.w	r2, r2, r1, lsl #1
    tmp_cr1 |= (ADC_CR1_SCAN_SET(hadc->Init.ScanConvMode));
 80027e8:	68a5      	ldr	r5, [r4, #8]
 80027ea:	f5b5 7f80 	cmp.w	r5, #256	@ 0x100
 80027ee:	d002      	beq.n	80027f6 <HAL_ADC_Init+0x4a>
 80027f0:	2d01      	cmp	r5, #1
 80027f2:	d036      	beq.n	8002862 <HAL_ADC_Init+0xb6>
 80027f4:	461d      	mov	r5, r3
    if (hadc->Init.DiscontinuousConvMode == ENABLE)
 80027f6:	7d26      	ldrb	r6, [r4, #20]
 80027f8:	2e01      	cmp	r6, #1
 80027fa:	d035      	beq.n	8002868 <HAL_ADC_Init+0xbc>
      MODIFY_REG(hadc->Instance->CR1,
 80027fc:	6826      	ldr	r6, [r4, #0]
 80027fe:	6871      	ldr	r1, [r6, #4]
 8002800:	f421 4169 	bic.w	r1, r1, #59648	@ 0xe900
 8002804:	4329      	orrs	r1, r5
 8002806:	6071      	str	r1, [r6, #4]
      MODIFY_REG(hadc->Instance->CR2,
 8002808:	6825      	ldr	r5, [r4, #0]
 800280a:	68ae      	ldr	r6, [r5, #8]
 800280c:	4927      	ldr	r1, [pc, #156]	@ (80028ac <HAL_ADC_Init+0x100>)
 800280e:	4031      	ands	r1, r6
 8002810:	4311      	orrs	r1, r2
 8002812:	60a9      	str	r1, [r5, #8]
    if (ADC_CR1_SCAN_SET(hadc->Init.ScanConvMode) == ADC_SCAN_ENABLE)
 8002814:	68a1      	ldr	r1, [r4, #8]
 8002816:	f5b1 7f80 	cmp.w	r1, #256	@ 0x100
 800281a:	d001      	beq.n	8002820 <HAL_ADC_Init+0x74>
 800281c:	2901      	cmp	r1, #1
 800281e:	d102      	bne.n	8002826 <HAL_ADC_Init+0x7a>
      tmp_sqr1 = ADC_SQR1_L_SHIFT(hadc->Init.NbrOfConversion);
 8002820:	6923      	ldr	r3, [r4, #16]
 8002822:	3b01      	subs	r3, #1
 8002824:	051b      	lsls	r3, r3, #20
    MODIFY_REG(hadc->Instance->SQR1,
 8002826:	6825      	ldr	r5, [r4, #0]
 8002828:	6ae9      	ldr	r1, [r5, #44]	@ 0x2c
 800282a:	f421 0170 	bic.w	r1, r1, #15728640	@ 0xf00000
 800282e:	430b      	orrs	r3, r1
 8002830:	62eb      	str	r3, [r5, #44]	@ 0x2c
    if (READ_BIT(hadc->Instance->CR2, ~(ADC_CR2_ADON | ADC_CR2_DMA |
 8002832:	6823      	ldr	r3, [r4, #0]
 8002834:	6899      	ldr	r1, [r3, #8]
 8002836:	4b1e      	ldr	r3, [pc, #120]	@ (80028b0 <HAL_ADC_Init+0x104>)
 8002838:	400b      	ands	r3, r1
 800283a:	429a      	cmp	r2, r3
 800283c:	d025      	beq.n	800288a <HAL_ADC_Init+0xde>
      ADC_STATE_CLR_SET(hadc->State,
 800283e:	6aa3      	ldr	r3, [r4, #40]	@ 0x28
 8002840:	f023 0312 	bic.w	r3, r3, #18
 8002844:	f043 0310 	orr.w	r3, r3, #16
 8002848:	62a3      	str	r3, [r4, #40]	@ 0x28
      SET_BIT(hadc->ErrorCode, HAL_ADC_ERROR_INTERNAL);
 800284a:	6ae3      	ldr	r3, [r4, #44]	@ 0x2c
 800284c:	f043 0301 	orr.w	r3, r3, #1
 8002850:	62e3      	str	r3, [r4, #44]	@ 0x2c
      tmp_hal_status = HAL_ERROR;
 8002852:	2001      	movs	r0, #1
 8002854:	e027      	b.n	80028a6 <HAL_ADC_Init+0xfa>
    ADC_CLEAR_ERRORCODE(hadc);
 8002856:	62c3      	str	r3, [r0, #44]	@ 0x2c
    hadc->Lock = HAL_UNLOCKED;
 8002858:	f880 3024 	strb.w	r3, [r0, #36]	@ 0x24
    HAL_ADC_MspInit(hadc);
 800285c:	f7fd fe26 	bl	80004ac <HAL_ADC_MspInit>
 8002860:	e7ab      	b.n	80027ba <HAL_ADC_Init+0xe>
    tmp_cr1 |= (ADC_CR1_SCAN_SET(hadc->Init.ScanConvMode));
 8002862:	f44f 7580 	mov.w	r5, #256	@ 0x100
 8002866:	e7c6      	b.n	80027f6 <HAL_ADC_Init+0x4a>
      if (hadc->Init.ContinuousConvMode == DISABLE)
 8002868:	b931      	cbnz	r1, 8002878 <HAL_ADC_Init+0xcc>
        SET_BIT(tmp_cr1, ADC_CR1_DISCEN                                            |
 800286a:	69a1      	ldr	r1, [r4, #24]
 800286c:	3901      	subs	r1, #1
 800286e:	ea45 3141 	orr.w	r1, r5, r1, lsl #13
 8002872:	f441 6500 	orr.w	r5, r1, #2048	@ 0x800
 8002876:	e7c1      	b.n	80027fc <HAL_ADC_Init+0x50>
        SET_BIT(hadc->State, HAL_ADC_STATE_ERROR_CONFIG);
 8002878:	6aa1      	ldr	r1, [r4, #40]	@ 0x28
 800287a:	f041 0120 	orr.w	r1, r1, #32
 800287e:	62a1      	str	r1, [r4, #40]	@ 0x28
        SET_BIT(hadc->ErrorCode, HAL_ADC_ERROR_INTERNAL);
 8002880:	6ae1      	ldr	r1, [r4, #44]	@ 0x2c
 8002882:	f041 0101 	orr.w	r1, r1, #1
 8002886:	62e1      	str	r1, [r4, #44]	@ 0x2c
 8002888:	e7b8      	b.n	80027fc <HAL_ADC_Init+0x50>
      ADC_CLEAR_ERRORCODE(hadc);
 800288a:	2300      	movs	r3, #0
 800288c:	62e3      	str	r3, [r4, #44]	@ 0x2c
      ADC_STATE_CLR_SET(hadc->State,
 800288e:	6aa3      	ldr	r3, [r4, #40]	@ 0x28
 8002890:	f023 0303 	bic.w	r3, r3, #3
 8002894:	f043 0301 	orr.w	r3, r3, #1
 8002898:	62a3      	str	r3, [r4, #40]	@ 0x28
 800289a:	e004      	b.n	80028a6 <HAL_ADC_Init+0xfa>
    SET_BIT(hadc->State, HAL_ADC_STATE_ERROR_INTERNAL);
 800289c:	6aa3      	ldr	r3, [r4, #40]	@ 0x28
 800289e:	f043 0310 	orr.w	r3, r3, #16
 80028a2:	62a3      	str	r3, [r4, #40]	@ 0x28
    tmp_hal_status = HAL_ERROR;
 80028a4:	2001      	movs	r0, #1
}
 80028a6:	bd70      	pop	{r4, r5, r6, pc}
    return HAL_ERROR;
 80028a8:	2001      	movs	r0, #1
}
 80028aa:	4770      	bx	lr
 80028ac:	ffe1f7fd 	.word	0xffe1f7fd
 80028b0:	ff1f0efe 	.word	0xff1f0efe

080028b4 <HAL_ADCEx_Calibration_Start>:
  *         the completion of this function.
  * @param  hadc: ADC handle
  * @retval HAL status
  */
HAL_StatusTypeDef HAL_ADCEx_Calibration_Start(ADC_HandleTypeDef* hadc)
{
 80028b4:	b570      	push	{r4, r5, r6, lr}
 80028b6:	b082      	sub	sp, #8
  HAL_StatusTypeDef tmp_hal_status = HAL_OK;
  uint32_t tickstart;
  __IO uint32_t wait_loop_index = 0U;
 80028b8:	2300      	movs	r3, #0
 80028ba:	9301      	str	r3, [sp, #4]
  
  /* Check the parameters */
  assert_param(IS_ADC_ALL_INSTANCE(hadc->Instance));

  /* Process locked */
  __HAL_LOCK(hadc);
 80028bc:	f890 3024 	ldrb.w	r3, [r0, #36]	@ 0x24
 80028c0:	2b01      	cmp	r3, #1
 80028c2:	d072      	beq.n	80029aa <HAL_ADCEx_Calibration_Start+0xf6>
 80028c4:	4604      	mov	r4, r0
 80028c6:	2301      	movs	r3, #1
 80028c8:	f880 3024 	strb.w	r3, [r0, #36]	@ 0x24
    
   /* 1. Disable ADC peripheral                                                 */
   tmp_hal_status = ADC_ConversionStop_Disable(hadc);
 80028cc:	f7ff ff42 	bl	8002754 <ADC_ConversionStop_Disable>
  
   /* 2. Calibration prerequisite delay before starting the calibration.       */
   /*    - ADC must be enabled for at least two ADC clock cycles               */
   tmp_hal_status = ADC_Enable(hadc);
 80028d0:	4620      	mov	r0, r4
 80028d2:	f7ff fe63 	bl	800259c <ADC_Enable>

   /* Check if ADC is effectively enabled */
   if (tmp_hal_status == HAL_OK)
 80028d6:	4605      	mov	r5, r0
 80028d8:	b128      	cbz	r0, 80028e6 <HAL_ADCEx_Calibration_Start+0x32>
                      HAL_ADC_STATE_BUSY_INTERNAL,
                      HAL_ADC_STATE_READY);
  }
  
  /* Process unlocked */
  __HAL_UNLOCK(hadc);
 80028da:	2300      	movs	r3, #0
 80028dc:	f884 3024 	strb.w	r3, [r4, #36]	@ 0x24
  
  /* Return function status */
  return tmp_hal_status;
}
 80028e0:	4628      	mov	r0, r5
 80028e2:	b002      	add	sp, #8
 80028e4:	bd70      	pop	{r4, r5, r6, pc}
     ADC_STATE_CLR_SET(hadc->State,
 80028e6:	6aa3      	ldr	r3, [r4, #40]	@ 0x28
 80028e8:	f423 5388 	bic.w	r3, r3, #4352	@ 0x1100
 80028ec:	f023 0302 	bic.w	r3, r3, #2
 80028f0:	f043 0302 	orr.w	r3, r3, #2
 80028f4:	62a3      	str	r3, [r4, #40]	@ 0x28
                        / HAL_RCCEx_GetPeriphCLKFreq(RCC_PERIPHCLK_ADC))
 80028f6:	4b2e      	ldr	r3, [pc, #184]	@ (80029b0 <HAL_ADCEx_Calibration_Start+0xfc>)
 80028f8:	681e      	ldr	r6, [r3, #0]
 80028fa:	2002      	movs	r0, #2
 80028fc:	f000 ff34 	bl	8003768 <HAL_RCCEx_GetPeriphCLKFreq>
 8002900:	fbb6 f6f0 	udiv	r6, r6, r0
                       * ADC_PRECALIBRATION_DELAY_ADCCLOCKCYCLES        );
 8002904:	0076      	lsls	r6, r6, #1
    wait_loop_index = ((SystemCoreClock
 8002906:	9601      	str	r6, [sp, #4]
    while(wait_loop_index != 0U)
 8002908:	e002      	b.n	8002910 <HAL_ADCEx_Calibration_Start+0x5c>
      wait_loop_index--;
 800290a:	9b01      	ldr	r3, [sp, #4]
 800290c:	3b01      	subs	r3, #1
 800290e:	9301      	str	r3, [sp, #4]
    while(wait_loop_index != 0U)
 8002910:	9b01      	ldr	r3, [sp, #4]
 8002912:	2b00      	cmp	r3, #0
 8002914:	d1f9      	bne.n	800290a <HAL_ADCEx_Calibration_Start+0x56>
    SET_BIT(hadc->Instance->CR2, ADC_CR2_RSTCAL);
 8002916:	6822      	ldr	r2, [r4, #0]
 8002918:	6893      	ldr	r3, [r2, #8]
 800291a:	f043 0308 	orr.w	r3, r3, #8
 800291e:	6093      	str	r3, [r2, #8]
    tickstart = HAL_GetTick();  
 8002920:	f7ff fd44 	bl	80023ac <HAL_GetTick>
 8002924:	4606      	mov	r6, r0
    while(HAL_IS_BIT_SET(hadc->Instance->CR2, ADC_CR2_RSTCAL))
 8002926:	6823      	ldr	r3, [r4, #0]
 8002928:	689a      	ldr	r2, [r3, #8]
 800292a:	f012 0f08 	tst.w	r2, #8
 800292e:	d014      	beq.n	800295a <HAL_ADCEx_Calibration_Start+0xa6>
      if((HAL_GetTick() - tickstart) > ADC_CALIBRATION_TIMEOUT)
 8002930:	f7ff fd3c 	bl	80023ac <HAL_GetTick>
 8002934:	1b80      	subs	r0, r0, r6
 8002936:	280a      	cmp	r0, #10
 8002938:	d9f5      	bls.n	8002926 <HAL_ADCEx_Calibration_Start+0x72>
        if(HAL_IS_BIT_SET(hadc->Instance->CR2, ADC_CR2_RSTCAL))
 800293a:	6823      	ldr	r3, [r4, #0]
 800293c:	689b      	ldr	r3, [r3, #8]
 800293e:	f013 0f08 	tst.w	r3, #8
 8002942:	d0f0      	beq.n	8002926 <HAL_ADCEx_Calibration_Start+0x72>
          ADC_STATE_CLR_SET(hadc->State,
 8002944:	6aa3      	ldr	r3, [r4, #40]	@ 0x28
 8002946:	f023 0312 	bic.w	r3, r3, #18
 800294a:	f043 0310 	orr.w	r3, r3, #16
 800294e:	62a3      	str	r3, [r4, #40]	@ 0x28
          __HAL_UNLOCK(hadc);
 8002950:	2300      	movs	r3, #0
 8002952:	f884 3024 	strb.w	r3, [r4, #36]	@ 0x24
          return HAL_ERROR;
 8002956:	2501      	movs	r5, #1
 8002958:	e7c2      	b.n	80028e0 <HAL_ADCEx_Calibration_Start+0x2c>
    SET_BIT(hadc->Instance->CR2, ADC_CR2_CAL);
 800295a:	689a      	ldr	r2, [r3, #8]
 800295c:	f042 0204 	orr.w	r2, r2, #4
 8002960:	609a      	str	r2, [r3, #8]
    tickstart = HAL_GetTick();  
 8002962:	f7ff fd23 	bl	80023ac <HAL_GetTick>
 8002966:	4606      	mov	r6, r0
    while(HAL_IS_BIT_SET(hadc->Instance->CR2, ADC_CR2_CAL))
 8002968:	6823      	ldr	r3, [r4, #0]
 800296a:	689b      	ldr	r3, [r3, #8]
 800296c:	f013 0f04 	tst.w	r3, #4
 8002970:	d014      	beq.n	800299c <HAL_ADCEx_Calibration_Start+0xe8>
      if((HAL_GetTick() - tickstart) > ADC_CALIBRATION_TIMEOUT)
 8002972:	f7ff fd1b 	bl	80023ac <HAL_GetTick>
 8002976:	1b80      	subs	r0, r0, r6
 8002978:	280a      	cmp	r0, #10
 800297a:	d9f5      	bls.n	8002968 <HAL_ADCEx_Calibration_Start+0xb4>
        if(HAL_IS_BIT_SET(hadc->Instance->CR2, ADC_CR2_CAL))
 800297c:	6823      	ldr	r3, [r4, #0]
 800297e:	689b      	ldr	r3, [r3, #8]
 8002980:	f013 0f04 	tst.w	r3, #4
 8002984:	d0f0      	beq.n	8002968 <HAL_ADCEx_Calibration_Start+0xb4>
          ADC_STATE_CLR_SET(hadc->State,
 8002986:	6aa3      	ldr	r3, [r4, #40]	@ 0x28
 8002988:	f023 0312 	bic.w	r3, r3, #18
 800298c:	f043 0310 	orr.w	r3, r3, #16
 8002990:	62a3      	str	r3, [r4, #40]	@ 0x28
          __HAL_UNLOCK(hadc);
 8002992:	2300      	movs	r3, #0
 8002994:	f884 3024 	strb.w	r3, [r4, #36]	@ 0x24
          return HAL_ERROR;
 8002998:	2501      	movs	r5, #1
 800299a:	e7a1      	b.n	80028e0 <HAL_ADCEx_Calibration_Start+0x2c>
    ADC_STATE_CLR_SET(hadc->State,
 800299c:	6aa3      	ldr	r3, [r4, #40]	@ 0x28
 800299e:	f023 0303 	bic.w	r3, r3, #3
 80029a2:	f043 0301 	orr.w	r3, r3, #1
 80029a6:	62a3      	str	r3, [r4, #40]	@ 0x28
 80029a8:	e797      	b.n	80028da <HAL_ADCEx_Calibration_Start+0x26>
  __HAL_LOCK(hadc);
 80029aa:	2502      	movs	r5, #2
 80029ac:	e798      	b.n	80028e0 <HAL_ADCEx_Calibration_Start+0x2c>
 80029ae:	bf00      	nop
 80029b0:	200000a0 	.word	0x200000a0

080029b4 <__NVIC_SetPriority>:
  \param [in]  priority  Priority to set.
  \note    The priority cannot be set for every processor exception.
 */
__STATIC_INLINE void __NVIC_SetPriority(IRQn_Type IRQn, uint32_t priority)
{
  if ((int32_t)(IRQn) >= 0)
 80029b4:	2800      	cmp	r0, #0
 80029b6:	db08      	blt.n	80029ca <__NVIC_SetPriority+0x16>
  {
    NVIC->IP[((uint32_t)IRQn)]               = (uint8_t)((priority << (8U - __NVIC_PRIO_BITS)) & (uint32_t)0xFFUL);
 80029b8:	0109      	lsls	r1, r1, #4
 80029ba:	b2c9      	uxtb	r1, r1
 80029bc:	f100 4060 	add.w	r0, r0, #3758096384	@ 0xe0000000
 80029c0:	f500 4061 	add.w	r0, r0, #57600	@ 0xe100
 80029c4:	f880 1300 	strb.w	r1, [r0, #768]	@ 0x300
 80029c8:	4770      	bx	lr
  }
  else
  {
    SCB->SHP[(((uint32_t)IRQn) & 0xFUL)-4UL] = (uint8_t)((priority << (8U - __NVIC_PRIO_BITS)) & (uint32_t)0xFFUL);
 80029ca:	f000 000f 	and.w	r0, r0, #15
 80029ce:	0109      	lsls	r1, r1, #4
 80029d0:	b2c9      	uxtb	r1, r1
 80029d2:	4b01      	ldr	r3, [pc, #4]	@ (80029d8 <__NVIC_SetPriority+0x24>)
 80029d4:	5419      	strb	r1, [r3, r0]
  }
}
 80029d6:	4770      	bx	lr
 80029d8:	e000ed14 	.word	0xe000ed14

080029dc <NVIC_EncodePriority>:
  \param [in]   PreemptPriority  Preemptive priority value (starting from 0).
  \param [in]       SubPriority  Subpriority value (starting from 0).
  \return                        Encoded priority. Value can be used in the function \ref NVIC_SetPriority().
 */
__STATIC_INLINE uint32_t NVIC_EncodePriority (uint32_t PriorityGroup, uint32_t PreemptPriority, uint32_t SubPriority)
{
 80029dc:	b500      	push	{lr}
  uint32_t PriorityGroupTmp = (PriorityGroup & (uint32_t)0x07UL);   /* only values 0..7 are used          */
 80029de:	f000 0007 	and.w	r0, r0, #7
  uint32_t PreemptPriorityBits;
  uint32_t SubPriorityBits;

  PreemptPriorityBits = ((7UL - PriorityGroupTmp) > (uint32_t)(__NVIC_PRIO_BITS)) ? (uint32_t)(__NVIC_PRIO_BITS) : (uint32_t)(7UL - PriorityGroupTmp);
 80029e2:	f1c0 0c07 	rsb	ip, r0, #7
 80029e6:	f1bc 0f04 	cmp.w	ip, #4
 80029ea:	bf28      	it	cs
 80029ec:	f04f 0c04 	movcs.w	ip, #4
  SubPriorityBits     = ((PriorityGroupTmp + (uint32_t)(__NVIC_PRIO_BITS)) < (uint32_t)7UL) ? (uint32_t)0UL : (uint32_t)((PriorityGroupTmp - 7UL) + (uint32_t)(__NVIC_PRIO_BITS));
 80029f0:	1d03      	adds	r3, r0, #4
 80029f2:	2b06      	cmp	r3, #6
 80029f4:	d90f      	bls.n	8002a16 <NVIC_EncodePriority+0x3a>
 80029f6:	1ec3      	subs	r3, r0, #3

  return (
           ((PreemptPriority & (uint32_t)((1UL << (PreemptPriorityBits)) - 1UL)) << SubPriorityBits) |
 80029f8:	f04f 3eff 	mov.w	lr, #4294967295
 80029fc:	fa0e f00c 	lsl.w	r0, lr, ip
 8002a00:	ea21 0100 	bic.w	r1, r1, r0
 8002a04:	4099      	lsls	r1, r3
           ((SubPriority     & (uint32_t)((1UL << (SubPriorityBits    )) - 1UL)))
 8002a06:	fa0e fe03 	lsl.w	lr, lr, r3
 8002a0a:	ea22 020e 	bic.w	r2, r2, lr
         );
}
 8002a0e:	ea41 0002 	orr.w	r0, r1, r2
 8002a12:	f85d fb04 	ldr.w	pc, [sp], #4
  SubPriorityBits     = ((PriorityGroupTmp + (uint32_t)(__NVIC_PRIO_BITS)) < (uint32_t)7UL) ? (uint32_t)0UL : (uint32_t)((PriorityGroupTmp - 7UL) + (uint32_t)(__NVIC_PRIO_BITS));
 8002a16:	2300      	movs	r3, #0
 8002a18:	e7ee      	b.n	80029f8 <NVIC_EncodePriority+0x1c>
	...

08002a1c <HAL_NVIC_SetPriorityGrouping>:
  reg_value  =  SCB->AIRCR;                                                   /* read old register configuration    */
 8002a1c:	4a07      	ldr	r2, [pc, #28]	@ (8002a3c <HAL_NVIC_SetPriorityGrouping+0x20>)
 8002a1e:	68d3      	ldr	r3, [r2, #12]
  reg_value &= ~((uint32_t)(SCB_AIRCR_VECTKEY_Msk | SCB_AIRCR_PRIGROUP_Msk)); /* clear bits to change               */
 8002a20:	f423 63e0 	bic.w	r3, r3, #1792	@ 0x700
 8002a24:	041b      	lsls	r3, r3, #16
 8002a26:	0c1b      	lsrs	r3, r3, #16
                (PriorityGroupTmp << SCB_AIRCR_PRIGROUP_Pos) );               /* Insert write key and priority group */
 8002a28:	0200      	lsls	r0, r0, #8
 8002a2a:	f400 60e0 	and.w	r0, r0, #1792	@ 0x700
                ((uint32_t)0x5FAUL << SCB_AIRCR_VECTKEY_Pos) |
 8002a2e:	4303      	orrs	r3, r0
  reg_value  =  (reg_value                                   |
 8002a30:	f043 63bf 	orr.w	r3, r3, #100139008	@ 0x5f80000
 8002a34:	f443 3300 	orr.w	r3, r3, #131072	@ 0x20000
  SCB->AIRCR =  reg_value;
 8002a38:	60d3      	str	r3, [r2, #12]
  /* Check the parameters */
  assert_param(IS_NVIC_PRIORITY_GROUP(PriorityGroup));
  
  /* Set the PRIGROUP[10:8] bits according to the PriorityGroup parameter value */
  NVIC_SetPriorityGrouping(PriorityGroup);
}
 8002a3a:	4770      	bx	lr
 8002a3c:	e000ed00 	.word	0xe000ed00

08002a40 <HAL_NVIC_SetPriority>:
  *         This parameter can be a value between 0 and 15
  *         A lower priority value indicates a higher priority.          
  * @retval None
  */
void HAL_NVIC_SetPriority(IRQn_Type IRQn, uint32_t PreemptPriority, uint32_t SubPriority)
{ 
 8002a40:	b510      	push	{r4, lr}
 8002a42:	4604      	mov	r4, r0
  return ((uint32_t)((SCB->AIRCR & SCB_AIRCR_PRIGROUP_Msk) >> SCB_AIRCR_PRIGROUP_Pos));
 8002a44:	4b05      	ldr	r3, [pc, #20]	@ (8002a5c <HAL_NVIC_SetPriority+0x1c>)
 8002a46:	68d8      	ldr	r0, [r3, #12]
  assert_param(IS_NVIC_SUB_PRIORITY(SubPriority));
  assert_param(IS_NVIC_PREEMPTION_PRIORITY(PreemptPriority));
  
  prioritygroup = NVIC_GetPriorityGrouping();
  
  NVIC_SetPriority(IRQn, NVIC_EncodePriority(prioritygroup, PreemptPriority, SubPriority));
 8002a48:	f3c0 2002 	ubfx	r0, r0, #8, #3
 8002a4c:	f7ff ffc6 	bl	80029dc <NVIC_EncodePriority>
 8002a50:	4601      	mov	r1, r0
 8002a52:	4620      	mov	r0, r4
 8002a54:	f7ff ffae 	bl	80029b4 <__NVIC_SetPriority>
}
 8002a58:	bd10      	pop	{r4, pc}
 8002a5a:	bf00      	nop
 8002a5c:	e000ed00 	.word	0xe000ed00

08002a60 <HAL_NVIC_EnableIRQ>:
  if ((int32_t)(IRQn) >= 0)
 8002a60:	2800      	cmp	r0, #0
 8002a62:	db07      	blt.n	8002a74 <HAL_NVIC_EnableIRQ+0x14>
    NVIC->ISER[(((uint32_t)IRQn) >> 5UL)] = (uint32_t)(1UL << (((uint32_t)IRQn) & 0x1FUL));
 8002a64:	f000 021f 	and.w	r2, r0, #31
 8002a68:	0940      	lsrs	r0, r0, #5
 8002a6a:	2301      	movs	r3, #1
 8002a6c:	4093      	lsls	r3, r2
 8002a6e:	4a02      	ldr	r2, [pc, #8]	@ (8002a78 <HAL_NVIC_EnableIRQ+0x18>)
 8002a70:	f842 3020 	str.w	r3, [r2, r0, lsl #2]
  /* Check the parameters */
  assert_param(IS_NVIC_DEVICE_IRQ(IRQn));

  /* Enable interrupt */
  NVIC_EnableIRQ(IRQn);
}
 8002a74:	4770      	bx	lr
 8002a76:	bf00      	nop
 8002a78:	e000e100 	.word	0xe000e100

08002a7c <HAL_SYSTICK_Config>:
           function <b>SysTick_Config</b> is not included. In this case, the file <b><i>device</i>.h</b>
           must contain a vendor-specific implementation of this function.
 */
__STATIC_INLINE uint32_t SysTick_Config(uint32_t ticks)
{
  if ((ticks - 1UL) > SysTick_LOAD_RELOAD_Msk)
 8002a7c:	3801      	subs	r0, #1
 8002a7e:	f1b0 7f80 	cmp.w	r0, #16777216	@ 0x1000000
 8002a82:	d20b      	bcs.n	8002a9c <HAL_SYSTICK_Config+0x20>
  {
    return (1UL);                                                   /* Reload value impossible */
  }

  SysTick->LOAD  = (uint32_t)(ticks - 1UL);                         /* set reload register */
 8002a84:	f04f 23e0 	mov.w	r3, #3758153728	@ 0xe000e000
 8002a88:	6158      	str	r0, [r3, #20]
    SCB->SHP[(((uint32_t)IRQn) & 0xFUL)-4UL] = (uint8_t)((priority << (8U - __NVIC_PRIO_BITS)) & (uint32_t)0xFFUL);
 8002a8a:	4a05      	ldr	r2, [pc, #20]	@ (8002aa0 <HAL_SYSTICK_Config+0x24>)
 8002a8c:	21f0      	movs	r1, #240	@ 0xf0
 8002a8e:	f882 1023 	strb.w	r1, [r2, #35]	@ 0x23
  NVIC_SetPriority (SysTick_IRQn, (1UL << __NVIC_PRIO_BITS) - 1UL); /* set Priority for Systick Interrupt */
  SysTick->VAL   = 0UL;                                             /* Load the SysTick Counter Value */
 8002a92:	2000      	movs	r0, #0
 8002a94:	6198      	str	r0, [r3, #24]
  SysTick->CTRL  = SysTick_CTRL_CLKSOURCE_Msk |
 8002a96:	2207      	movs	r2, #7
 8002a98:	611a      	str	r2, [r3, #16]
                   SysTick_CTRL_TICKINT_Msk   |
                   SysTick_CTRL_ENABLE_Msk;                         /* Enable SysTick IRQ and SysTick Timer */
  return (0UL);                                                     /* Function successful */
 8002a9a:	4770      	bx	lr
    return (1UL);                                                   /* Reload value impossible */
 8002a9c:	2001      	movs	r0, #1
  *                  - 1  Function failed.
  */
uint32_t HAL_SYSTICK_Config(uint32_t TicksNumb)
{
   return SysTick_Config(TicksNumb);
}
 8002a9e:	4770      	bx	lr
 8002aa0:	e000ed00 	.word	0xe000ed00

08002aa4 <DMA_SetConfig>:
  * @param  DstAddress: The destination memory Buffer address
  * @param  DataLength: The length of data to be transferred from source to destination
  * @retval HAL status
  */
static void DMA_SetConfig(DMA_HandleTypeDef *hdma, uint32_t SrcAddress, uint32_t DstAddress, uint32_t DataLength)
{
 8002aa4:	b430      	push	{r4, r5}
  /* Clear all flags */
  hdma->DmaBaseAddress->IFCR = (DMA_ISR_GIF1 << hdma->ChannelIndex);
 8002aa6:	2401      	movs	r4, #1
 8002aa8:	6c05      	ldr	r5, [r0, #64]	@ 0x40
 8002aaa:	40ac      	lsls	r4, r5
 8002aac:	6bc5      	ldr	r5, [r0, #60]	@ 0x3c
 8002aae:	606c      	str	r4, [r5, #4]

  /* Configure DMA Channel data length */
  hdma->Instance->CNDTR = DataLength;
 8002ab0:	6804      	ldr	r4, [r0, #0]
 8002ab2:	6063      	str	r3, [r4, #4]

  /* Memory to Peripheral */
  if((hdma->Init.Direction) == DMA_MEMORY_TO_PERIPH)
 8002ab4:	6843      	ldr	r3, [r0, #4]
 8002ab6:	2b10      	cmp	r3, #16
 8002ab8:	d005      	beq.n	8002ac6 <DMA_SetConfig+0x22>
  }
  /* Peripheral to Memory */
  else
  {
    /* Configure DMA Channel source address */
    hdma->Instance->CPAR = SrcAddress;
 8002aba:	6803      	ldr	r3, [r0, #0]
 8002abc:	6099      	str	r1, [r3, #8]

    /* Configure DMA Channel destination address */
    hdma->Instance->CMAR = DstAddress;
 8002abe:	6803      	ldr	r3, [r0, #0]
 8002ac0:	60da      	str	r2, [r3, #12]
  }
}
 8002ac2:	bc30      	pop	{r4, r5}
 8002ac4:	4770      	bx	lr
    hdma->Instance->CPAR = DstAddress;
 8002ac6:	6803      	ldr	r3, [r0, #0]
 8002ac8:	609a      	str	r2, [r3, #8]
    hdma->Instance->CMAR = SrcAddress;
 8002aca:	6803      	ldr	r3, [r0, #0]
 8002acc:	60d9      	str	r1, [r3, #12]
 8002ace:	e7f8      	b.n	8002ac2 <DMA_SetConfig+0x1e>

08002ad0 <HAL_DMA_Init>:
  if(hdma == NULL)
 8002ad0:	b350      	cbz	r0, 8002b28 <HAL_DMA_Init+0x58>
{
 8002ad2:	b410      	push	{r4}
 8002ad4:	4602      	mov	r2, r0
  hdma->ChannelIndex = (((uint32_t)hdma->Instance - (uint32_t)DMA1_Channel1) / ((uint32_t)DMA1_Channel2 - (uint32_t)DMA1_Channel1)) << 2;
 8002ad6:	6801      	ldr	r1, [r0, #0]
 8002ad8:	4b14      	ldr	r3, [pc, #80]	@ (8002b2c <HAL_DMA_Init+0x5c>)
 8002ada:	440b      	add	r3, r1
 8002adc:	4814      	ldr	r0, [pc, #80]	@ (8002b30 <HAL_DMA_Init+0x60>)
 8002ade:	fba0 0303 	umull	r0, r3, r0, r3
 8002ae2:	091b      	lsrs	r3, r3, #4
 8002ae4:	009b      	lsls	r3, r3, #2
 8002ae6:	6413      	str	r3, [r2, #64]	@ 0x40
  hdma->DmaBaseAddress = DMA1;
 8002ae8:	4b12      	ldr	r3, [pc, #72]	@ (8002b34 <HAL_DMA_Init+0x64>)
 8002aea:	63d3      	str	r3, [r2, #60]	@ 0x3c
  hdma->State = HAL_DMA_STATE_BUSY;
 8002aec:	2302      	movs	r3, #2
 8002aee:	f882 3021 	strb.w	r3, [r2, #33]	@ 0x21
  tmp = hdma->Instance->CCR;
 8002af2:	6808      	ldr	r0, [r1, #0]
  tmp &= ((uint32_t)~(DMA_CCR_PL    | DMA_CCR_MSIZE  | DMA_CCR_PSIZE  | \
 8002af4:	f36f 100d 	bfc	r0, #4, #10
  tmp |=  hdma->Init.Direction        |
 8002af8:	6853      	ldr	r3, [r2, #4]
 8002afa:	6894      	ldr	r4, [r2, #8]
 8002afc:	4323      	orrs	r3, r4
          hdma->Init.PeriphInc           | hdma->Init.MemInc           |
 8002afe:	68d4      	ldr	r4, [r2, #12]
 8002b00:	4323      	orrs	r3, r4
 8002b02:	6914      	ldr	r4, [r2, #16]
 8002b04:	4323      	orrs	r3, r4
          hdma->Init.PeriphDataAlignment | hdma->Init.MemDataAlignment |
 8002b06:	6954      	ldr	r4, [r2, #20]
 8002b08:	4323      	orrs	r3, r4
 8002b0a:	6994      	ldr	r4, [r2, #24]
 8002b0c:	4323      	orrs	r3, r4
          hdma->Init.Mode                | hdma->Init.Priority;
 8002b0e:	69d4      	ldr	r4, [r2, #28]
 8002b10:	4323      	orrs	r3, r4
  tmp |=  hdma->Init.Direction        |
 8002b12:	4303      	orrs	r3, r0
  hdma->Instance->CCR = tmp;
 8002b14:	600b      	str	r3, [r1, #0]
  hdma->ErrorCode = HAL_DMA_ERROR_NONE;
 8002b16:	2000      	movs	r0, #0
 8002b18:	6390      	str	r0, [r2, #56]	@ 0x38
  hdma->State = HAL_DMA_STATE_READY;
 8002b1a:	2301      	movs	r3, #1
 8002b1c:	f882 3021 	strb.w	r3, [r2, #33]	@ 0x21
  hdma->Lock = HAL_UNLOCKED;
 8002b20:	f882 0020 	strb.w	r0, [r2, #32]
}
 8002b24:	bc10      	pop	{r4}
 8002b26:	4770      	bx	lr
    return HAL_ERROR;
 8002b28:	2001      	movs	r0, #1
}
 8002b2a:	4770      	bx	lr
 8002b2c:	bffdfff8 	.word	0xbffdfff8
 8002b30:	cccccccd 	.word	0xcccccccd
 8002b34:	40020000 	.word	0x40020000

08002b38 <HAL_DMA_Start_IT>:
{
 8002b38:	b538      	push	{r3, r4, r5, lr}
 8002b3a:	4604      	mov	r4, r0
  __HAL_LOCK(hdma);
 8002b3c:	f890 0020 	ldrb.w	r0, [r0, #32]
 8002b40:	2801      	cmp	r0, #1
 8002b42:	d032      	beq.n	8002baa <HAL_DMA_Start_IT+0x72>
 8002b44:	2001      	movs	r0, #1
 8002b46:	f884 0020 	strb.w	r0, [r4, #32]
  if(HAL_DMA_STATE_READY == hdma->State)
 8002b4a:	f894 0021 	ldrb.w	r0, [r4, #33]	@ 0x21
 8002b4e:	b2c0      	uxtb	r0, r0
 8002b50:	2801      	cmp	r0, #1
 8002b52:	d004      	beq.n	8002b5e <HAL_DMA_Start_IT+0x26>
    __HAL_UNLOCK(hdma); 
 8002b54:	2300      	movs	r3, #0
 8002b56:	f884 3020 	strb.w	r3, [r4, #32]
    status = HAL_BUSY;
 8002b5a:	2002      	movs	r0, #2
}
 8002b5c:	bd38      	pop	{r3, r4, r5, pc}
    hdma->State = HAL_DMA_STATE_BUSY;
 8002b5e:	2002      	movs	r0, #2
 8002b60:	f884 0021 	strb.w	r0, [r4, #33]	@ 0x21
    hdma->ErrorCode = HAL_DMA_ERROR_NONE;
 8002b64:	2000      	movs	r0, #0
 8002b66:	63a0      	str	r0, [r4, #56]	@ 0x38
    __HAL_DMA_DISABLE(hdma);
 8002b68:	6825      	ldr	r5, [r4, #0]
 8002b6a:	6828      	ldr	r0, [r5, #0]
 8002b6c:	f020 0001 	bic.w	r0, r0, #1
 8002b70:	6028      	str	r0, [r5, #0]
    DMA_SetConfig(hdma, SrcAddress, DstAddress, DataLength);
 8002b72:	4620      	mov	r0, r4
 8002b74:	f7ff ff96 	bl	8002aa4 <DMA_SetConfig>
    if(NULL != hdma->XferHalfCpltCallback)
 8002b78:	6ae3      	ldr	r3, [r4, #44]	@ 0x2c
 8002b7a:	b15b      	cbz	r3, 8002b94 <HAL_DMA_Start_IT+0x5c>
      __HAL_DMA_ENABLE_IT(hdma, (DMA_IT_TC | DMA_IT_HT | DMA_IT_TE));
 8002b7c:	6822      	ldr	r2, [r4, #0]
 8002b7e:	6813      	ldr	r3, [r2, #0]
 8002b80:	f043 030e 	orr.w	r3, r3, #14
 8002b84:	6013      	str	r3, [r2, #0]
    __HAL_DMA_ENABLE(hdma);
 8002b86:	6822      	ldr	r2, [r4, #0]
 8002b88:	6813      	ldr	r3, [r2, #0]
 8002b8a:	f043 0301 	orr.w	r3, r3, #1
 8002b8e:	6013      	str	r3, [r2, #0]
  HAL_StatusTypeDef status = HAL_OK;
 8002b90:	2000      	movs	r0, #0
 8002b92:	e7e3      	b.n	8002b5c <HAL_DMA_Start_IT+0x24>
      __HAL_DMA_DISABLE_IT(hdma, DMA_IT_HT);
 8002b94:	6822      	ldr	r2, [r4, #0]
 8002b96:	6813      	ldr	r3, [r2, #0]
 8002b98:	f023 0304 	bic.w	r3, r3, #4
 8002b9c:	6013      	str	r3, [r2, #0]
      __HAL_DMA_ENABLE_IT(hdma, (DMA_IT_TC | DMA_IT_TE));
 8002b9e:	6822      	ldr	r2, [r4, #0]
 8002ba0:	6813      	ldr	r3, [r2, #0]
 8002ba2:	f043 030a 	orr.w	r3, r3, #10
 8002ba6:	6013      	str	r3, [r2, #0]
 8002ba8:	e7ed      	b.n	8002b86 <HAL_DMA_Start_IT+0x4e>
  __HAL_LOCK(hdma);
 8002baa:	2002      	movs	r0, #2
 8002bac:	e7d6      	b.n	8002b5c <HAL_DMA_Start_IT+0x24>

08002bae <HAL_DMA_Abort>:
{
 8002bae:	4603      	mov	r3, r0
  if(hdma->State != HAL_DMA_STATE_BUSY)
 8002bb0:	f890 2021 	ldrb.w	r2, [r0, #33]	@ 0x21
 8002bb4:	b2d2      	uxtb	r2, r2
 8002bb6:	2a02      	cmp	r2, #2
 8002bb8:	d006      	beq.n	8002bc8 <HAL_DMA_Abort+0x1a>
    hdma->ErrorCode = HAL_DMA_ERROR_NO_XFER;
 8002bba:	2204      	movs	r2, #4
 8002bbc:	6382      	str	r2, [r0, #56]	@ 0x38
    __HAL_UNLOCK(hdma);
 8002bbe:	2200      	movs	r2, #0
 8002bc0:	f880 2020 	strb.w	r2, [r0, #32]
    return HAL_ERROR;
 8002bc4:	2001      	movs	r0, #1
 8002bc6:	4770      	bx	lr
    __HAL_DMA_DISABLE_IT(hdma, (DMA_IT_TC | DMA_IT_HT | DMA_IT_TE));
 8002bc8:	6801      	ldr	r1, [r0, #0]
 8002bca:	680a      	ldr	r2, [r1, #0]
 8002bcc:	f022 020e 	bic.w	r2, r2, #14
 8002bd0:	600a      	str	r2, [r1, #0]
    __HAL_DMA_DISABLE(hdma);
 8002bd2:	6801      	ldr	r1, [r0, #0]
 8002bd4:	680a      	ldr	r2, [r1, #0]
 8002bd6:	f022 0201 	bic.w	r2, r2, #1
 8002bda:	600a      	str	r2, [r1, #0]
    hdma->DmaBaseAddress->IFCR = (DMA_ISR_GIF1 << hdma->ChannelIndex);
 8002bdc:	6c02      	ldr	r2, [r0, #64]	@ 0x40
 8002bde:	6bc0      	ldr	r0, [r0, #60]	@ 0x3c
 8002be0:	2101      	movs	r1, #1
 8002be2:	fa01 f202 	lsl.w	r2, r1, r2
 8002be6:	6042      	str	r2, [r0, #4]
  hdma->State = HAL_DMA_STATE_READY;
 8002be8:	f883 1021 	strb.w	r1, [r3, #33]	@ 0x21
  __HAL_UNLOCK(hdma);      
 8002bec:	2000      	movs	r0, #0
 8002bee:	f883 0020 	strb.w	r0, [r3, #32]
}
 8002bf2:	4770      	bx	lr

08002bf4 <HAL_DMA_Abort_IT>:
{  
 8002bf4:	b508      	push	{r3, lr}
  if(HAL_DMA_STATE_BUSY != hdma->State)
 8002bf6:	f890 3021 	ldrb.w	r3, [r0, #33]	@ 0x21
 8002bfa:	b2db      	uxtb	r3, r3
 8002bfc:	2b02      	cmp	r3, #2
 8002bfe:	d003      	beq.n	8002c08 <HAL_DMA_Abort_IT+0x14>
    hdma->ErrorCode = HAL_DMA_ERROR_NO_XFER;
 8002c00:	2304      	movs	r3, #4
 8002c02:	6383      	str	r3, [r0, #56]	@ 0x38
    status = HAL_ERROR;
 8002c04:	2001      	movs	r0, #1
}
 8002c06:	bd08      	pop	{r3, pc}
    __HAL_DMA_DISABLE_IT(hdma, (DMA_IT_TC | DMA_IT_HT | DMA_IT_TE));
 8002c08:	6802      	ldr	r2, [r0, #0]
 8002c0a:	6813      	ldr	r3, [r2, #0]
 8002c0c:	f023 030e 	bic.w	r3, r3, #14
 8002c10:	6013      	str	r3, [r2, #0]
    __HAL_DMA_DISABLE(hdma);
 8002c12:	6802      	ldr	r2, [r0, #0]
 8002c14:	6813      	ldr	r3, [r2, #0]
 8002c16:	f023 0301 	bic.w	r3, r3, #1
 8002c1a:	6013      	str	r3, [r2, #0]
    __HAL_DMA_CLEAR_FLAG(hdma, __HAL_DMA_GET_GI_FLAG_INDEX(hdma));
 8002c1c:	6803      	ldr	r3, [r0, #0]
 8002c1e:	4a19      	ldr	r2, [pc, #100]	@ (8002c84 <HAL_DMA_Abort_IT+0x90>)
 8002c20:	4293      	cmp	r3, r2
 8002c22:	d014      	beq.n	8002c4e <HAL_DMA_Abort_IT+0x5a>
 8002c24:	3214      	adds	r2, #20
 8002c26:	4293      	cmp	r3, r2
 8002c28:	d01f      	beq.n	8002c6a <HAL_DMA_Abort_IT+0x76>
 8002c2a:	3214      	adds	r2, #20
 8002c2c:	4293      	cmp	r3, r2
 8002c2e:	d01e      	beq.n	8002c6e <HAL_DMA_Abort_IT+0x7a>
 8002c30:	3214      	adds	r2, #20
 8002c32:	4293      	cmp	r3, r2
 8002c34:	d01e      	beq.n	8002c74 <HAL_DMA_Abort_IT+0x80>
 8002c36:	3214      	adds	r2, #20
 8002c38:	4293      	cmp	r3, r2
 8002c3a:	d01e      	beq.n	8002c7a <HAL_DMA_Abort_IT+0x86>
 8002c3c:	3214      	adds	r2, #20
 8002c3e:	4293      	cmp	r3, r2
 8002c40:	d002      	beq.n	8002c48 <HAL_DMA_Abort_IT+0x54>
 8002c42:	f04f 7280 	mov.w	r2, #16777216	@ 0x1000000
 8002c46:	e003      	b.n	8002c50 <HAL_DMA_Abort_IT+0x5c>
 8002c48:	f44f 1280 	mov.w	r2, #1048576	@ 0x100000
 8002c4c:	e000      	b.n	8002c50 <HAL_DMA_Abort_IT+0x5c>
 8002c4e:	2201      	movs	r2, #1
 8002c50:	4b0d      	ldr	r3, [pc, #52]	@ (8002c88 <HAL_DMA_Abort_IT+0x94>)
 8002c52:	605a      	str	r2, [r3, #4]
    hdma->State = HAL_DMA_STATE_READY;
 8002c54:	2301      	movs	r3, #1
 8002c56:	f880 3021 	strb.w	r3, [r0, #33]	@ 0x21
    __HAL_UNLOCK(hdma);
 8002c5a:	2300      	movs	r3, #0
 8002c5c:	f880 3020 	strb.w	r3, [r0, #32]
    if(hdma->XferAbortCallback != NULL)
 8002c60:	6b43      	ldr	r3, [r0, #52]	@ 0x34
 8002c62:	b16b      	cbz	r3, 8002c80 <HAL_DMA_Abort_IT+0x8c>
      hdma->XferAbortCallback(hdma);
 8002c64:	4798      	blx	r3
  HAL_StatusTypeDef status = HAL_OK;
 8002c66:	2000      	movs	r0, #0
 8002c68:	e7cd      	b.n	8002c06 <HAL_DMA_Abort_IT+0x12>
    __HAL_DMA_CLEAR_FLAG(hdma, __HAL_DMA_GET_GI_FLAG_INDEX(hdma));
 8002c6a:	2210      	movs	r2, #16
 8002c6c:	e7f0      	b.n	8002c50 <HAL_DMA_Abort_IT+0x5c>
 8002c6e:	f44f 7280 	mov.w	r2, #256	@ 0x100
 8002c72:	e7ed      	b.n	8002c50 <HAL_DMA_Abort_IT+0x5c>
 8002c74:	f44f 5280 	mov.w	r2, #4096	@ 0x1000
 8002c78:	e7ea      	b.n	8002c50 <HAL_DMA_Abort_IT+0x5c>
 8002c7a:	f44f 3280 	mov.w	r2, #65536	@ 0x10000
 8002c7e:	e7e7      	b.n	8002c50 <HAL_DMA_Abort_IT+0x5c>
  HAL_StatusTypeDef status = HAL_OK;
 8002c80:	2000      	movs	r0, #0
 8002c82:	e7c0      	b.n	8002c06 <HAL_DMA_Abort_IT+0x12>
 8002c84:	40020008 	.word	0x40020008
 8002c88:	40020000 	.word	0x40020000

08002c8c <HAL_DMA_IRQHandler>:
{
 8002c8c:	b538      	push	{r3, r4, r5, lr}
  uint32_t flag_it = hdma->DmaBaseAddress->ISR;
 8002c8e:	6bc3      	ldr	r3, [r0, #60]	@ 0x3c
 8002c90:	681a      	ldr	r2, [r3, #0]
  uint32_t source_it = hdma->Instance->CCR;
 8002c92:	6804      	ldr	r4, [r0, #0]
 8002c94:	6825      	ldr	r5, [r4, #0]
  if (((flag_it & (DMA_FLAG_HT1 << hdma->ChannelIndex)) != RESET) && ((source_it & DMA_IT_HT) != RESET))
 8002c96:	6c01      	ldr	r1, [r0, #64]	@ 0x40
 8002c98:	2304      	movs	r3, #4
 8002c9a:	408b      	lsls	r3, r1
 8002c9c:	4213      	tst	r3, r2
 8002c9e:	d035      	beq.n	8002d0c <HAL_DMA_IRQHandler+0x80>
 8002ca0:	f015 0f04 	tst.w	r5, #4
 8002ca4:	d032      	beq.n	8002d0c <HAL_DMA_IRQHandler+0x80>
    if((hdma->Instance->CCR & DMA_CCR_CIRC) == 0U)
 8002ca6:	6823      	ldr	r3, [r4, #0]
 8002ca8:	f013 0f20 	tst.w	r3, #32
 8002cac:	d103      	bne.n	8002cb6 <HAL_DMA_IRQHandler+0x2a>
      __HAL_DMA_DISABLE_IT(hdma, DMA_IT_HT);
 8002cae:	6823      	ldr	r3, [r4, #0]
 8002cb0:	f023 0304 	bic.w	r3, r3, #4
 8002cb4:	6023      	str	r3, [r4, #0]
    __HAL_DMA_CLEAR_FLAG(hdma, __HAL_DMA_GET_HT_FLAG_INDEX(hdma));
 8002cb6:	6803      	ldr	r3, [r0, #0]
 8002cb8:	4a43      	ldr	r2, [pc, #268]	@ (8002dc8 <HAL_DMA_IRQHandler+0x13c>)
 8002cba:	4293      	cmp	r3, r2
 8002cbc:	d014      	beq.n	8002ce8 <HAL_DMA_IRQHandler+0x5c>
 8002cbe:	3214      	adds	r2, #20
 8002cc0:	4293      	cmp	r3, r2
 8002cc2:	d018      	beq.n	8002cf6 <HAL_DMA_IRQHandler+0x6a>
 8002cc4:	3214      	adds	r2, #20
 8002cc6:	4293      	cmp	r3, r2
 8002cc8:	d017      	beq.n	8002cfa <HAL_DMA_IRQHandler+0x6e>
 8002cca:	3214      	adds	r2, #20
 8002ccc:	4293      	cmp	r3, r2
 8002cce:	d017      	beq.n	8002d00 <HAL_DMA_IRQHandler+0x74>
 8002cd0:	3214      	adds	r2, #20
 8002cd2:	4293      	cmp	r3, r2
 8002cd4:	d017      	beq.n	8002d06 <HAL_DMA_IRQHandler+0x7a>
 8002cd6:	3214      	adds	r2, #20
 8002cd8:	4293      	cmp	r3, r2
 8002cda:	d002      	beq.n	8002ce2 <HAL_DMA_IRQHandler+0x56>
 8002cdc:	f04f 6280 	mov.w	r2, #67108864	@ 0x4000000
 8002ce0:	e003      	b.n	8002cea <HAL_DMA_IRQHandler+0x5e>
 8002ce2:	f44f 0280 	mov.w	r2, #4194304	@ 0x400000
 8002ce6:	e000      	b.n	8002cea <HAL_DMA_IRQHandler+0x5e>
 8002ce8:	2204      	movs	r2, #4
 8002cea:	4b38      	ldr	r3, [pc, #224]	@ (8002dcc <HAL_DMA_IRQHandler+0x140>)
 8002cec:	605a      	str	r2, [r3, #4]
    if(hdma->XferHalfCpltCallback != NULL)
 8002cee:	6ac3      	ldr	r3, [r0, #44]	@ 0x2c
 8002cf0:	b103      	cbz	r3, 8002cf4 <HAL_DMA_IRQHandler+0x68>
      hdma->XferHalfCpltCallback(hdma);
 8002cf2:	4798      	blx	r3
}
 8002cf4:	bd38      	pop	{r3, r4, r5, pc}
    __HAL_DMA_CLEAR_FLAG(hdma, __HAL_DMA_GET_HT_FLAG_INDEX(hdma));
 8002cf6:	2240      	movs	r2, #64	@ 0x40
 8002cf8:	e7f7      	b.n	8002cea <HAL_DMA_IRQHandler+0x5e>
 8002cfa:	f44f 6280 	mov.w	r2, #1024	@ 0x400
 8002cfe:	e7f4      	b.n	8002cea <HAL_DMA_IRQHandler+0x5e>
 8002d00:	f44f 4280 	mov.w	r2, #16384	@ 0x4000
 8002d04:	e7f1      	b.n	8002cea <HAL_DMA_IRQHandler+0x5e>
 8002d06:	f44f 2280 	mov.w	r2, #262144	@ 0x40000
 8002d0a:	e7ee      	b.n	8002cea <HAL_DMA_IRQHandler+0x5e>
  else if (((flag_it & (DMA_FLAG_TC1 << hdma->ChannelIndex)) != RESET) && ((source_it & DMA_IT_TC) != RESET))
 8002d0c:	2302      	movs	r3, #2
 8002d0e:	408b      	lsls	r3, r1
 8002d10:	4213      	tst	r3, r2
 8002d12:	d03c      	beq.n	8002d8e <HAL_DMA_IRQHandler+0x102>
 8002d14:	f015 0f02 	tst.w	r5, #2
 8002d18:	d039      	beq.n	8002d8e <HAL_DMA_IRQHandler+0x102>
    if((hdma->Instance->CCR & DMA_CCR_CIRC) == 0U)
 8002d1a:	6823      	ldr	r3, [r4, #0]
 8002d1c:	f013 0f20 	tst.w	r3, #32
 8002d20:	d106      	bne.n	8002d30 <HAL_DMA_IRQHandler+0xa4>
      __HAL_DMA_DISABLE_IT(hdma, DMA_IT_TE | DMA_IT_TC);  
 8002d22:	6823      	ldr	r3, [r4, #0]
 8002d24:	f023 030a 	bic.w	r3, r3, #10
 8002d28:	6023      	str	r3, [r4, #0]
      hdma->State = HAL_DMA_STATE_READY;
 8002d2a:	2301      	movs	r3, #1
 8002d2c:	f880 3021 	strb.w	r3, [r0, #33]	@ 0x21
      __HAL_DMA_CLEAR_FLAG(hdma, __HAL_DMA_GET_TC_FLAG_INDEX(hdma));
 8002d30:	6803      	ldr	r3, [r0, #0]
 8002d32:	4a25      	ldr	r2, [pc, #148]	@ (8002dc8 <HAL_DMA_IRQHandler+0x13c>)
 8002d34:	4293      	cmp	r3, r2
 8002d36:	d014      	beq.n	8002d62 <HAL_DMA_IRQHandler+0xd6>
 8002d38:	3214      	adds	r2, #20
 8002d3a:	4293      	cmp	r3, r2
 8002d3c:	d01c      	beq.n	8002d78 <HAL_DMA_IRQHandler+0xec>
 8002d3e:	3214      	adds	r2, #20
 8002d40:	4293      	cmp	r3, r2
 8002d42:	d01b      	beq.n	8002d7c <HAL_DMA_IRQHandler+0xf0>
 8002d44:	3214      	adds	r2, #20
 8002d46:	4293      	cmp	r3, r2
 8002d48:	d01b      	beq.n	8002d82 <HAL_DMA_IRQHandler+0xf6>
 8002d4a:	3214      	adds	r2, #20
 8002d4c:	4293      	cmp	r3, r2
 8002d4e:	d01b      	beq.n	8002d88 <HAL_DMA_IRQHandler+0xfc>
 8002d50:	3214      	adds	r2, #20
 8002d52:	4293      	cmp	r3, r2
 8002d54:	d002      	beq.n	8002d5c <HAL_DMA_IRQHandler+0xd0>
 8002d56:	f04f 7200 	mov.w	r2, #33554432	@ 0x2000000
 8002d5a:	e003      	b.n	8002d64 <HAL_DMA_IRQHandler+0xd8>
 8002d5c:	f44f 1200 	mov.w	r2, #2097152	@ 0x200000
 8002d60:	e000      	b.n	8002d64 <HAL_DMA_IRQHandler+0xd8>
 8002d62:	2202      	movs	r2, #2
 8002d64:	4b19      	ldr	r3, [pc, #100]	@ (8002dcc <HAL_DMA_IRQHandler+0x140>)
 8002d66:	605a      	str	r2, [r3, #4]
    __HAL_UNLOCK(hdma);
 8002d68:	2300      	movs	r3, #0
 8002d6a:	f880 3020 	strb.w	r3, [r0, #32]
    if(hdma->XferCpltCallback != NULL)
 8002d6e:	6a83      	ldr	r3, [r0, #40]	@ 0x28
 8002d70:	2b00      	cmp	r3, #0
 8002d72:	d0bf      	beq.n	8002cf4 <HAL_DMA_IRQHandler+0x68>
      hdma->XferCpltCallback(hdma);
 8002d74:	4798      	blx	r3
 8002d76:	e7bd      	b.n	8002cf4 <HAL_DMA_IRQHandler+0x68>
      __HAL_DMA_CLEAR_FLAG(hdma, __HAL_DMA_GET_TC_FLAG_INDEX(hdma));
 8002d78:	2220      	movs	r2, #32
 8002d7a:	e7f3      	b.n	8002d64 <HAL_DMA_IRQHandler+0xd8>
 8002d7c:	f44f 7200 	mov.w	r2, #512	@ 0x200
 8002d80:	e7f0      	b.n	8002d64 <HAL_DMA_IRQHandler+0xd8>
 8002d82:	f44f 5200 	mov.w	r2, #8192	@ 0x2000
 8002d86:	e7ed      	b.n	8002d64 <HAL_DMA_IRQHandler+0xd8>
 8002d88:	f44f 3200 	mov.w	r2, #131072	@ 0x20000
 8002d8c:	e7ea      	b.n	8002d64 <HAL_DMA_IRQHandler+0xd8>
  else if (( RESET != (flag_it & (DMA_FLAG_TE1 << hdma->ChannelIndex))) && (RESET != (source_it & DMA_IT_TE)))
 8002d8e:	2308      	movs	r3, #8
 8002d90:	408b      	lsls	r3, r1
 8002d92:	4213      	tst	r3, r2
 8002d94:	d0ae      	beq.n	8002cf4 <HAL_DMA_IRQHandler+0x68>
 8002d96:	f015 0f08 	tst.w	r5, #8
 8002d9a:	d0ab      	beq.n	8002cf4 <HAL_DMA_IRQHandler+0x68>
    __HAL_DMA_DISABLE_IT(hdma, (DMA_IT_TC | DMA_IT_HT | DMA_IT_TE));
 8002d9c:	6823      	ldr	r3, [r4, #0]
 8002d9e:	f023 030e 	bic.w	r3, r3, #14
 8002da2:	6023      	str	r3, [r4, #0]
    hdma->DmaBaseAddress->IFCR = (DMA_ISR_GIF1 << hdma->ChannelIndex);
 8002da4:	6c02      	ldr	r2, [r0, #64]	@ 0x40
 8002da6:	6bc1      	ldr	r1, [r0, #60]	@ 0x3c
 8002da8:	2301      	movs	r3, #1
 8002daa:	fa03 f202 	lsl.w	r2, r3, r2
 8002dae:	604a      	str	r2, [r1, #4]
    hdma->ErrorCode = HAL_DMA_ERROR_TE;
 8002db0:	6383      	str	r3, [r0, #56]	@ 0x38
    hdma->State = HAL_DMA_STATE_READY;
 8002db2:	f880 3021 	strb.w	r3, [r0, #33]	@ 0x21
    __HAL_UNLOCK(hdma);
 8002db6:	2300      	movs	r3, #0
 8002db8:	f880 3020 	strb.w	r3, [r0, #32]
    if (hdma->XferErrorCallback != NULL)
 8002dbc:	6b03      	ldr	r3, [r0, #48]	@ 0x30
 8002dbe:	2b00      	cmp	r3, #0
 8002dc0:	d098      	beq.n	8002cf4 <HAL_DMA_IRQHandler+0x68>
      hdma->XferErrorCallback(hdma);
 8002dc2:	4798      	blx	r3
  return;
 8002dc4:	e796      	b.n	8002cf4 <HAL_DMA_IRQHandler+0x68>
 8002dc6:	bf00      	nop
 8002dc8:	40020008 	.word	0x40020008
 8002dcc:	40020000 	.word	0x40020000

08002dd0 <HAL_GPIO_Init>:
  * @param  GPIO_Init: pointer to a GPIO_InitTypeDef structure that contains
  *         the configuration information for the specified GPIO peripheral.
  * @retval None
  */
void HAL_GPIO_Init(GPIO_TypeDef  *GPIOx, GPIO_InitTypeDef *GPIO_Init)
{
 8002dd0:	b570      	push	{r4, r5, r6, lr}
 8002dd2:	b082      	sub	sp, #8
  uint32_t position = 0x00u;
  uint32_t ioposition;
  uint32_t iocurrent;
  uint32_t temp;
  uint32_t config = 0x00u;
 8002dd4:	2400      	movs	r4, #0
  uint32_t position = 0x00u;
 8002dd6:	46a4      	mov	ip, r4
  assert_param(IS_GPIO_ALL_INSTANCE(GPIOx));
  assert_param(IS_GPIO_PIN(GPIO_Init->Pin));
  assert_param(IS_GPIO_MODE(GPIO_Init->Mode));

  /* Configure the port pins */
  while (((GPIO_Init->Pin) >> position) != 0x00u)
 8002dd8:	e0a1      	b.n	8002f1e <HAL_GPIO_Init+0x14e>
    {
      /* Check the Alternate function parameters */
      assert_param(IS_GPIO_AF_INSTANCE(GPIOx));

      /* Based on the required mode, filling config variable with MODEy[1:0] and CNFy[3:2] corresponding bits */
      switch (GPIO_Init->Mode)
 8002dda:	4d7e      	ldr	r5, [pc, #504]	@ (8002fd4 <HAL_GPIO_Init+0x204>)
 8002ddc:	42ab      	cmp	r3, r5
 8002dde:	d014      	beq.n	8002e0a <HAL_GPIO_Init+0x3a>
 8002de0:	d80c      	bhi.n	8002dfc <HAL_GPIO_Init+0x2c>
 8002de2:	f5a5 1580 	sub.w	r5, r5, #1048576	@ 0x100000
 8002de6:	42ab      	cmp	r3, r5
 8002de8:	d00f      	beq.n	8002e0a <HAL_GPIO_Init+0x3a>
 8002dea:	f505 2570 	add.w	r5, r5, #983040	@ 0xf0000
 8002dee:	42ab      	cmp	r3, r5
 8002df0:	d00b      	beq.n	8002e0a <HAL_GPIO_Init+0x3a>
 8002df2:	f5a5 1580 	sub.w	r5, r5, #1048576	@ 0x100000
 8002df6:	42ab      	cmp	r3, r5
 8002df8:	d110      	bne.n	8002e1c <HAL_GPIO_Init+0x4c>
 8002dfa:	e006      	b.n	8002e0a <HAL_GPIO_Init+0x3a>
 8002dfc:	4d76      	ldr	r5, [pc, #472]	@ (8002fd8 <HAL_GPIO_Init+0x208>)
 8002dfe:	42ab      	cmp	r3, r5
 8002e00:	d003      	beq.n	8002e0a <HAL_GPIO_Init+0x3a>
 8002e02:	f505 3580 	add.w	r5, r5, #65536	@ 0x10000
 8002e06:	42ab      	cmp	r3, r5
 8002e08:	d108      	bne.n	8002e1c <HAL_GPIO_Init+0x4c>
        case GPIO_MODE_EVT_RISING:
        case GPIO_MODE_EVT_FALLING:
        case GPIO_MODE_EVT_RISING_FALLING:
          /* Check the GPIO pull parameter */
          assert_param(IS_GPIO_PULL(GPIO_Init->Pull));
          if (GPIO_Init->Pull == GPIO_NOPULL)
 8002e0a:	688b      	ldr	r3, [r1, #8]
 8002e0c:	2b00      	cmp	r3, #0
 8002e0e:	d050      	beq.n	8002eb2 <HAL_GPIO_Init+0xe2>
          {
            config = GPIO_CR_MODE_INPUT + GPIO_CR_CNF_INPUT_FLOATING;
          }
          else if (GPIO_Init->Pull == GPIO_PULLUP)
 8002e10:	2b01      	cmp	r3, #1
 8002e12:	d049      	beq.n	8002ea8 <HAL_GPIO_Init+0xd8>
          else /* GPIO_PULLDOWN */
          {
            config = GPIO_CR_MODE_INPUT + GPIO_CR_CNF_INPUT_PU_PD;

            /* Reset the corresponding ODR bit */
            GPIOx->BRR = ioposition;
 8002e14:	6142      	str	r2, [r0, #20]
            config = GPIO_CR_MODE_INPUT + GPIO_CR_CNF_INPUT_PU_PD;
 8002e16:	2408      	movs	r4, #8
 8002e18:	e000      	b.n	8002e1c <HAL_GPIO_Init+0x4c>
          config = GPIO_Init->Speed + GPIO_CR_CNF_GP_OUTPUT_PP;
 8002e1a:	68cc      	ldr	r4, [r1, #12]
          break;
      }

      /* Check if the current bit belongs to first half or last half of the pin count number
       in order to address CRH or CRL register*/
      configregister = (iocurrent < GPIO_PIN_8) ? &GPIOx->CRL     : &GPIOx->CRH;
 8002e1c:	f1be 0fff 	cmp.w	lr, #255	@ 0xff
 8002e20:	d849      	bhi.n	8002eb6 <HAL_GPIO_Init+0xe6>
 8002e22:	4606      	mov	r6, r0
      registeroffset = (iocurrent < GPIO_PIN_8) ? (position << 2u) : ((position - 8u) << 2u);
 8002e24:	ea4f 028c 	mov.w	r2, ip, lsl #2

      /* Apply the new configuration of the pin to the register */
      MODIFY_REG((*configregister), ((GPIO_CRL_MODE0 | GPIO_CRL_CNF0) << registeroffset), (config << registeroffset));
 8002e28:	6833      	ldr	r3, [r6, #0]
 8002e2a:	250f      	movs	r5, #15
 8002e2c:	4095      	lsls	r5, r2
 8002e2e:	ea23 0305 	bic.w	r3, r3, r5
 8002e32:	fa04 f202 	lsl.w	r2, r4, r2
 8002e36:	4313      	orrs	r3, r2
 8002e38:	6033      	str	r3, [r6, #0]

      /*--------------------- EXTI Mode Configuration ------------------------*/
      /* Configure the External Interrupt or event for the current IO */
      if ((GPIO_Init->Mode & EXTI_MODE) == EXTI_MODE)
 8002e3a:	684b      	ldr	r3, [r1, #4]
 8002e3c:	f013 5f80 	tst.w	r3, #268435456	@ 0x10000000
 8002e40:	d06b      	beq.n	8002f1a <HAL_GPIO_Init+0x14a>
      {
        /* Enable AFIO Clock */
        __HAL_RCC_AFIO_CLK_ENABLE();
 8002e42:	4b66      	ldr	r3, [pc, #408]	@ (8002fdc <HAL_GPIO_Init+0x20c>)
 8002e44:	699a      	ldr	r2, [r3, #24]
 8002e46:	f042 0201 	orr.w	r2, r2, #1
 8002e4a:	619a      	str	r2, [r3, #24]
 8002e4c:	699b      	ldr	r3, [r3, #24]
 8002e4e:	f003 0301 	and.w	r3, r3, #1
 8002e52:	9301      	str	r3, [sp, #4]
 8002e54:	9b01      	ldr	r3, [sp, #4]
        temp = AFIO->EXTICR[position >> 2u];
 8002e56:	ea4f 029c 	mov.w	r2, ip, lsr #2
 8002e5a:	1c95      	adds	r5, r2, #2
 8002e5c:	4b60      	ldr	r3, [pc, #384]	@ (8002fe0 <HAL_GPIO_Init+0x210>)
 8002e5e:	f853 6025 	ldr.w	r6, [r3, r5, lsl #2]
        CLEAR_BIT(temp, (0x0Fu) << (4u * (position & 0x03u)));
 8002e62:	f00c 0503 	and.w	r5, ip, #3
 8002e66:	00ad      	lsls	r5, r5, #2
 8002e68:	230f      	movs	r3, #15
 8002e6a:	40ab      	lsls	r3, r5
 8002e6c:	ea26 0603 	bic.w	r6, r6, r3
        SET_BIT(temp, (GPIO_GET_INDEX(GPIOx)) << (4u * (position & 0x03u)));
 8002e70:	4b5c      	ldr	r3, [pc, #368]	@ (8002fe4 <HAL_GPIO_Init+0x214>)
 8002e72:	4298      	cmp	r0, r3
 8002e74:	d026      	beq.n	8002ec4 <HAL_GPIO_Init+0xf4>
 8002e76:	f503 6380 	add.w	r3, r3, #1024	@ 0x400
 8002e7a:	4298      	cmp	r0, r3
 8002e7c:	f000 808c 	beq.w	8002f98 <HAL_GPIO_Init+0x1c8>
 8002e80:	f503 6380 	add.w	r3, r3, #1024	@ 0x400
 8002e84:	4298      	cmp	r0, r3
 8002e86:	f000 8089 	beq.w	8002f9c <HAL_GPIO_Init+0x1cc>
 8002e8a:	f503 6380 	add.w	r3, r3, #1024	@ 0x400
 8002e8e:	4298      	cmp	r0, r3
 8002e90:	d016      	beq.n	8002ec0 <HAL_GPIO_Init+0xf0>
 8002e92:	2304      	movs	r3, #4
 8002e94:	e017      	b.n	8002ec6 <HAL_GPIO_Init+0xf6>
          config = GPIO_Init->Speed + GPIO_CR_CNF_GP_OUTPUT_OD;
 8002e96:	68cc      	ldr	r4, [r1, #12]
 8002e98:	3404      	adds	r4, #4
          break;
 8002e9a:	e7bf      	b.n	8002e1c <HAL_GPIO_Init+0x4c>
          config = GPIO_Init->Speed + GPIO_CR_CNF_AF_OUTPUT_PP;
 8002e9c:	68cc      	ldr	r4, [r1, #12]
 8002e9e:	3408      	adds	r4, #8
          break;
 8002ea0:	e7bc      	b.n	8002e1c <HAL_GPIO_Init+0x4c>
          config = GPIO_Init->Speed + GPIO_CR_CNF_AF_OUTPUT_OD;
 8002ea2:	68cc      	ldr	r4, [r1, #12]
 8002ea4:	340c      	adds	r4, #12
          break;
 8002ea6:	e7b9      	b.n	8002e1c <HAL_GPIO_Init+0x4c>
            GPIOx->BSRR = ioposition;
 8002ea8:	6102      	str	r2, [r0, #16]
            config = GPIO_CR_MODE_INPUT + GPIO_CR_CNF_INPUT_PU_PD;
 8002eaa:	2408      	movs	r4, #8
 8002eac:	e7b6      	b.n	8002e1c <HAL_GPIO_Init+0x4c>
          config = GPIO_CR_MODE_INPUT + GPIO_CR_CNF_ANALOG;
 8002eae:	2400      	movs	r4, #0
 8002eb0:	e7b4      	b.n	8002e1c <HAL_GPIO_Init+0x4c>
            config = GPIO_CR_MODE_INPUT + GPIO_CR_CNF_INPUT_FLOATING;
 8002eb2:	2404      	movs	r4, #4
 8002eb4:	e7b2      	b.n	8002e1c <HAL_GPIO_Init+0x4c>
      configregister = (iocurrent < GPIO_PIN_8) ? &GPIOx->CRL     : &GPIOx->CRH;
 8002eb6:	1d06      	adds	r6, r0, #4
      registeroffset = (iocurrent < GPIO_PIN_8) ? (position << 2u) : ((position - 8u) << 2u);
 8002eb8:	f1ac 0208 	sub.w	r2, ip, #8
 8002ebc:	0092      	lsls	r2, r2, #2
 8002ebe:	e7b3      	b.n	8002e28 <HAL_GPIO_Init+0x58>
        SET_BIT(temp, (GPIO_GET_INDEX(GPIOx)) << (4u * (position & 0x03u)));
 8002ec0:	2303      	movs	r3, #3
 8002ec2:	e000      	b.n	8002ec6 <HAL_GPIO_Init+0xf6>
 8002ec4:	2300      	movs	r3, #0
 8002ec6:	40ab      	lsls	r3, r5
 8002ec8:	4333      	orrs	r3, r6
        AFIO->EXTICR[position >> 2u] = temp;
 8002eca:	3202      	adds	r2, #2
 8002ecc:	4d44      	ldr	r5, [pc, #272]	@ (8002fe0 <HAL_GPIO_Init+0x210>)
 8002ece:	f845 3022 	str.w	r3, [r5, r2, lsl #2]


        /* Enable or disable the rising trigger */
        if ((GPIO_Init->Mode & RISING_EDGE) == RISING_EDGE)
 8002ed2:	684b      	ldr	r3, [r1, #4]
 8002ed4:	f413 1f80 	tst.w	r3, #1048576	@ 0x100000
 8002ed8:	d062      	beq.n	8002fa0 <HAL_GPIO_Init+0x1d0>
        {
          SET_BIT(EXTI->RTSR, iocurrent);
 8002eda:	4a43      	ldr	r2, [pc, #268]	@ (8002fe8 <HAL_GPIO_Init+0x218>)
 8002edc:	6893      	ldr	r3, [r2, #8]
 8002ede:	ea43 030e 	orr.w	r3, r3, lr
 8002ee2:	6093      	str	r3, [r2, #8]
        {
          CLEAR_BIT(EXTI->RTSR, iocurrent);
        }

        /* Enable or disable the falling trigger */
        if ((GPIO_Init->Mode & FALLING_EDGE) == FALLING_EDGE)
 8002ee4:	684b      	ldr	r3, [r1, #4]
 8002ee6:	f413 1f00 	tst.w	r3, #2097152	@ 0x200000
 8002eea:	d05f      	beq.n	8002fac <HAL_GPIO_Init+0x1dc>
        {
          SET_BIT(EXTI->FTSR, iocurrent);
 8002eec:	4a3e      	ldr	r2, [pc, #248]	@ (8002fe8 <HAL_GPIO_Init+0x218>)
 8002eee:	68d3      	ldr	r3, [r2, #12]
 8002ef0:	ea43 030e 	orr.w	r3, r3, lr
 8002ef4:	60d3      	str	r3, [r2, #12]
        {
          CLEAR_BIT(EXTI->FTSR, iocurrent);
        }

        /* Configure the event mask */
        if ((GPIO_Init->Mode & GPIO_MODE_EVT) == GPIO_MODE_EVT)
 8002ef6:	684b      	ldr	r3, [r1, #4]
 8002ef8:	f413 3f00 	tst.w	r3, #131072	@ 0x20000
 8002efc:	d05c      	beq.n	8002fb8 <HAL_GPIO_Init+0x1e8>
        {
          SET_BIT(EXTI->EMR, iocurrent);
 8002efe:	4a3a      	ldr	r2, [pc, #232]	@ (8002fe8 <HAL_GPIO_Init+0x218>)
 8002f00:	6853      	ldr	r3, [r2, #4]
 8002f02:	ea43 030e 	orr.w	r3, r3, lr
 8002f06:	6053      	str	r3, [r2, #4]
        {
          CLEAR_BIT(EXTI->EMR, iocurrent);
        }

        /* Configure the interrupt mask */
        if ((GPIO_Init->Mode & GPIO_MODE_IT) == GPIO_MODE_IT)
 8002f08:	684b      	ldr	r3, [r1, #4]
 8002f0a:	f413 3f80 	tst.w	r3, #65536	@ 0x10000
 8002f0e:	d059      	beq.n	8002fc4 <HAL_GPIO_Init+0x1f4>
        {
          SET_BIT(EXTI->IMR, iocurrent);
 8002f10:	4a35      	ldr	r2, [pc, #212]	@ (8002fe8 <HAL_GPIO_Init+0x218>)
 8002f12:	6813      	ldr	r3, [r2, #0]
 8002f14:	ea43 030e 	orr.w	r3, r3, lr
 8002f18:	6013      	str	r3, [r2, #0]
          CLEAR_BIT(EXTI->IMR, iocurrent);
        }
      }
    }

	position++;
 8002f1a:	f10c 0c01 	add.w	ip, ip, #1
  while (((GPIO_Init->Pin) >> position) != 0x00u)
 8002f1e:	680b      	ldr	r3, [r1, #0]
 8002f20:	fa33 f20c 	lsrs.w	r2, r3, ip
 8002f24:	d054      	beq.n	8002fd0 <HAL_GPIO_Init+0x200>
    ioposition = (0x01uL << position);
 8002f26:	2201      	movs	r2, #1
 8002f28:	fa02 f20c 	lsl.w	r2, r2, ip
    iocurrent = (uint32_t)(GPIO_Init->Pin) & ioposition;
 8002f2c:	ea03 0e02 	and.w	lr, r3, r2
    if (iocurrent == ioposition)
 8002f30:	ea32 0303 	bics.w	r3, r2, r3
 8002f34:	d1f1      	bne.n	8002f1a <HAL_GPIO_Init+0x14a>
      switch (GPIO_Init->Mode)
 8002f36:	684b      	ldr	r3, [r1, #4]
 8002f38:	2b12      	cmp	r3, #18
 8002f3a:	f63f af4e 	bhi.w	8002dda <HAL_GPIO_Init+0xa>
 8002f3e:	2b12      	cmp	r3, #18
 8002f40:	f63f af6c 	bhi.w	8002e1c <HAL_GPIO_Init+0x4c>
 8002f44:	a501      	add	r5, pc, #4	@ (adr r5, 8002f4c <HAL_GPIO_Init+0x17c>)
 8002f46:	f855 f023 	ldr.w	pc, [r5, r3, lsl #2]
 8002f4a:	bf00      	nop
 8002f4c:	08002e0b 	.word	0x08002e0b
 8002f50:	08002e1b 	.word	0x08002e1b
 8002f54:	08002e9d 	.word	0x08002e9d
 8002f58:	08002eaf 	.word	0x08002eaf
 8002f5c:	08002e1d 	.word	0x08002e1d
 8002f60:	08002e1d 	.word	0x08002e1d
 8002f64:	08002e1d 	.word	0x08002e1d
 8002f68:	08002e1d 	.word	0x08002e1d
 8002f6c:	08002e1d 	.word	0x08002e1d
 8002f70:	08002e1d 	.word	0x08002e1d
 8002f74:	08002e1d 	.word	0x08002e1d
 8002f78:	08002e1d 	.word	0x08002e1d
 8002f7c:	08002e1d 	.word	0x08002e1d
 8002f80:	08002e1d 	.word	0x08002e1d
 8002f84:	08002e1d 	.word	0x08002e1d
 8002f88:	08002e1d 	.word	0x08002e1d
 8002f8c:	08002e1d 	.word	0x08002e1d
 8002f90:	08002e97 	.word	0x08002e97
 8002f94:	08002ea3 	.word	0x08002ea3
        SET_BIT(temp, (GPIO_GET_INDEX(GPIOx)) << (4u * (position & 0x03u)));
 8002f98:	2301      	movs	r3, #1
 8002f9a:	e794      	b.n	8002ec6 <HAL_GPIO_Init+0xf6>
 8002f9c:	2302      	movs	r3, #2
 8002f9e:	e792      	b.n	8002ec6 <HAL_GPIO_Init+0xf6>
          CLEAR_BIT(EXTI->RTSR, iocurrent);
 8002fa0:	4a11      	ldr	r2, [pc, #68]	@ (8002fe8 <HAL_GPIO_Init+0x218>)
 8002fa2:	6893      	ldr	r3, [r2, #8]
 8002fa4:	ea23 030e 	bic.w	r3, r3, lr
 8002fa8:	6093      	str	r3, [r2, #8]
 8002faa:	e79b      	b.n	8002ee4 <HAL_GPIO_Init+0x114>
          CLEAR_BIT(EXTI->FTSR, iocurrent);
 8002fac:	4a0e      	ldr	r2, [pc, #56]	@ (8002fe8 <HAL_GPIO_Init+0x218>)
 8002fae:	68d3      	ldr	r3, [r2, #12]
 8002fb0:	ea23 030e 	bic.w	r3, r3, lr
 8002fb4:	60d3      	str	r3, [r2, #12]
 8002fb6:	e79e      	b.n	8002ef6 <HAL_GPIO_Init+0x126>
          CLEAR_BIT(EXTI->EMR, iocurrent);
 8002fb8:	4a0b      	ldr	r2, [pc, #44]	@ (8002fe8 <HAL_GPIO_Init+0x218>)
 8002fba:	6853      	ldr	r3, [r2, #4]
 8002fbc:	ea23 030e 	bic.w	r3, r3, lr
 8002fc0:	6053      	str	r3, [r2, #4]
 8002fc2:	e7a1      	b.n	8002f08 <HAL_GPIO_Init+0x138>
          CLEAR_BIT(EXTI->IMR, iocurrent);
 8002fc4:	4a08      	ldr	r2, [pc, #32]	@ (8002fe8 <HAL_GPIO_Init+0x218>)
 8002fc6:	6813      	ldr	r3, [r2, #0]
 8002fc8:	ea23 030e 	bic.w	r3, r3, lr
 8002fcc:	6013      	str	r3, [r2, #0]
 8002fce:	e7a4      	b.n	8002f1a <HAL_GPIO_Init+0x14a>
  }
}
 8002fd0:	b002      	add	sp, #8
 8002fd2:	bd70      	pop	{r4, r5, r6, pc}
 8002fd4:	10220000 	.word	0x10220000
 8002fd8:	10310000 	.word	0x10310000
 8002fdc:	40021000 	.word	0x40021000
 8002fe0:	40010000 	.word	0x40010000
 8002fe4:	40010800 	.word	0x40010800
 8002fe8:	40010400 	.word	0x40010400

08002fec <HAL_GPIO_ReadPin>:
  GPIO_PinState bitstatus;

  /* Check the parameters */
  assert_param(IS_GPIO_PIN(GPIO_Pin));

  if ((GPIOx->IDR & GPIO_Pin) != (uint32_t)GPIO_PIN_RESET)
 8002fec:	6883      	ldr	r3, [r0, #8]
 8002fee:	4219      	tst	r1, r3
 8002ff0:	d001      	beq.n	8002ff6 <HAL_GPIO_ReadPin+0xa>
  {
    bitstatus = GPIO_PIN_SET;
 8002ff2:	2001      	movs	r0, #1
 8002ff4:	4770      	bx	lr
  }
  else
  {
    bitstatus = GPIO_PIN_RESET;
 8002ff6:	2000      	movs	r0, #0
  }
  return bitstatus;
}
 8002ff8:	4770      	bx	lr

08002ffa <HAL_GPIO_WritePin>:
{
  /* Check the parameters */
  assert_param(IS_GPIO_PIN(GPIO_Pin));
  assert_param(IS_GPIO_PIN_ACTION(PinState));

  if (PinState != GPIO_PIN_RESET)
 8002ffa:	b10a      	cbz	r2, 8003000 <HAL_GPIO_WritePin+0x6>
  {
    GPIOx->BSRR = GPIO_Pin;
 8002ffc:	6101      	str	r1, [r0, #16]
 8002ffe:	4770      	bx	lr
  }
  else
  {
    GPIOx->BSRR = (uint32_t)GPIO_Pin << 16u;
 8003000:	0409      	lsls	r1, r1, #16
 8003002:	6101      	str	r1, [r0, #16]
  }
}
 8003004:	4770      	bx	lr
	...

08003008 <RCC_Delay>:
  * @brief  This function provides delay (in milliseconds) based on CPU cycles method.
  * @param  mdelay: specifies the delay time length, in milliseconds.
  * @retval None
  */
static void RCC_Delay(uint32_t mdelay)
{
 8003008:	b082      	sub	sp, #8
  __IO uint32_t Delay = mdelay * (SystemCoreClock / 8U / 1000U);
 800300a:	4b08      	ldr	r3, [pc, #32]	@ (800302c <RCC_Delay+0x24>)
 800300c:	681b      	ldr	r3, [r3, #0]
 800300e:	4a08      	ldr	r2, [pc, #32]	@ (8003030 <RCC_Delay+0x28>)
 8003010:	fba2 2303 	umull	r2, r3, r2, r3
 8003014:	0a5b      	lsrs	r3, r3, #9
 8003016:	fb00 f303 	mul.w	r3, r0, r3
 800301a:	9301      	str	r3, [sp, #4]
  do
  {
    __NOP();
 800301c:	bf00      	nop
  }
  while (Delay --);
 800301e:	9b01      	ldr	r3, [sp, #4]
 8003020:	1e5a      	subs	r2, r3, #1
 8003022:	9201      	str	r2, [sp, #4]
 8003024:	2b00      	cmp	r3, #0
 8003026:	d1f9      	bne.n	800301c <RCC_Delay+0x14>
}
 8003028:	b002      	add	sp, #8
 800302a:	4770      	bx	lr
 800302c:	200000a0 	.word	0x200000a0
 8003030:	10624dd3 	.word	0x10624dd3

08003034 <HAL_RCC_OscConfig>:
  if (RCC_OscInitStruct == NULL)
 8003034:	2800      	cmp	r0, #0
 8003036:	f000 81f1 	beq.w	800341c <HAL_RCC_OscConfig+0x3e8>
{
 800303a:	b570      	push	{r4, r5, r6, lr}
 800303c:	b082      	sub	sp, #8
 800303e:	4604      	mov	r4, r0
  if (((RCC_OscInitStruct->OscillatorType) & RCC_OSCILLATORTYPE_HSE) == RCC_OSCILLATORTYPE_HSE)
 8003040:	6803      	ldr	r3, [r0, #0]
 8003042:	f013 0f01 	tst.w	r3, #1
 8003046:	d02c      	beq.n	80030a2 <HAL_RCC_OscConfig+0x6e>
    if ((__HAL_RCC_GET_SYSCLK_SOURCE() == RCC_SYSCLKSOURCE_STATUS_HSE)
 8003048:	4b99      	ldr	r3, [pc, #612]	@ (80032b0 <HAL_RCC_OscConfig+0x27c>)
 800304a:	685b      	ldr	r3, [r3, #4]
 800304c:	f003 030c 	and.w	r3, r3, #12
 8003050:	2b04      	cmp	r3, #4
 8003052:	d01d      	beq.n	8003090 <HAL_RCC_OscConfig+0x5c>
        || ((__HAL_RCC_GET_SYSCLK_SOURCE() == RCC_SYSCLKSOURCE_STATUS_PLLCLK) && (__HAL_RCC_GET_PLL_OSCSOURCE() == RCC_PLLSOURCE_HSE)))
 8003054:	4b96      	ldr	r3, [pc, #600]	@ (80032b0 <HAL_RCC_OscConfig+0x27c>)
 8003056:	685b      	ldr	r3, [r3, #4]
 8003058:	f003 030c 	and.w	r3, r3, #12
 800305c:	2b08      	cmp	r3, #8
 800305e:	d012      	beq.n	8003086 <HAL_RCC_OscConfig+0x52>
      __HAL_RCC_HSE_CONFIG(RCC_OscInitStruct->HSEState);
 8003060:	6863      	ldr	r3, [r4, #4]
 8003062:	f5b3 3f80 	cmp.w	r3, #65536	@ 0x10000
 8003066:	d041      	beq.n	80030ec <HAL_RCC_OscConfig+0xb8>
 8003068:	2b00      	cmp	r3, #0
 800306a:	d155      	bne.n	8003118 <HAL_RCC_OscConfig+0xe4>
 800306c:	f103 4380 	add.w	r3, r3, #1073741824	@ 0x40000000
 8003070:	f503 3304 	add.w	r3, r3, #135168	@ 0x21000
 8003074:	681a      	ldr	r2, [r3, #0]
 8003076:	f422 3280 	bic.w	r2, r2, #65536	@ 0x10000
 800307a:	601a      	str	r2, [r3, #0]
 800307c:	681a      	ldr	r2, [r3, #0]
 800307e:	f422 2280 	bic.w	r2, r2, #262144	@ 0x40000
 8003082:	601a      	str	r2, [r3, #0]
 8003084:	e037      	b.n	80030f6 <HAL_RCC_OscConfig+0xc2>
        || ((__HAL_RCC_GET_SYSCLK_SOURCE() == RCC_SYSCLKSOURCE_STATUS_PLLCLK) && (__HAL_RCC_GET_PLL_OSCSOURCE() == RCC_PLLSOURCE_HSE)))
 8003086:	4b8a      	ldr	r3, [pc, #552]	@ (80032b0 <HAL_RCC_OscConfig+0x27c>)
 8003088:	685b      	ldr	r3, [r3, #4]
 800308a:	f413 3f80 	tst.w	r3, #65536	@ 0x10000
 800308e:	d0e7      	beq.n	8003060 <HAL_RCC_OscConfig+0x2c>
      if ((__HAL_RCC_GET_FLAG(RCC_FLAG_HSERDY) != RESET) && (RCC_OscInitStruct->HSEState == RCC_HSE_OFF))
 8003090:	4b87      	ldr	r3, [pc, #540]	@ (80032b0 <HAL_RCC_OscConfig+0x27c>)
 8003092:	681b      	ldr	r3, [r3, #0]
 8003094:	f413 3f00 	tst.w	r3, #131072	@ 0x20000
 8003098:	d003      	beq.n	80030a2 <HAL_RCC_OscConfig+0x6e>
 800309a:	6863      	ldr	r3, [r4, #4]
 800309c:	2b00      	cmp	r3, #0
 800309e:	f000 81bf 	beq.w	8003420 <HAL_RCC_OscConfig+0x3ec>
  if (((RCC_OscInitStruct->OscillatorType) & RCC_OSCILLATORTYPE_HSI) == RCC_OSCILLATORTYPE_HSI)
 80030a2:	6823      	ldr	r3, [r4, #0]
 80030a4:	f013 0f02 	tst.w	r3, #2
 80030a8:	d075      	beq.n	8003196 <HAL_RCC_OscConfig+0x162>
    if ((__HAL_RCC_GET_SYSCLK_SOURCE() == RCC_SYSCLKSOURCE_STATUS_HSI)
 80030aa:	4b81      	ldr	r3, [pc, #516]	@ (80032b0 <HAL_RCC_OscConfig+0x27c>)
 80030ac:	685b      	ldr	r3, [r3, #4]
 80030ae:	f013 0f0c 	tst.w	r3, #12
 80030b2:	d05f      	beq.n	8003174 <HAL_RCC_OscConfig+0x140>
        || ((__HAL_RCC_GET_SYSCLK_SOURCE() == RCC_SYSCLKSOURCE_STATUS_PLLCLK) && (__HAL_RCC_GET_PLL_OSCSOURCE() == RCC_PLLSOURCE_HSI_DIV2)))
 80030b4:	4b7e      	ldr	r3, [pc, #504]	@ (80032b0 <HAL_RCC_OscConfig+0x27c>)
 80030b6:	685b      	ldr	r3, [r3, #4]
 80030b8:	f003 030c 	and.w	r3, r3, #12
 80030bc:	2b08      	cmp	r3, #8
 80030be:	d054      	beq.n	800316a <HAL_RCC_OscConfig+0x136>
      if (RCC_OscInitStruct->HSIState != RCC_HSI_OFF)
 80030c0:	6923      	ldr	r3, [r4, #16]
 80030c2:	2b00      	cmp	r3, #0
 80030c4:	f000 808a 	beq.w	80031dc <HAL_RCC_OscConfig+0x1a8>
        __HAL_RCC_HSI_ENABLE();
 80030c8:	4b7a      	ldr	r3, [pc, #488]	@ (80032b4 <HAL_RCC_OscConfig+0x280>)
 80030ca:	2201      	movs	r2, #1
 80030cc:	601a      	str	r2, [r3, #0]
        tickstart = HAL_GetTick();
 80030ce:	f7ff f96d 	bl	80023ac <HAL_GetTick>
 80030d2:	4605      	mov	r5, r0
        while (__HAL_RCC_GET_FLAG(RCC_FLAG_HSIRDY) == RESET)
 80030d4:	4b76      	ldr	r3, [pc, #472]	@ (80032b0 <HAL_RCC_OscConfig+0x27c>)
 80030d6:	681b      	ldr	r3, [r3, #0]
 80030d8:	f013 0f02 	tst.w	r3, #2
 80030dc:	d175      	bne.n	80031ca <HAL_RCC_OscConfig+0x196>
          if ((HAL_GetTick() - tickstart) > HSI_TIMEOUT_VALUE)
 80030de:	f7ff f965 	bl	80023ac <HAL_GetTick>
 80030e2:	1b40      	subs	r0, r0, r5
 80030e4:	2802      	cmp	r0, #2
 80030e6:	d9f5      	bls.n	80030d4 <HAL_RCC_OscConfig+0xa0>
            return HAL_TIMEOUT;
 80030e8:	2003      	movs	r0, #3
 80030ea:	e19e      	b.n	800342a <HAL_RCC_OscConfig+0x3f6>
      __HAL_RCC_HSE_CONFIG(RCC_OscInitStruct->HSEState);
 80030ec:	4a70      	ldr	r2, [pc, #448]	@ (80032b0 <HAL_RCC_OscConfig+0x27c>)
 80030ee:	6813      	ldr	r3, [r2, #0]
 80030f0:	f443 3380 	orr.w	r3, r3, #65536	@ 0x10000
 80030f4:	6013      	str	r3, [r2, #0]
      if (RCC_OscInitStruct->HSEState != RCC_HSE_OFF)
 80030f6:	6863      	ldr	r3, [r4, #4]
 80030f8:	b343      	cbz	r3, 800314c <HAL_RCC_OscConfig+0x118>
        tickstart = HAL_GetTick();
 80030fa:	f7ff f957 	bl	80023ac <HAL_GetTick>
 80030fe:	4605      	mov	r5, r0
        while (__HAL_RCC_GET_FLAG(RCC_FLAG_HSERDY) == RESET)
 8003100:	4b6b      	ldr	r3, [pc, #428]	@ (80032b0 <HAL_RCC_OscConfig+0x27c>)
 8003102:	681b      	ldr	r3, [r3, #0]
 8003104:	f413 3f00 	tst.w	r3, #131072	@ 0x20000
 8003108:	d1cb      	bne.n	80030a2 <HAL_RCC_OscConfig+0x6e>
          if ((HAL_GetTick() - tickstart) > HSE_TIMEOUT_VALUE)
 800310a:	f7ff f94f 	bl	80023ac <HAL_GetTick>
 800310e:	1b40      	subs	r0, r0, r5
 8003110:	2864      	cmp	r0, #100	@ 0x64
 8003112:	d9f5      	bls.n	8003100 <HAL_RCC_OscConfig+0xcc>
            return HAL_TIMEOUT;
 8003114:	2003      	movs	r0, #3
 8003116:	e188      	b.n	800342a <HAL_RCC_OscConfig+0x3f6>
      __HAL_RCC_HSE_CONFIG(RCC_OscInitStruct->HSEState);
 8003118:	f5b3 2fa0 	cmp.w	r3, #327680	@ 0x50000
 800311c:	d009      	beq.n	8003132 <HAL_RCC_OscConfig+0xfe>
 800311e:	4b64      	ldr	r3, [pc, #400]	@ (80032b0 <HAL_RCC_OscConfig+0x27c>)
 8003120:	681a      	ldr	r2, [r3, #0]
 8003122:	f422 3280 	bic.w	r2, r2, #65536	@ 0x10000
 8003126:	601a      	str	r2, [r3, #0]
 8003128:	681a      	ldr	r2, [r3, #0]
 800312a:	f422 2280 	bic.w	r2, r2, #262144	@ 0x40000
 800312e:	601a      	str	r2, [r3, #0]
 8003130:	e7e1      	b.n	80030f6 <HAL_RCC_OscConfig+0xc2>
 8003132:	f103 4380 	add.w	r3, r3, #1073741824	@ 0x40000000
 8003136:	f5a3 333c 	sub.w	r3, r3, #192512	@ 0x2f000
 800313a:	681a      	ldr	r2, [r3, #0]
 800313c:	f442 2280 	orr.w	r2, r2, #262144	@ 0x40000
 8003140:	601a      	str	r2, [r3, #0]
 8003142:	681a      	ldr	r2, [r3, #0]
 8003144:	f442 3280 	orr.w	r2, r2, #65536	@ 0x10000
 8003148:	601a      	str	r2, [r3, #0]
 800314a:	e7d4      	b.n	80030f6 <HAL_RCC_OscConfig+0xc2>
        tickstart = HAL_GetTick();
 800314c:	f7ff f92e 	bl	80023ac <HAL_GetTick>
 8003150:	4605      	mov	r5, r0
        while (__HAL_RCC_GET_FLAG(RCC_FLAG_HSERDY) != RESET)
 8003152:	4b57      	ldr	r3, [pc, #348]	@ (80032b0 <HAL_RCC_OscConfig+0x27c>)
 8003154:	681b      	ldr	r3, [r3, #0]
 8003156:	f413 3f00 	tst.w	r3, #131072	@ 0x20000
 800315a:	d0a2      	beq.n	80030a2 <HAL_RCC_OscConfig+0x6e>
          if ((HAL_GetTick() - tickstart) > HSE_TIMEOUT_VALUE)
 800315c:	f7ff f926 	bl	80023ac <HAL_GetTick>
 8003160:	1b40      	subs	r0, r0, r5
 8003162:	2864      	cmp	r0, #100	@ 0x64
 8003164:	d9f5      	bls.n	8003152 <HAL_RCC_OscConfig+0x11e>
            return HAL_TIMEOUT;
 8003166:	2003      	movs	r0, #3
 8003168:	e15f      	b.n	800342a <HAL_RCC_OscConfig+0x3f6>
        || ((__HAL_RCC_GET_SYSCLK_SOURCE() == RCC_SYSCLKSOURCE_STATUS_PLLCLK) && (__HAL_RCC_GET_PLL_OSCSOURCE() == RCC_PLLSOURCE_HSI_DIV2)))
 800316a:	4b51      	ldr	r3, [pc, #324]	@ (80032b0 <HAL_RCC_OscConfig+0x27c>)
 800316c:	685b      	ldr	r3, [r3, #4]
 800316e:	f413 3f80 	tst.w	r3, #65536	@ 0x10000
 8003172:	d1a5      	bne.n	80030c0 <HAL_RCC_OscConfig+0x8c>
      if ((__HAL_RCC_GET_FLAG(RCC_FLAG_HSIRDY) != RESET) && (RCC_OscInitStruct->HSIState != RCC_HSI_ON))
 8003174:	4b4e      	ldr	r3, [pc, #312]	@ (80032b0 <HAL_RCC_OscConfig+0x27c>)
 8003176:	681b      	ldr	r3, [r3, #0]
 8003178:	f013 0f02 	tst.w	r3, #2
 800317c:	d003      	beq.n	8003186 <HAL_RCC_OscConfig+0x152>
 800317e:	6923      	ldr	r3, [r4, #16]
 8003180:	2b01      	cmp	r3, #1
 8003182:	f040 814f 	bne.w	8003424 <HAL_RCC_OscConfig+0x3f0>
        __HAL_RCC_HSI_CALIBRATIONVALUE_ADJUST(RCC_OscInitStruct->HSICalibrationValue);
 8003186:	4a4a      	ldr	r2, [pc, #296]	@ (80032b0 <HAL_RCC_OscConfig+0x27c>)
 8003188:	6813      	ldr	r3, [r2, #0]
 800318a:	f023 03f8 	bic.w	r3, r3, #248	@ 0xf8
 800318e:	6961      	ldr	r1, [r4, #20]
 8003190:	ea43 03c1 	orr.w	r3, r3, r1, lsl #3
 8003194:	6013      	str	r3, [r2, #0]
  if (((RCC_OscInitStruct->OscillatorType) & RCC_OSCILLATORTYPE_LSI) == RCC_OSCILLATORTYPE_LSI)
 8003196:	6823      	ldr	r3, [r4, #0]
 8003198:	f013 0f08 	tst.w	r3, #8
 800319c:	d033      	beq.n	8003206 <HAL_RCC_OscConfig+0x1d2>
    if (RCC_OscInitStruct->LSIState != RCC_LSI_OFF)
 800319e:	69a3      	ldr	r3, [r4, #24]
 80031a0:	2b00      	cmp	r3, #0
 80031a2:	d05c      	beq.n	800325e <HAL_RCC_OscConfig+0x22a>
      __HAL_RCC_LSI_ENABLE();
 80031a4:	4b43      	ldr	r3, [pc, #268]	@ (80032b4 <HAL_RCC_OscConfig+0x280>)
 80031a6:	2201      	movs	r2, #1
 80031a8:	f8c3 2480 	str.w	r2, [r3, #1152]	@ 0x480
      tickstart = HAL_GetTick();
 80031ac:	f7ff f8fe 	bl	80023ac <HAL_GetTick>
 80031b0:	4605      	mov	r5, r0
      while (__HAL_RCC_GET_FLAG(RCC_FLAG_LSIRDY) == RESET)
 80031b2:	4b3f      	ldr	r3, [pc, #252]	@ (80032b0 <HAL_RCC_OscConfig+0x27c>)
 80031b4:	6a5b      	ldr	r3, [r3, #36]	@ 0x24
 80031b6:	f013 0f02 	tst.w	r3, #2
 80031ba:	d121      	bne.n	8003200 <HAL_RCC_OscConfig+0x1cc>
        if ((HAL_GetTick() - tickstart) > LSI_TIMEOUT_VALUE)
 80031bc:	f7ff f8f6 	bl	80023ac <HAL_GetTick>
 80031c0:	1b40      	subs	r0, r0, r5
 80031c2:	2802      	cmp	r0, #2
 80031c4:	d9f5      	bls.n	80031b2 <HAL_RCC_OscConfig+0x17e>
          return HAL_TIMEOUT;
 80031c6:	2003      	movs	r0, #3
 80031c8:	e12f      	b.n	800342a <HAL_RCC_OscConfig+0x3f6>
        __HAL_RCC_HSI_CALIBRATIONVALUE_ADJUST(RCC_OscInitStruct->HSICalibrationValue);
 80031ca:	4a39      	ldr	r2, [pc, #228]	@ (80032b0 <HAL_RCC_OscConfig+0x27c>)
 80031cc:	6813      	ldr	r3, [r2, #0]
 80031ce:	f023 03f8 	bic.w	r3, r3, #248	@ 0xf8
 80031d2:	6961      	ldr	r1, [r4, #20]
 80031d4:	ea43 03c1 	orr.w	r3, r3, r1, lsl #3
 80031d8:	6013      	str	r3, [r2, #0]
 80031da:	e7dc      	b.n	8003196 <HAL_RCC_OscConfig+0x162>
        __HAL_RCC_HSI_DISABLE();
 80031dc:	4b35      	ldr	r3, [pc, #212]	@ (80032b4 <HAL_RCC_OscConfig+0x280>)
 80031de:	2200      	movs	r2, #0
 80031e0:	601a      	str	r2, [r3, #0]
        tickstart = HAL_GetTick();
 80031e2:	f7ff f8e3 	bl	80023ac <HAL_GetTick>
 80031e6:	4605      	mov	r5, r0
        while (__HAL_RCC_GET_FLAG(RCC_FLAG_HSIRDY) != RESET)
 80031e8:	4b31      	ldr	r3, [pc, #196]	@ (80032b0 <HAL_RCC_OscConfig+0x27c>)
 80031ea:	681b      	ldr	r3, [r3, #0]
 80031ec:	f013 0f02 	tst.w	r3, #2
 80031f0:	d0d1      	beq.n	8003196 <HAL_RCC_OscConfig+0x162>
          if ((HAL_GetTick() - tickstart) > HSI_TIMEOUT_VALUE)
 80031f2:	f7ff f8db 	bl	80023ac <HAL_GetTick>
 80031f6:	1b40      	subs	r0, r0, r5
 80031f8:	2802      	cmp	r0, #2
 80031fa:	d9f5      	bls.n	80031e8 <HAL_RCC_OscConfig+0x1b4>
            return HAL_TIMEOUT;
 80031fc:	2003      	movs	r0, #3
 80031fe:	e114      	b.n	800342a <HAL_RCC_OscConfig+0x3f6>
      RCC_Delay(1);
 8003200:	2001      	movs	r0, #1
 8003202:	f7ff ff01 	bl	8003008 <RCC_Delay>
  if (((RCC_OscInitStruct->OscillatorType) & RCC_OSCILLATORTYPE_LSE) == RCC_OSCILLATORTYPE_LSE)
 8003206:	6823      	ldr	r3, [r4, #0]
 8003208:	f013 0f04 	tst.w	r3, #4
 800320c:	f000 8096 	beq.w	800333c <HAL_RCC_OscConfig+0x308>
    if (__HAL_RCC_PWR_IS_CLK_DISABLED())
 8003210:	4b27      	ldr	r3, [pc, #156]	@ (80032b0 <HAL_RCC_OscConfig+0x27c>)
 8003212:	69db      	ldr	r3, [r3, #28]
 8003214:	f013 5f80 	tst.w	r3, #268435456	@ 0x10000000
 8003218:	d134      	bne.n	8003284 <HAL_RCC_OscConfig+0x250>
      __HAL_RCC_PWR_CLK_ENABLE();
 800321a:	4b25      	ldr	r3, [pc, #148]	@ (80032b0 <HAL_RCC_OscConfig+0x27c>)
 800321c:	69da      	ldr	r2, [r3, #28]
 800321e:	f042 5280 	orr.w	r2, r2, #268435456	@ 0x10000000
 8003222:	61da      	str	r2, [r3, #28]
 8003224:	69db      	ldr	r3, [r3, #28]
 8003226:	f003 5380 	and.w	r3, r3, #268435456	@ 0x10000000
 800322a:	9301      	str	r3, [sp, #4]
 800322c:	9b01      	ldr	r3, [sp, #4]
      pwrclkchanged = SET;
 800322e:	2501      	movs	r5, #1
    if (HAL_IS_BIT_CLR(PWR->CR, PWR_CR_DBP))
 8003230:	4b21      	ldr	r3, [pc, #132]	@ (80032b8 <HAL_RCC_OscConfig+0x284>)
 8003232:	681b      	ldr	r3, [r3, #0]
 8003234:	f413 7f80 	tst.w	r3, #256	@ 0x100
 8003238:	d026      	beq.n	8003288 <HAL_RCC_OscConfig+0x254>
    __HAL_RCC_LSE_CONFIG(RCC_OscInitStruct->LSEState);
 800323a:	68e3      	ldr	r3, [r4, #12]
 800323c:	2b01      	cmp	r3, #1
 800323e:	d03d      	beq.n	80032bc <HAL_RCC_OscConfig+0x288>
 8003240:	2b00      	cmp	r3, #0
 8003242:	d153      	bne.n	80032ec <HAL_RCC_OscConfig+0x2b8>
 8003244:	f103 4380 	add.w	r3, r3, #1073741824	@ 0x40000000
 8003248:	f503 3304 	add.w	r3, r3, #135168	@ 0x21000
 800324c:	6a1a      	ldr	r2, [r3, #32]
 800324e:	f022 0201 	bic.w	r2, r2, #1
 8003252:	621a      	str	r2, [r3, #32]
 8003254:	6a1a      	ldr	r2, [r3, #32]
 8003256:	f022 0204 	bic.w	r2, r2, #4
 800325a:	621a      	str	r2, [r3, #32]
 800325c:	e033      	b.n	80032c6 <HAL_RCC_OscConfig+0x292>
      __HAL_RCC_LSI_DISABLE();
 800325e:	4b15      	ldr	r3, [pc, #84]	@ (80032b4 <HAL_RCC_OscConfig+0x280>)
 8003260:	2200      	movs	r2, #0
 8003262:	f8c3 2480 	str.w	r2, [r3, #1152]	@ 0x480
      tickstart = HAL_GetTick();
 8003266:	f7ff f8a1 	bl	80023ac <HAL_GetTick>
 800326a:	4605      	mov	r5, r0
      while (__HAL_RCC_GET_FLAG(RCC_FLAG_LSIRDY) != RESET)
 800326c:	4b10      	ldr	r3, [pc, #64]	@ (80032b0 <HAL_RCC_OscConfig+0x27c>)
 800326e:	6a5b      	ldr	r3, [r3, #36]	@ 0x24
 8003270:	f013 0f02 	tst.w	r3, #2
 8003274:	d0c7      	beq.n	8003206 <HAL_RCC_OscConfig+0x1d2>
        if ((HAL_GetTick() - tickstart) > LSI_TIMEOUT_VALUE)
 8003276:	f7ff f899 	bl	80023ac <HAL_GetTick>
 800327a:	1b40      	subs	r0, r0, r5
 800327c:	2802      	cmp	r0, #2
 800327e:	d9f5      	bls.n	800326c <HAL_RCC_OscConfig+0x238>
          return HAL_TIMEOUT;
 8003280:	2003      	movs	r0, #3
 8003282:	e0d2      	b.n	800342a <HAL_RCC_OscConfig+0x3f6>
    FlagStatus       pwrclkchanged = RESET;
 8003284:	2500      	movs	r5, #0
 8003286:	e7d3      	b.n	8003230 <HAL_RCC_OscConfig+0x1fc>
      SET_BIT(PWR->CR, PWR_CR_DBP);
 8003288:	4a0b      	ldr	r2, [pc, #44]	@ (80032b8 <HAL_RCC_OscConfig+0x284>)
 800328a:	6813      	ldr	r3, [r2, #0]
 800328c:	f443 7380 	orr.w	r3, r3, #256	@ 0x100
 8003290:	6013      	str	r3, [r2, #0]
      tickstart = HAL_GetTick();
 8003292:	f7ff f88b 	bl	80023ac <HAL_GetTick>
 8003296:	4606      	mov	r6, r0
      while (HAL_IS_BIT_CLR(PWR->CR, PWR_CR_DBP))
 8003298:	4b07      	ldr	r3, [pc, #28]	@ (80032b8 <HAL_RCC_OscConfig+0x284>)
 800329a:	681b      	ldr	r3, [r3, #0]
 800329c:	f413 7f80 	tst.w	r3, #256	@ 0x100
 80032a0:	d1cb      	bne.n	800323a <HAL_RCC_OscConfig+0x206>
        if ((HAL_GetTick() - tickstart) > RCC_DBP_TIMEOUT_VALUE)
 80032a2:	f7ff f883 	bl	80023ac <HAL_GetTick>
 80032a6:	1b80      	subs	r0, r0, r6
 80032a8:	2864      	cmp	r0, #100	@ 0x64
 80032aa:	d9f5      	bls.n	8003298 <HAL_RCC_OscConfig+0x264>
          return HAL_TIMEOUT;
 80032ac:	2003      	movs	r0, #3
 80032ae:	e0bc      	b.n	800342a <HAL_RCC_OscConfig+0x3f6>
 80032b0:	40021000 	.word	0x40021000
 80032b4:	42420000 	.word	0x42420000
 80032b8:	40007000 	.word	0x40007000
    __HAL_RCC_LSE_CONFIG(RCC_OscInitStruct->LSEState);
 80032bc:	4a5f      	ldr	r2, [pc, #380]	@ (800343c <HAL_RCC_OscConfig+0x408>)
 80032be:	6a13      	ldr	r3, [r2, #32]
 80032c0:	f043 0301 	orr.w	r3, r3, #1
 80032c4:	6213      	str	r3, [r2, #32]
    if (RCC_OscInitStruct->LSEState != RCC_LSE_OFF)
 80032c6:	68e3      	ldr	r3, [r4, #12]
 80032c8:	b333      	cbz	r3, 8003318 <HAL_RCC_OscConfig+0x2e4>
      tickstart = HAL_GetTick();
 80032ca:	f7ff f86f 	bl	80023ac <HAL_GetTick>
 80032ce:	4606      	mov	r6, r0
      while (__HAL_RCC_GET_FLAG(RCC_FLAG_LSERDY) == RESET)
 80032d0:	4b5a      	ldr	r3, [pc, #360]	@ (800343c <HAL_RCC_OscConfig+0x408>)
 80032d2:	6a1b      	ldr	r3, [r3, #32]
 80032d4:	f013 0f02 	tst.w	r3, #2
 80032d8:	d12f      	bne.n	800333a <HAL_RCC_OscConfig+0x306>
        if ((HAL_GetTick() - tickstart) > RCC_LSE_TIMEOUT_VALUE)
 80032da:	f7ff f867 	bl	80023ac <HAL_GetTick>
 80032de:	1b80      	subs	r0, r0, r6
 80032e0:	f241 3388 	movw	r3, #5000	@ 0x1388
 80032e4:	4298      	cmp	r0, r3
 80032e6:	d9f3      	bls.n	80032d0 <HAL_RCC_OscConfig+0x29c>
          return HAL_TIMEOUT;
 80032e8:	2003      	movs	r0, #3
 80032ea:	e09e      	b.n	800342a <HAL_RCC_OscConfig+0x3f6>
    __HAL_RCC_LSE_CONFIG(RCC_OscInitStruct->LSEState);
 80032ec:	2b05      	cmp	r3, #5
 80032ee:	d009      	beq.n	8003304 <HAL_RCC_OscConfig+0x2d0>
 80032f0:	4b52      	ldr	r3, [pc, #328]	@ (800343c <HAL_RCC_OscConfig+0x408>)
 80032f2:	6a1a      	ldr	r2, [r3, #32]
 80032f4:	f022 0201 	bic.w	r2, r2, #1
 80032f8:	621a      	str	r2, [r3, #32]
 80032fa:	6a1a      	ldr	r2, [r3, #32]
 80032fc:	f022 0204 	bic.w	r2, r2, #4
 8003300:	621a      	str	r2, [r3, #32]
 8003302:	e7e0      	b.n	80032c6 <HAL_RCC_OscConfig+0x292>
 8003304:	4b4d      	ldr	r3, [pc, #308]	@ (800343c <HAL_RCC_OscConfig+0x408>)
 8003306:	6a1a      	ldr	r2, [r3, #32]
 8003308:	f042 0204 	orr.w	r2, r2, #4
 800330c:	621a      	str	r2, [r3, #32]
 800330e:	6a1a      	ldr	r2, [r3, #32]
 8003310:	f042 0201 	orr.w	r2, r2, #1
 8003314:	621a      	str	r2, [r3, #32]
 8003316:	e7d6      	b.n	80032c6 <HAL_RCC_OscConfig+0x292>
      tickstart = HAL_GetTick();
 8003318:	f7ff f848 	bl	80023ac <HAL_GetTick>
 800331c:	4606      	mov	r6, r0
      while (__HAL_RCC_GET_FLAG(RCC_FLAG_LSERDY) != RESET)
 800331e:	4b47      	ldr	r3, [pc, #284]	@ (800343c <HAL_RCC_OscConfig+0x408>)
 8003320:	6a1b      	ldr	r3, [r3, #32]
 8003322:	f013 0f02 	tst.w	r3, #2
 8003326:	d008      	beq.n	800333a <HAL_RCC_OscConfig+0x306>
        if ((HAL_GetTick() - tickstart) > RCC_LSE_TIMEOUT_VALUE)
 8003328:	f7ff f840 	bl	80023ac <HAL_GetTick>
 800332c:	1b80      	subs	r0, r0, r6
 800332e:	f241 3388 	movw	r3, #5000	@ 0x1388
 8003332:	4298      	cmp	r0, r3
 8003334:	d9f3      	bls.n	800331e <HAL_RCC_OscConfig+0x2ea>
          return HAL_TIMEOUT;
 8003336:	2003      	movs	r0, #3
 8003338:	e077      	b.n	800342a <HAL_RCC_OscConfig+0x3f6>
    if (pwrclkchanged == SET)
 800333a:	b9e5      	cbnz	r5, 8003376 <HAL_RCC_OscConfig+0x342>
  if ((RCC_OscInitStruct->PLL.PLLState) != RCC_PLL_NONE)
 800333c:	69e3      	ldr	r3, [r4, #28]
 800333e:	2b00      	cmp	r3, #0
 8003340:	d072      	beq.n	8003428 <HAL_RCC_OscConfig+0x3f4>
    if (__HAL_RCC_GET_SYSCLK_SOURCE() != RCC_SYSCLKSOURCE_STATUS_PLLCLK)
 8003342:	4a3e      	ldr	r2, [pc, #248]	@ (800343c <HAL_RCC_OscConfig+0x408>)
 8003344:	6852      	ldr	r2, [r2, #4]
 8003346:	f002 020c 	and.w	r2, r2, #12
 800334a:	2a08      	cmp	r2, #8
 800334c:	d056      	beq.n	80033fc <HAL_RCC_OscConfig+0x3c8>
      if ((RCC_OscInitStruct->PLL.PLLState) == RCC_PLL_ON)
 800334e:	2b02      	cmp	r3, #2
 8003350:	d017      	beq.n	8003382 <HAL_RCC_OscConfig+0x34e>
        __HAL_RCC_PLL_DISABLE();
 8003352:	4b3b      	ldr	r3, [pc, #236]	@ (8003440 <HAL_RCC_OscConfig+0x40c>)
 8003354:	2200      	movs	r2, #0
 8003356:	661a      	str	r2, [r3, #96]	@ 0x60
        tickstart = HAL_GetTick();
 8003358:	f7ff f828 	bl	80023ac <HAL_GetTick>
 800335c:	4604      	mov	r4, r0
        while (__HAL_RCC_GET_FLAG(RCC_FLAG_PLLRDY)  != RESET)
 800335e:	4b37      	ldr	r3, [pc, #220]	@ (800343c <HAL_RCC_OscConfig+0x408>)
 8003360:	681b      	ldr	r3, [r3, #0]
 8003362:	f013 7f00 	tst.w	r3, #33554432	@ 0x2000000
 8003366:	d047      	beq.n	80033f8 <HAL_RCC_OscConfig+0x3c4>
          if ((HAL_GetTick() - tickstart) > PLL_TIMEOUT_VALUE)
 8003368:	f7ff f820 	bl	80023ac <HAL_GetTick>
 800336c:	1b00      	subs	r0, r0, r4
 800336e:	2802      	cmp	r0, #2
 8003370:	d9f5      	bls.n	800335e <HAL_RCC_OscConfig+0x32a>
            return HAL_TIMEOUT;
 8003372:	2003      	movs	r0, #3
 8003374:	e059      	b.n	800342a <HAL_RCC_OscConfig+0x3f6>
      __HAL_RCC_PWR_CLK_DISABLE();
 8003376:	4a31      	ldr	r2, [pc, #196]	@ (800343c <HAL_RCC_OscConfig+0x408>)
 8003378:	69d3      	ldr	r3, [r2, #28]
 800337a:	f023 5380 	bic.w	r3, r3, #268435456	@ 0x10000000
 800337e:	61d3      	str	r3, [r2, #28]
 8003380:	e7dc      	b.n	800333c <HAL_RCC_OscConfig+0x308>
        __HAL_RCC_PLL_DISABLE();
 8003382:	4b2f      	ldr	r3, [pc, #188]	@ (8003440 <HAL_RCC_OscConfig+0x40c>)
 8003384:	2200      	movs	r2, #0
 8003386:	661a      	str	r2, [r3, #96]	@ 0x60
        tickstart = HAL_GetTick();
 8003388:	f7ff f810 	bl	80023ac <HAL_GetTick>
 800338c:	4605      	mov	r5, r0
        while (__HAL_RCC_GET_FLAG(RCC_FLAG_PLLRDY)  != RESET)
 800338e:	4b2b      	ldr	r3, [pc, #172]	@ (800343c <HAL_RCC_OscConfig+0x408>)
 8003390:	681b      	ldr	r3, [r3, #0]
 8003392:	f013 7f00 	tst.w	r3, #33554432	@ 0x2000000
 8003396:	d006      	beq.n	80033a6 <HAL_RCC_OscConfig+0x372>
          if ((HAL_GetTick() - tickstart) > PLL_TIMEOUT_VALUE)
 8003398:	f7ff f808 	bl	80023ac <HAL_GetTick>
 800339c:	1b40      	subs	r0, r0, r5
 800339e:	2802      	cmp	r0, #2
 80033a0:	d9f5      	bls.n	800338e <HAL_RCC_OscConfig+0x35a>
            return HAL_TIMEOUT;
 80033a2:	2003      	movs	r0, #3
 80033a4:	e041      	b.n	800342a <HAL_RCC_OscConfig+0x3f6>
        if (RCC_OscInitStruct->PLL.PLLSource == RCC_PLLSOURCE_HSE)
 80033a6:	6a23      	ldr	r3, [r4, #32]
 80033a8:	f5b3 3f80 	cmp.w	r3, #65536	@ 0x10000
 80033ac:	d01a      	beq.n	80033e4 <HAL_RCC_OscConfig+0x3b0>
        __HAL_RCC_PLL_CONFIG(RCC_OscInitStruct->PLL.PLLSource,
 80033ae:	4923      	ldr	r1, [pc, #140]	@ (800343c <HAL_RCC_OscConfig+0x408>)
 80033b0:	684b      	ldr	r3, [r1, #4]
 80033b2:	f423 1374 	bic.w	r3, r3, #3997696	@ 0x3d0000
 80033b6:	6a22      	ldr	r2, [r4, #32]
 80033b8:	6a60      	ldr	r0, [r4, #36]	@ 0x24
 80033ba:	4302      	orrs	r2, r0
 80033bc:	4313      	orrs	r3, r2
 80033be:	604b      	str	r3, [r1, #4]
        __HAL_RCC_PLL_ENABLE();
 80033c0:	4b1f      	ldr	r3, [pc, #124]	@ (8003440 <HAL_RCC_OscConfig+0x40c>)
 80033c2:	2201      	movs	r2, #1
 80033c4:	661a      	str	r2, [r3, #96]	@ 0x60
        tickstart = HAL_GetTick();
 80033c6:	f7fe fff1 	bl	80023ac <HAL_GetTick>
 80033ca:	4604      	mov	r4, r0
        while (__HAL_RCC_GET_FLAG(RCC_FLAG_PLLRDY)  == RESET)
 80033cc:	4b1b      	ldr	r3, [pc, #108]	@ (800343c <HAL_RCC_OscConfig+0x408>)
 80033ce:	681b      	ldr	r3, [r3, #0]
 80033d0:	f013 7f00 	tst.w	r3, #33554432	@ 0x2000000
 80033d4:	d10e      	bne.n	80033f4 <HAL_RCC_OscConfig+0x3c0>
          if ((HAL_GetTick() - tickstart) > PLL_TIMEOUT_VALUE)
 80033d6:	f7fe ffe9 	bl	80023ac <HAL_GetTick>
 80033da:	1b00      	subs	r0, r0, r4
 80033dc:	2802      	cmp	r0, #2
 80033de:	d9f5      	bls.n	80033cc <HAL_RCC_OscConfig+0x398>
            return HAL_TIMEOUT;
 80033e0:	2003      	movs	r0, #3
 80033e2:	e022      	b.n	800342a <HAL_RCC_OscConfig+0x3f6>
          __HAL_RCC_HSE_PREDIV_CONFIG(RCC_OscInitStruct->HSEPredivValue);
 80033e4:	4a15      	ldr	r2, [pc, #84]	@ (800343c <HAL_RCC_OscConfig+0x408>)
 80033e6:	6853      	ldr	r3, [r2, #4]
 80033e8:	f423 3300 	bic.w	r3, r3, #131072	@ 0x20000
 80033ec:	68a1      	ldr	r1, [r4, #8]
 80033ee:	430b      	orrs	r3, r1
 80033f0:	6053      	str	r3, [r2, #4]
 80033f2:	e7dc      	b.n	80033ae <HAL_RCC_OscConfig+0x37a>
  return HAL_OK;
 80033f4:	2000      	movs	r0, #0
 80033f6:	e018      	b.n	800342a <HAL_RCC_OscConfig+0x3f6>
 80033f8:	2000      	movs	r0, #0
 80033fa:	e016      	b.n	800342a <HAL_RCC_OscConfig+0x3f6>
      if ((RCC_OscInitStruct->PLL.PLLState) == RCC_PLL_OFF)
 80033fc:	2b01      	cmp	r3, #1
 80033fe:	d016      	beq.n	800342e <HAL_RCC_OscConfig+0x3fa>
        pll_config = RCC->CFGR;
 8003400:	4b0e      	ldr	r3, [pc, #56]	@ (800343c <HAL_RCC_OscConfig+0x408>)
 8003402:	685b      	ldr	r3, [r3, #4]
        if ((READ_BIT(pll_config, RCC_CFGR_PLLSRC) != RCC_OscInitStruct->PLL.PLLSource) ||
 8003404:	f403 3180 	and.w	r1, r3, #65536	@ 0x10000
 8003408:	6a22      	ldr	r2, [r4, #32]
 800340a:	4291      	cmp	r1, r2
 800340c:	d111      	bne.n	8003432 <HAL_RCC_OscConfig+0x3fe>
            (READ_BIT(pll_config, RCC_CFGR_PLLMULL) != RCC_OscInitStruct->PLL.PLLMUL))
 800340e:	f403 1370 	and.w	r3, r3, #3932160	@ 0x3c0000
 8003412:	6a62      	ldr	r2, [r4, #36]	@ 0x24
        if ((READ_BIT(pll_config, RCC_CFGR_PLLSRC) != RCC_OscInitStruct->PLL.PLLSource) ||
 8003414:	4293      	cmp	r3, r2
 8003416:	d10e      	bne.n	8003436 <HAL_RCC_OscConfig+0x402>
  return HAL_OK;
 8003418:	2000      	movs	r0, #0
 800341a:	e006      	b.n	800342a <HAL_RCC_OscConfig+0x3f6>
    return HAL_ERROR;
 800341c:	2001      	movs	r0, #1
}
 800341e:	4770      	bx	lr
        return HAL_ERROR;
 8003420:	2001      	movs	r0, #1
 8003422:	e002      	b.n	800342a <HAL_RCC_OscConfig+0x3f6>
        return HAL_ERROR;
 8003424:	2001      	movs	r0, #1
 8003426:	e000      	b.n	800342a <HAL_RCC_OscConfig+0x3f6>
  return HAL_OK;
 8003428:	2000      	movs	r0, #0
}
 800342a:	b002      	add	sp, #8
 800342c:	bd70      	pop	{r4, r5, r6, pc}
        return HAL_ERROR;
 800342e:	2001      	movs	r0, #1
 8003430:	e7fb      	b.n	800342a <HAL_RCC_OscConfig+0x3f6>
          return HAL_ERROR;
 8003432:	2001      	movs	r0, #1
 8003434:	e7f9      	b.n	800342a <HAL_RCC_OscConfig+0x3f6>
 8003436:	2001      	movs	r0, #1
 8003438:	e7f7      	b.n	800342a <HAL_RCC_OscConfig+0x3f6>
 800343a:	bf00      	nop
 800343c:	40021000 	.word	0x40021000
 8003440:	42420000 	.word	0x42420000

08003444 <HAL_RCC_GetSysClockFreq>:
  tmpreg = RCC->CFGR;
 8003444:	4b0f      	ldr	r3, [pc, #60]	@ (8003484 <HAL_RCC_GetSysClockFreq+0x40>)
 8003446:	685b      	ldr	r3, [r3, #4]
  switch (tmpreg & RCC_CFGR_SWS)
 8003448:	f003 020c 	and.w	r2, r3, #12
 800344c:	2a08      	cmp	r2, #8
 800344e:	d001      	beq.n	8003454 <HAL_RCC_GetSysClockFreq+0x10>
      sysclockfreq = HSE_VALUE;
 8003450:	480d      	ldr	r0, [pc, #52]	@ (8003488 <HAL_RCC_GetSysClockFreq+0x44>)
}
 8003452:	4770      	bx	lr
      pllmul = aPLLMULFactorTable[(uint32_t)(tmpreg & RCC_CFGR_PLLMULL) >> RCC_CFGR_PLLMULL_Pos];
 8003454:	f3c3 4283 	ubfx	r2, r3, #18, #4
 8003458:	490c      	ldr	r1, [pc, #48]	@ (800348c <HAL_RCC_GetSysClockFreq+0x48>)
 800345a:	5c88      	ldrb	r0, [r1, r2]
      if ((tmpreg & RCC_CFGR_PLLSRC) != RCC_PLLSOURCE_HSI_DIV2)
 800345c:	f413 3f80 	tst.w	r3, #65536	@ 0x10000
 8003460:	d00b      	beq.n	800347a <HAL_RCC_GetSysClockFreq+0x36>
        prediv = aPredivFactorTable[(uint32_t)(RCC->CFGR & RCC_CFGR_PLLXTPRE) >> RCC_CFGR_PLLXTPRE_Pos];
 8003462:	4b08      	ldr	r3, [pc, #32]	@ (8003484 <HAL_RCC_GetSysClockFreq+0x40>)
 8003464:	685b      	ldr	r3, [r3, #4]
 8003466:	f3c3 4340 	ubfx	r3, r3, #17, #1
 800346a:	4a09      	ldr	r2, [pc, #36]	@ (8003490 <HAL_RCC_GetSysClockFreq+0x4c>)
 800346c:	5cd3      	ldrb	r3, [r2, r3]
        pllclk = (uint32_t)((HSE_VALUE  * pllmul) / prediv);
 800346e:	4a06      	ldr	r2, [pc, #24]	@ (8003488 <HAL_RCC_GetSysClockFreq+0x44>)
 8003470:	fb02 f000 	mul.w	r0, r2, r0
 8003474:	fbb0 f0f3 	udiv	r0, r0, r3
 8003478:	4770      	bx	lr
        pllclk = (uint32_t)((HSI_VALUE >> 1) * pllmul);
 800347a:	4b06      	ldr	r3, [pc, #24]	@ (8003494 <HAL_RCC_GetSysClockFreq+0x50>)
 800347c:	fb03 f000 	mul.w	r0, r3, r0
 8003480:	4770      	bx	lr
 8003482:	bf00      	nop
 8003484:	40021000 	.word	0x40021000
 8003488:	007a1200 	.word	0x007a1200
 800348c:	08005268 	.word	0x08005268
 8003490:	08005264 	.word	0x08005264
 8003494:	003d0900 	.word	0x003d0900

08003498 <HAL_RCC_ClockConfig>:
  if (RCC_ClkInitStruct == NULL)
 8003498:	2800      	cmp	r0, #0
 800349a:	f000 80a0 	beq.w	80035de <HAL_RCC_ClockConfig+0x146>
{
 800349e:	b570      	push	{r4, r5, r6, lr}
 80034a0:	460d      	mov	r5, r1
 80034a2:	4604      	mov	r4, r0
  if (FLatency > __HAL_FLASH_GET_LATENCY())
 80034a4:	4b52      	ldr	r3, [pc, #328]	@ (80035f0 <HAL_RCC_ClockConfig+0x158>)
 80034a6:	681b      	ldr	r3, [r3, #0]
 80034a8:	f003 0307 	and.w	r3, r3, #7
 80034ac:	428b      	cmp	r3, r1
 80034ae:	d20b      	bcs.n	80034c8 <HAL_RCC_ClockConfig+0x30>
    __HAL_FLASH_SET_LATENCY(FLatency);
 80034b0:	4a4f      	ldr	r2, [pc, #316]	@ (80035f0 <HAL_RCC_ClockConfig+0x158>)
 80034b2:	6813      	ldr	r3, [r2, #0]
 80034b4:	f023 0307 	bic.w	r3, r3, #7
 80034b8:	430b      	orrs	r3, r1
 80034ba:	6013      	str	r3, [r2, #0]
    if (__HAL_FLASH_GET_LATENCY() != FLatency)
 80034bc:	6813      	ldr	r3, [r2, #0]
 80034be:	f003 0307 	and.w	r3, r3, #7
 80034c2:	428b      	cmp	r3, r1
 80034c4:	f040 808d 	bne.w	80035e2 <HAL_RCC_ClockConfig+0x14a>
if (((RCC_ClkInitStruct->ClockType) & RCC_CLOCKTYPE_HCLK) == RCC_CLOCKTYPE_HCLK)
 80034c8:	6823      	ldr	r3, [r4, #0]
 80034ca:	f013 0f02 	tst.w	r3, #2
 80034ce:	d017      	beq.n	8003500 <HAL_RCC_ClockConfig+0x68>
    if (((RCC_ClkInitStruct->ClockType) & RCC_CLOCKTYPE_PCLK1) == RCC_CLOCKTYPE_PCLK1)
 80034d0:	f013 0f04 	tst.w	r3, #4
 80034d4:	d004      	beq.n	80034e0 <HAL_RCC_ClockConfig+0x48>
      MODIFY_REG(RCC->CFGR, RCC_CFGR_PPRE1, RCC_HCLK_DIV16);
 80034d6:	4a47      	ldr	r2, [pc, #284]	@ (80035f4 <HAL_RCC_ClockConfig+0x15c>)
 80034d8:	6853      	ldr	r3, [r2, #4]
 80034da:	f443 63e0 	orr.w	r3, r3, #1792	@ 0x700
 80034de:	6053      	str	r3, [r2, #4]
    if (((RCC_ClkInitStruct->ClockType) & RCC_CLOCKTYPE_PCLK2) == RCC_CLOCKTYPE_PCLK2)
 80034e0:	6823      	ldr	r3, [r4, #0]
 80034e2:	f013 0f08 	tst.w	r3, #8
 80034e6:	d004      	beq.n	80034f2 <HAL_RCC_ClockConfig+0x5a>
      MODIFY_REG(RCC->CFGR, RCC_CFGR_PPRE2, (RCC_HCLK_DIV16 << 3));
 80034e8:	4a42      	ldr	r2, [pc, #264]	@ (80035f4 <HAL_RCC_ClockConfig+0x15c>)
 80034ea:	6853      	ldr	r3, [r2, #4]
 80034ec:	f443 5360 	orr.w	r3, r3, #14336	@ 0x3800
 80034f0:	6053      	str	r3, [r2, #4]
    MODIFY_REG(RCC->CFGR, RCC_CFGR_HPRE, RCC_ClkInitStruct->AHBCLKDivider);
 80034f2:	4a40      	ldr	r2, [pc, #256]	@ (80035f4 <HAL_RCC_ClockConfig+0x15c>)
 80034f4:	6853      	ldr	r3, [r2, #4]
 80034f6:	f023 03f0 	bic.w	r3, r3, #240	@ 0xf0
 80034fa:	68a1      	ldr	r1, [r4, #8]
 80034fc:	430b      	orrs	r3, r1
 80034fe:	6053      	str	r3, [r2, #4]
  if (((RCC_ClkInitStruct->ClockType) & RCC_CLOCKTYPE_SYSCLK) == RCC_CLOCKTYPE_SYSCLK)
 8003500:	6823      	ldr	r3, [r4, #0]
 8003502:	f013 0f01 	tst.w	r3, #1
 8003506:	d031      	beq.n	800356c <HAL_RCC_ClockConfig+0xd4>
    if (RCC_ClkInitStruct->SYSCLKSource == RCC_SYSCLKSOURCE_HSE)
 8003508:	6863      	ldr	r3, [r4, #4]
 800350a:	2b01      	cmp	r3, #1
 800350c:	d020      	beq.n	8003550 <HAL_RCC_ClockConfig+0xb8>
    else if (RCC_ClkInitStruct->SYSCLKSource == RCC_SYSCLKSOURCE_PLLCLK)
 800350e:	2b02      	cmp	r3, #2
 8003510:	d025      	beq.n	800355e <HAL_RCC_ClockConfig+0xc6>
      if (__HAL_RCC_GET_FLAG(RCC_FLAG_HSIRDY) == RESET)
 8003512:	4a38      	ldr	r2, [pc, #224]	@ (80035f4 <HAL_RCC_ClockConfig+0x15c>)
 8003514:	6812      	ldr	r2, [r2, #0]
 8003516:	f012 0f02 	tst.w	r2, #2
 800351a:	d064      	beq.n	80035e6 <HAL_RCC_ClockConfig+0x14e>
    __HAL_RCC_SYSCLK_CONFIG(RCC_ClkInitStruct->SYSCLKSource);
 800351c:	4935      	ldr	r1, [pc, #212]	@ (80035f4 <HAL_RCC_ClockConfig+0x15c>)
 800351e:	684a      	ldr	r2, [r1, #4]
 8003520:	f022 0203 	bic.w	r2, r2, #3
 8003524:	4313      	orrs	r3, r2
 8003526:	604b      	str	r3, [r1, #4]
    tickstart = HAL_GetTick();
 8003528:	f7fe ff40 	bl	80023ac <HAL_GetTick>
 800352c:	4606      	mov	r6, r0
    while (__HAL_RCC_GET_SYSCLK_SOURCE() != (RCC_ClkInitStruct->SYSCLKSource << RCC_CFGR_SWS_Pos))
 800352e:	4b31      	ldr	r3, [pc, #196]	@ (80035f4 <HAL_RCC_ClockConfig+0x15c>)
 8003530:	685b      	ldr	r3, [r3, #4]
 8003532:	f003 030c 	and.w	r3, r3, #12
 8003536:	6862      	ldr	r2, [r4, #4]
 8003538:	ebb3 0f82 	cmp.w	r3, r2, lsl #2
 800353c:	d016      	beq.n	800356c <HAL_RCC_ClockConfig+0xd4>
      if ((HAL_GetTick() - tickstart) > CLOCKSWITCH_TIMEOUT_VALUE)
 800353e:	f7fe ff35 	bl	80023ac <HAL_GetTick>
 8003542:	1b80      	subs	r0, r0, r6
 8003544:	f241 3388 	movw	r3, #5000	@ 0x1388
 8003548:	4298      	cmp	r0, r3
 800354a:	d9f0      	bls.n	800352e <HAL_RCC_ClockConfig+0x96>
        return HAL_TIMEOUT;
 800354c:	2003      	movs	r0, #3
 800354e:	e045      	b.n	80035dc <HAL_RCC_ClockConfig+0x144>
      if (__HAL_RCC_GET_FLAG(RCC_FLAG_HSERDY) == RESET)
 8003550:	4a28      	ldr	r2, [pc, #160]	@ (80035f4 <HAL_RCC_ClockConfig+0x15c>)
 8003552:	6812      	ldr	r2, [r2, #0]
 8003554:	f412 3f00 	tst.w	r2, #131072	@ 0x20000
 8003558:	d1e0      	bne.n	800351c <HAL_RCC_ClockConfig+0x84>
        return HAL_ERROR;
 800355a:	2001      	movs	r0, #1
 800355c:	e03e      	b.n	80035dc <HAL_RCC_ClockConfig+0x144>
      if (__HAL_RCC_GET_FLAG(RCC_FLAG_PLLRDY) == RESET)
 800355e:	4a25      	ldr	r2, [pc, #148]	@ (80035f4 <HAL_RCC_ClockConfig+0x15c>)
 8003560:	6812      	ldr	r2, [r2, #0]
 8003562:	f012 7f00 	tst.w	r2, #33554432	@ 0x2000000
 8003566:	d1d9      	bne.n	800351c <HAL_RCC_ClockConfig+0x84>
        return HAL_ERROR;
 8003568:	2001      	movs	r0, #1
 800356a:	e037      	b.n	80035dc <HAL_RCC_ClockConfig+0x144>
  if (FLatency < __HAL_FLASH_GET_LATENCY())
 800356c:	4b20      	ldr	r3, [pc, #128]	@ (80035f0 <HAL_RCC_ClockConfig+0x158>)
 800356e:	681b      	ldr	r3, [r3, #0]
 8003570:	f003 0307 	and.w	r3, r3, #7
 8003574:	42ab      	cmp	r3, r5
 8003576:	d90a      	bls.n	800358e <HAL_RCC_ClockConfig+0xf6>
    __HAL_FLASH_SET_LATENCY(FLatency);
 8003578:	4a1d      	ldr	r2, [pc, #116]	@ (80035f0 <HAL_RCC_ClockConfig+0x158>)
 800357a:	6813      	ldr	r3, [r2, #0]
 800357c:	f023 0307 	bic.w	r3, r3, #7
 8003580:	432b      	orrs	r3, r5
 8003582:	6013      	str	r3, [r2, #0]
    if (__HAL_FLASH_GET_LATENCY() != FLatency)
 8003584:	6813      	ldr	r3, [r2, #0]
 8003586:	f003 0307 	and.w	r3, r3, #7
 800358a:	42ab      	cmp	r3, r5
 800358c:	d12d      	bne.n	80035ea <HAL_RCC_ClockConfig+0x152>
if (((RCC_ClkInitStruct->ClockType) & RCC_CLOCKTYPE_PCLK1) == RCC_CLOCKTYPE_PCLK1)
 800358e:	6823      	ldr	r3, [r4, #0]
 8003590:	f013 0f04 	tst.w	r3, #4
 8003594:	d006      	beq.n	80035a4 <HAL_RCC_ClockConfig+0x10c>
    MODIFY_REG(RCC->CFGR, RCC_CFGR_PPRE1, RCC_ClkInitStruct->APB1CLKDivider);
 8003596:	4a17      	ldr	r2, [pc, #92]	@ (80035f4 <HAL_RCC_ClockConfig+0x15c>)
 8003598:	6853      	ldr	r3, [r2, #4]
 800359a:	f423 63e0 	bic.w	r3, r3, #1792	@ 0x700
 800359e:	68e1      	ldr	r1, [r4, #12]
 80035a0:	430b      	orrs	r3, r1
 80035a2:	6053      	str	r3, [r2, #4]
  if (((RCC_ClkInitStruct->ClockType) & RCC_CLOCKTYPE_PCLK2) == RCC_CLOCKTYPE_PCLK2)
 80035a4:	6823      	ldr	r3, [r4, #0]
 80035a6:	f013 0f08 	tst.w	r3, #8
 80035aa:	d007      	beq.n	80035bc <HAL_RCC_ClockConfig+0x124>
    MODIFY_REG(RCC->CFGR, RCC_CFGR_PPRE2, ((RCC_ClkInitStruct->APB2CLKDivider) << 3));
 80035ac:	4a11      	ldr	r2, [pc, #68]	@ (80035f4 <HAL_RCC_ClockConfig+0x15c>)
 80035ae:	6853      	ldr	r3, [r2, #4]
 80035b0:	f423 5360 	bic.w	r3, r3, #14336	@ 0x3800
 80035b4:	6921      	ldr	r1, [r4, #16]
 80035b6:	ea43 03c1 	orr.w	r3, r3, r1, lsl #3
 80035ba:	6053      	str	r3, [r2, #4]
  SystemCoreClock = HAL_RCC_GetSysClockFreq() >> AHBPrescTable[(RCC->CFGR & RCC_CFGR_HPRE) >> RCC_CFGR_HPRE_Pos];
 80035bc:	f7ff ff42 	bl	8003444 <HAL_RCC_GetSysClockFreq>
 80035c0:	4b0c      	ldr	r3, [pc, #48]	@ (80035f4 <HAL_RCC_ClockConfig+0x15c>)
 80035c2:	685b      	ldr	r3, [r3, #4]
 80035c4:	f3c3 1303 	ubfx	r3, r3, #4, #4
 80035c8:	4a0b      	ldr	r2, [pc, #44]	@ (80035f8 <HAL_RCC_ClockConfig+0x160>)
 80035ca:	5cd3      	ldrb	r3, [r2, r3]
 80035cc:	40d8      	lsrs	r0, r3
 80035ce:	4b0b      	ldr	r3, [pc, #44]	@ (80035fc <HAL_RCC_ClockConfig+0x164>)
 80035d0:	6018      	str	r0, [r3, #0]
  HAL_InitTick(uwTickPrio);
 80035d2:	4b0b      	ldr	r3, [pc, #44]	@ (8003600 <HAL_RCC_ClockConfig+0x168>)
 80035d4:	6818      	ldr	r0, [r3, #0]
 80035d6:	f7fe fea5 	bl	8002324 <HAL_InitTick>
  return HAL_OK;
 80035da:	2000      	movs	r0, #0
}
 80035dc:	bd70      	pop	{r4, r5, r6, pc}
    return HAL_ERROR;
 80035de:	2001      	movs	r0, #1
}
 80035e0:	4770      	bx	lr
    return HAL_ERROR;
 80035e2:	2001      	movs	r0, #1
 80035e4:	e7fa      	b.n	80035dc <HAL_RCC_ClockConfig+0x144>
        return HAL_ERROR;
 80035e6:	2001      	movs	r0, #1
 80035e8:	e7f8      	b.n	80035dc <HAL_RCC_ClockConfig+0x144>
    return HAL_ERROR;
 80035ea:	2001      	movs	r0, #1
 80035ec:	e7f6      	b.n	80035dc <HAL_RCC_ClockConfig+0x144>
 80035ee:	bf00      	nop
 80035f0:	40022000 	.word	0x40022000
 80035f4:	40021000 	.word	0x40021000
 80035f8:	08005254 	.word	0x08005254
 80035fc:	200000a0 	.word	0x200000a0
 8003600:	200000a8 	.word	0x200000a8

08003604 <HAL_RCC_GetHCLKFreq>:
}
 8003604:	4b01      	ldr	r3, [pc, #4]	@ (800360c <HAL_RCC_GetHCLKFreq+0x8>)
 8003606:	6818      	ldr	r0, [r3, #0]
 8003608:	4770      	bx	lr
 800360a:	bf00      	nop
 800360c:	200000a0 	.word	0x200000a0

08003610 <HAL_RCC_GetPCLK1Freq>:
{
 8003610:	b508      	push	{r3, lr}
  return (HAL_RCC_GetHCLKFreq() >> APBPrescTable[(RCC->CFGR & RCC_CFGR_PPRE1) >> RCC_CFGR_PPRE1_Pos]);
 8003612:	f7ff fff7 	bl	8003604 <HAL_RCC_GetHCLKFreq>
 8003616:	4b04      	ldr	r3, [pc, #16]	@ (8003628 <HAL_RCC_GetPCLK1Freq+0x18>)
 8003618:	685b      	ldr	r3, [r3, #4]
 800361a:	f3c3 2302 	ubfx	r3, r3, #8, #3
 800361e:	4a03      	ldr	r2, [pc, #12]	@ (800362c <HAL_RCC_GetPCLK1Freq+0x1c>)
 8003620:	5cd3      	ldrb	r3, [r2, r3]
}
 8003622:	40d8      	lsrs	r0, r3
 8003624:	bd08      	pop	{r3, pc}
 8003626:	bf00      	nop
 8003628:	40021000 	.word	0x40021000
 800362c:	0800524c 	.word	0x0800524c

08003630 <HAL_RCC_GetPCLK2Freq>:
{
 8003630:	b508      	push	{r3, lr}
  return (HAL_RCC_GetHCLKFreq() >> APBPrescTable[(RCC->CFGR & RCC_CFGR_PPRE2) >> RCC_CFGR_PPRE2_Pos]);
 8003632:	f7ff ffe7 	bl	8003604 <HAL_RCC_GetHCLKFreq>
 8003636:	4b04      	ldr	r3, [pc, #16]	@ (8003648 <HAL_RCC_GetPCLK2Freq+0x18>)
 8003638:	685b      	ldr	r3, [r3, #4]
 800363a:	f3c3 23c2 	ubfx	r3, r3, #11, #3
 800363e:	4a03      	ldr	r2, [pc, #12]	@ (800364c <HAL_RCC_GetPCLK2Freq+0x1c>)
 8003640:	5cd3      	ldrb	r3, [r2, r3]
}
 8003642:	40d8      	lsrs	r0, r3
 8003644:	bd08      	pop	{r3, pc}
 8003646:	bf00      	nop
 8003648:	40021000 	.word	0x40021000
 800364c:	0800524c 	.word	0x0800524c

08003650 <HAL_RCCEx_PeriphCLKConfig>:
  *         manually disable it.
  *
  * @retval HAL status
  */
HAL_StatusTypeDef HAL_RCCEx_PeriphCLKConfig(RCC_PeriphCLKInitTypeDef  *PeriphClkInit)
{
 8003650:	b570      	push	{r4, r5, r6, lr}
 8003652:	b082      	sub	sp, #8
 8003654:	4604      	mov	r4, r0

  /* Check the parameters */
  assert_param(IS_RCC_PERIPHCLOCK(PeriphClkInit->PeriphClockSelection));

  /*------------------------------- RTC/LCD Configuration ------------------------*/
  if ((((PeriphClkInit->PeriphClockSelection) & RCC_PERIPHCLK_RTC) == RCC_PERIPHCLK_RTC))
 8003656:	6803      	ldr	r3, [r0, #0]
 8003658:	f013 0f01 	tst.w	r3, #1
 800365c:	d036      	beq.n	80036cc <HAL_RCCEx_PeriphCLKConfig+0x7c>
    assert_param(IS_RCC_RTCCLKSOURCE(PeriphClkInit->RTCClockSelection));

    /* As soon as function is called to change RTC clock source, activation of the
       power domain is done. */
    /* Requires to enable write access to Backup Domain of necessary */
    if (__HAL_RCC_PWR_IS_CLK_DISABLED())
 800365e:	4b3f      	ldr	r3, [pc, #252]	@ (800375c <HAL_RCCEx_PeriphCLKConfig+0x10c>)
 8003660:	69db      	ldr	r3, [r3, #28]
 8003662:	f013 5f80 	tst.w	r3, #268435456	@ 0x10000000
 8003666:	d149      	bne.n	80036fc <HAL_RCCEx_PeriphCLKConfig+0xac>
    {
      __HAL_RCC_PWR_CLK_ENABLE();
 8003668:	4b3c      	ldr	r3, [pc, #240]	@ (800375c <HAL_RCCEx_PeriphCLKConfig+0x10c>)
 800366a:	69da      	ldr	r2, [r3, #28]
 800366c:	f042 5280 	orr.w	r2, r2, #268435456	@ 0x10000000
 8003670:	61da      	str	r2, [r3, #28]
 8003672:	69db      	ldr	r3, [r3, #28]
 8003674:	f003 5380 	and.w	r3, r3, #268435456	@ 0x10000000
 8003678:	9301      	str	r3, [sp, #4]
 800367a:	9b01      	ldr	r3, [sp, #4]
      pwrclkchanged = SET;
 800367c:	2501      	movs	r5, #1
    }

    if (HAL_IS_BIT_CLR(PWR->CR, PWR_CR_DBP))
 800367e:	4b38      	ldr	r3, [pc, #224]	@ (8003760 <HAL_RCCEx_PeriphCLKConfig+0x110>)
 8003680:	681b      	ldr	r3, [r3, #0]
 8003682:	f413 7f80 	tst.w	r3, #256	@ 0x100
 8003686:	d03b      	beq.n	8003700 <HAL_RCCEx_PeriphCLKConfig+0xb0>
        }
      }
    }

    /* Reset the Backup domain only if the RTC Clock source selection is modified from reset value */
    temp_reg = (RCC->BDCR & RCC_BDCR_RTCSEL);
 8003688:	4b34      	ldr	r3, [pc, #208]	@ (800375c <HAL_RCCEx_PeriphCLKConfig+0x10c>)
 800368a:	6a1b      	ldr	r3, [r3, #32]
    if ((temp_reg != 0x00000000U) && (temp_reg != (PeriphClkInit->RTCClockSelection & RCC_BDCR_RTCSEL)))
 800368c:	f413 7340 	ands.w	r3, r3, #768	@ 0x300
 8003690:	d013      	beq.n	80036ba <HAL_RCCEx_PeriphCLKConfig+0x6a>
 8003692:	6862      	ldr	r2, [r4, #4]
 8003694:	f402 7240 	and.w	r2, r2, #768	@ 0x300
 8003698:	429a      	cmp	r2, r3
 800369a:	d00e      	beq.n	80036ba <HAL_RCCEx_PeriphCLKConfig+0x6a>
    {
      /* Store the content of BDCR register before the reset of Backup Domain */
      temp_reg = (RCC->BDCR & ~(RCC_BDCR_RTCSEL));
 800369c:	4a2f      	ldr	r2, [pc, #188]	@ (800375c <HAL_RCCEx_PeriphCLKConfig+0x10c>)
 800369e:	6a13      	ldr	r3, [r2, #32]
 80036a0:	f423 7040 	bic.w	r0, r3, #768	@ 0x300
      /* RTC Clock selection can be changed only if the Backup Domain is reset */
      __HAL_RCC_BACKUPRESET_FORCE();
 80036a4:	492f      	ldr	r1, [pc, #188]	@ (8003764 <HAL_RCCEx_PeriphCLKConfig+0x114>)
 80036a6:	2601      	movs	r6, #1
 80036a8:	f8c1 6440 	str.w	r6, [r1, #1088]	@ 0x440
      __HAL_RCC_BACKUPRESET_RELEASE();
 80036ac:	2600      	movs	r6, #0
 80036ae:	f8c1 6440 	str.w	r6, [r1, #1088]	@ 0x440
      /* Restore the Content of BDCR register */
      RCC->BDCR = temp_reg;
 80036b2:	6210      	str	r0, [r2, #32]

      /* Wait for LSERDY if LSE was enabled */
      if (HAL_IS_BIT_SET(temp_reg, RCC_BDCR_LSEON))
 80036b4:	f013 0f01 	tst.w	r3, #1
 80036b8:	d136      	bne.n	8003728 <HAL_RCCEx_PeriphCLKConfig+0xd8>
            return HAL_TIMEOUT;
          }
        }
      }
    }
    __HAL_RCC_RTC_CONFIG(PeriphClkInit->RTCClockSelection);
 80036ba:	4a28      	ldr	r2, [pc, #160]	@ (800375c <HAL_RCCEx_PeriphCLKConfig+0x10c>)
 80036bc:	6a13      	ldr	r3, [r2, #32]
 80036be:	f423 7340 	bic.w	r3, r3, #768	@ 0x300
 80036c2:	6861      	ldr	r1, [r4, #4]
 80036c4:	430b      	orrs	r3, r1
 80036c6:	6213      	str	r3, [r2, #32]

    /* Require to disable power clock if necessary */
    if (pwrclkchanged == SET)
 80036c8:	2d00      	cmp	r5, #0
 80036ca:	d13e      	bne.n	800374a <HAL_RCCEx_PeriphCLKConfig+0xfa>
      __HAL_RCC_PWR_CLK_DISABLE();
    }
  }

  /*------------------------------ ADC clock Configuration ------------------*/
  if (((PeriphClkInit->PeriphClockSelection) & RCC_PERIPHCLK_ADC) == RCC_PERIPHCLK_ADC)
 80036cc:	6823      	ldr	r3, [r4, #0]
 80036ce:	f013 0f02 	tst.w	r3, #2
 80036d2:	d006      	beq.n	80036e2 <HAL_RCCEx_PeriphCLKConfig+0x92>
  {
    /* Check the parameters */
    assert_param(IS_RCC_ADCPLLCLK_DIV(PeriphClkInit->AdcClockSelection));

    /* Configure the ADC clock source */
    __HAL_RCC_ADC_CONFIG(PeriphClkInit->AdcClockSelection);
 80036d4:	4a21      	ldr	r2, [pc, #132]	@ (800375c <HAL_RCCEx_PeriphCLKConfig+0x10c>)
 80036d6:	6853      	ldr	r3, [r2, #4]
 80036d8:	f423 4340 	bic.w	r3, r3, #49152	@ 0xc000
 80036dc:	68a1      	ldr	r1, [r4, #8]
 80036de:	430b      	orrs	r3, r1
 80036e0:	6053      	str	r3, [r2, #4]

#if defined(STM32F102x6) || defined(STM32F102xB) || defined(STM32F103x6)\
 || defined(STM32F103xB) || defined(STM32F103xE) || defined(STM32F103xG)\
 || defined(STM32F105xC) || defined(STM32F107xC)
  /*------------------------------ USB clock Configuration ------------------*/
  if (((PeriphClkInit->PeriphClockSelection) & RCC_PERIPHCLK_USB) == RCC_PERIPHCLK_USB)
 80036e2:	6823      	ldr	r3, [r4, #0]
 80036e4:	f013 0f10 	tst.w	r3, #16
 80036e8:	d034      	beq.n	8003754 <HAL_RCCEx_PeriphCLKConfig+0x104>
  {
    /* Check the parameters */
    assert_param(IS_RCC_USBPLLCLK_DIV(PeriphClkInit->UsbClockSelection));

    /* Configure the USB clock source */
    __HAL_RCC_USB_CONFIG(PeriphClkInit->UsbClockSelection);
 80036ea:	4a1c      	ldr	r2, [pc, #112]	@ (800375c <HAL_RCCEx_PeriphCLKConfig+0x10c>)
 80036ec:	6853      	ldr	r3, [r2, #4]
 80036ee:	f423 0380 	bic.w	r3, r3, #4194304	@ 0x400000
 80036f2:	68e1      	ldr	r1, [r4, #12]
 80036f4:	430b      	orrs	r3, r1
 80036f6:	6053      	str	r3, [r2, #4]
  }
#endif /* STM32F102x6 || STM32F102xB || STM32F103x6 || STM32F103xB || STM32F103xE || STM32F103xG || STM32F105xC || STM32F107xC */

  return HAL_OK;
 80036f8:	2000      	movs	r0, #0
 80036fa:	e02c      	b.n	8003756 <HAL_RCCEx_PeriphCLKConfig+0x106>
    FlagStatus pwrclkchanged = RESET;
 80036fc:	2500      	movs	r5, #0
 80036fe:	e7be      	b.n	800367e <HAL_RCCEx_PeriphCLKConfig+0x2e>
      SET_BIT(PWR->CR, PWR_CR_DBP);
 8003700:	4a17      	ldr	r2, [pc, #92]	@ (8003760 <HAL_RCCEx_PeriphCLKConfig+0x110>)
 8003702:	6813      	ldr	r3, [r2, #0]
 8003704:	f443 7380 	orr.w	r3, r3, #256	@ 0x100
 8003708:	6013      	str	r3, [r2, #0]
      tickstart = HAL_GetTick();
 800370a:	f7fe fe4f 	bl	80023ac <HAL_GetTick>
 800370e:	4606      	mov	r6, r0
      while (HAL_IS_BIT_CLR(PWR->CR, PWR_CR_DBP))
 8003710:	4b13      	ldr	r3, [pc, #76]	@ (8003760 <HAL_RCCEx_PeriphCLKConfig+0x110>)
 8003712:	681b      	ldr	r3, [r3, #0]
 8003714:	f413 7f80 	tst.w	r3, #256	@ 0x100
 8003718:	d1b6      	bne.n	8003688 <HAL_RCCEx_PeriphCLKConfig+0x38>
        if ((HAL_GetTick() - tickstart) > RCC_DBP_TIMEOUT_VALUE)
 800371a:	f7fe fe47 	bl	80023ac <HAL_GetTick>
 800371e:	1b80      	subs	r0, r0, r6
 8003720:	2864      	cmp	r0, #100	@ 0x64
 8003722:	d9f5      	bls.n	8003710 <HAL_RCCEx_PeriphCLKConfig+0xc0>
          return HAL_TIMEOUT;
 8003724:	2003      	movs	r0, #3
 8003726:	e016      	b.n	8003756 <HAL_RCCEx_PeriphCLKConfig+0x106>
        tickstart = HAL_GetTick();
 8003728:	f7fe fe40 	bl	80023ac <HAL_GetTick>
 800372c:	4606      	mov	r6, r0
        while (__HAL_RCC_GET_FLAG(RCC_FLAG_LSERDY) == RESET)
 800372e:	4b0b      	ldr	r3, [pc, #44]	@ (800375c <HAL_RCCEx_PeriphCLKConfig+0x10c>)
 8003730:	6a1b      	ldr	r3, [r3, #32]
 8003732:	f013 0f02 	tst.w	r3, #2
 8003736:	d1c0      	bne.n	80036ba <HAL_RCCEx_PeriphCLKConfig+0x6a>
          if ((HAL_GetTick() - tickstart) > RCC_LSE_TIMEOUT_VALUE)
 8003738:	f7fe fe38 	bl	80023ac <HAL_GetTick>
 800373c:	1b80      	subs	r0, r0, r6
 800373e:	f241 3388 	movw	r3, #5000	@ 0x1388
 8003742:	4298      	cmp	r0, r3
 8003744:	d9f3      	bls.n	800372e <HAL_RCCEx_PeriphCLKConfig+0xde>
            return HAL_TIMEOUT;
 8003746:	2003      	movs	r0, #3
 8003748:	e005      	b.n	8003756 <HAL_RCCEx_PeriphCLKConfig+0x106>
      __HAL_RCC_PWR_CLK_DISABLE();
 800374a:	69d3      	ldr	r3, [r2, #28]
 800374c:	f023 5380 	bic.w	r3, r3, #268435456	@ 0x10000000
 8003750:	61d3      	str	r3, [r2, #28]
 8003752:	e7bb      	b.n	80036cc <HAL_RCCEx_PeriphCLKConfig+0x7c>
  return HAL_OK;
 8003754:	2000      	movs	r0, #0
}
 8003756:	b002      	add	sp, #8
 8003758:	bd70      	pop	{r4, r5, r6, pc}
 800375a:	bf00      	nop
 800375c:	40021000 	.word	0x40021000
 8003760:	40007000 	.word	0x40007000
 8003764:	42420000 	.word	0x42420000

08003768 <HAL_RCCEx_GetPeriphCLKFreq>:
  *            @arg @ref RCC_PERIPHCLK_USB  USB peripheral clock
  @endif
  * @retval Frequency in Hz (0: means that no available frequency for the peripheral)
  */
uint32_t HAL_RCCEx_GetPeriphCLKFreq(uint32_t PeriphClk)
{
 8003768:	b508      	push	{r3, lr}
  uint32_t temp_reg = 0U, frequency = 0U;

  /* Check the parameters */
  assert_param(IS_RCC_PERIPHCLOCK(PeriphClk));

  switch (PeriphClk)
 800376a:	2802      	cmp	r0, #2
 800376c:	d04e      	beq.n	800380c <HAL_RCCEx_GetPeriphCLKFreq+0xa4>
 800376e:	2810      	cmp	r0, #16
 8003770:	d003      	beq.n	800377a <HAL_RCCEx_GetPeriphCLKFreq+0x12>
 8003772:	2801      	cmp	r0, #1
 8003774:	d028      	beq.n	80037c8 <HAL_RCCEx_GetPeriphCLKFreq+0x60>
 8003776:	2000      	movs	r0, #0
 8003778:	e052      	b.n	8003820 <HAL_RCCEx_GetPeriphCLKFreq+0xb8>
 || defined(STM32F103xB) || defined(STM32F103xE) || defined(STM32F103xG)\
 || defined(STM32F105xC) || defined(STM32F107xC)
    case RCC_PERIPHCLK_USB:
    {
      /* Get RCC configuration ------------------------------------------------------*/
      temp_reg = RCC->CFGR;
 800377a:	4b2b      	ldr	r3, [pc, #172]	@ (8003828 <HAL_RCCEx_GetPeriphCLKFreq+0xc0>)
 800377c:	685a      	ldr	r2, [r3, #4]

      /* Check if PLL is enabled */
      if (HAL_IS_BIT_SET(RCC->CR, RCC_CR_PLLON))
 800377e:	6818      	ldr	r0, [r3, #0]
 8003780:	f010 7080 	ands.w	r0, r0, #16777216	@ 0x1000000
 8003784:	d04c      	beq.n	8003820 <HAL_RCCEx_GetPeriphCLKFreq+0xb8>
      {
        pllmul = aPLLMULFactorTable[(uint32_t)(temp_reg & RCC_CFGR_PLLMULL) >> RCC_CFGR_PLLMULL_Pos];
 8003786:	f3c2 4383 	ubfx	r3, r2, #18, #4
 800378a:	4928      	ldr	r1, [pc, #160]	@ (800382c <HAL_RCCEx_GetPeriphCLKFreq+0xc4>)
 800378c:	5cc8      	ldrb	r0, [r1, r3]
        if ((temp_reg & RCC_CFGR_PLLSRC) != RCC_PLLSOURCE_HSI_DIV2)
 800378e:	f412 3f80 	tst.w	r2, #65536	@ 0x10000
 8003792:	d015      	beq.n	80037c0 <HAL_RCCEx_GetPeriphCLKFreq+0x58>
        {
#if defined(STM32F105xC) || defined(STM32F107xC) || defined(STM32F100xB)\
 || defined(STM32F100xE)
          prediv1 = aPredivFactorTable[(uint32_t)(RCC->CFGR2 & RCC_CFGR2_PREDIV1) >> RCC_CFGR2_PREDIV1_Pos];
#else
          prediv1 = aPredivFactorTable[(uint32_t)(RCC->CFGR & RCC_CFGR_PLLXTPRE) >> RCC_CFGR_PLLXTPRE_Pos];
 8003794:	4b24      	ldr	r3, [pc, #144]	@ (8003828 <HAL_RCCEx_GetPeriphCLKFreq+0xc0>)
 8003796:	685b      	ldr	r3, [r3, #4]
 8003798:	f3c3 4340 	ubfx	r3, r3, #17, #1
 800379c:	4a24      	ldr	r2, [pc, #144]	@ (8003830 <HAL_RCCEx_GetPeriphCLKFreq+0xc8>)
 800379e:	5cd2      	ldrb	r2, [r2, r3]
          }
#else
          if ((temp_reg & RCC_CFGR_PLLSRC) != RCC_PLLSOURCE_HSI_DIV2)
          {
            /* HSE used as PLL clock source : PLLCLK = HSE/PREDIV1 * PLLMUL */
            pllclk = (uint32_t)((HSE_VALUE / prediv1) * pllmul);
 80037a0:	4b24      	ldr	r3, [pc, #144]	@ (8003834 <HAL_RCCEx_GetPeriphCLKFreq+0xcc>)
 80037a2:	fbb3 f3f2 	udiv	r3, r3, r2
 80037a6:	fb03 f000 	mul.w	r0, r3, r0
          /* Prescaler of 3 selected for USB */
          frequency = (2 * pllclk) / 3;
        }
#else
        /* USBCLK = PLLCLK / USB prescaler */
        if (__HAL_RCC_GET_USB_SOURCE() == RCC_USBCLKSOURCE_PLL)
 80037aa:	4b1f      	ldr	r3, [pc, #124]	@ (8003828 <HAL_RCCEx_GetPeriphCLKFreq+0xc0>)
 80037ac:	685b      	ldr	r3, [r3, #4]
 80037ae:	f413 0f80 	tst.w	r3, #4194304	@ 0x400000
 80037b2:	d135      	bne.n	8003820 <HAL_RCCEx_GetPeriphCLKFreq+0xb8>
          frequency = pllclk;
        }
        else
        {
          /* Prescaler of 1.5 selected for USB */
          frequency = (pllclk * 2) / 3;
 80037b4:	0040      	lsls	r0, r0, #1
 80037b6:	4b20      	ldr	r3, [pc, #128]	@ (8003838 <HAL_RCCEx_GetPeriphCLKFreq+0xd0>)
 80037b8:	fba3 3000 	umull	r3, r0, r3, r0
 80037bc:	0840      	lsrs	r0, r0, #1
 80037be:	e02f      	b.n	8003820 <HAL_RCCEx_GetPeriphCLKFreq+0xb8>
          pllclk = (uint32_t)((HSI_VALUE >> 1) * pllmul);
 80037c0:	4b1e      	ldr	r3, [pc, #120]	@ (800383c <HAL_RCCEx_GetPeriphCLKFreq+0xd4>)
 80037c2:	fb03 f000 	mul.w	r0, r3, r0
 80037c6:	e7f0      	b.n	80037aa <HAL_RCCEx_GetPeriphCLKFreq+0x42>
    }
#endif /* STM32F103xE || STM32F103xG || STM32F105xC || STM32F107xC */
    case RCC_PERIPHCLK_RTC:
    {
      /* Get RCC BDCR configuration ------------------------------------------------------*/
      temp_reg = RCC->BDCR;
 80037c8:	4b17      	ldr	r3, [pc, #92]	@ (8003828 <HAL_RCCEx_GetPeriphCLKFreq+0xc0>)
 80037ca:	6a1b      	ldr	r3, [r3, #32]

      /* Check if LSE is ready if RTC clock selection is LSE */
      if (((temp_reg & RCC_BDCR_RTCSEL) == RCC_RTCCLKSOURCE_LSE) && (HAL_IS_BIT_SET(temp_reg, RCC_BDCR_LSERDY)))
 80037cc:	f240 3202 	movw	r2, #770	@ 0x302
 80037d0:	401a      	ands	r2, r3
 80037d2:	f5b2 7f81 	cmp.w	r2, #258	@ 0x102
 80037d6:	d024      	beq.n	8003822 <HAL_RCCEx_GetPeriphCLKFreq+0xba>
      {
        frequency = LSE_VALUE;
      }
      /* Check if LSI is ready if RTC clock selection is LSI */
      else if (((temp_reg & RCC_BDCR_RTCSEL) == RCC_RTCCLKSOURCE_LSI) && (HAL_IS_BIT_SET(RCC->CSR, RCC_CSR_LSIRDY)))
 80037d8:	f403 7340 	and.w	r3, r3, #768	@ 0x300
 80037dc:	f5b3 7f00 	cmp.w	r3, #512	@ 0x200
 80037e0:	d004      	beq.n	80037ec <HAL_RCCEx_GetPeriphCLKFreq+0x84>
      {
        frequency = LSI_VALUE;
      }
      else if (((temp_reg & RCC_BDCR_RTCSEL) == RCC_RTCCLKSOURCE_HSE_DIV128) && (HAL_IS_BIT_SET(RCC->CR, RCC_CR_HSERDY)))
 80037e2:	f5b3 7f40 	cmp.w	r3, #768	@ 0x300
 80037e6:	d009      	beq.n	80037fc <HAL_RCCEx_GetPeriphCLKFreq+0x94>
  uint32_t temp_reg = 0U, frequency = 0U;
 80037e8:	2000      	movs	r0, #0
 80037ea:	e019      	b.n	8003820 <HAL_RCCEx_GetPeriphCLKFreq+0xb8>
      else if (((temp_reg & RCC_BDCR_RTCSEL) == RCC_RTCCLKSOURCE_LSI) && (HAL_IS_BIT_SET(RCC->CSR, RCC_CSR_LSIRDY)))
 80037ec:	4a0e      	ldr	r2, [pc, #56]	@ (8003828 <HAL_RCCEx_GetPeriphCLKFreq+0xc0>)
 80037ee:	6a52      	ldr	r2, [r2, #36]	@ 0x24
 80037f0:	f012 0f02 	tst.w	r2, #2
 80037f4:	d0f5      	beq.n	80037e2 <HAL_RCCEx_GetPeriphCLKFreq+0x7a>
        frequency = LSI_VALUE;
 80037f6:	f649 4040 	movw	r0, #40000	@ 0x9c40
 80037fa:	e011      	b.n	8003820 <HAL_RCCEx_GetPeriphCLKFreq+0xb8>
      else if (((temp_reg & RCC_BDCR_RTCSEL) == RCC_RTCCLKSOURCE_HSE_DIV128) && (HAL_IS_BIT_SET(RCC->CR, RCC_CR_HSERDY)))
 80037fc:	4b0a      	ldr	r3, [pc, #40]	@ (8003828 <HAL_RCCEx_GetPeriphCLKFreq+0xc0>)
 80037fe:	6818      	ldr	r0, [r3, #0]
 8003800:	f410 3000 	ands.w	r0, r0, #131072	@ 0x20000
 8003804:	d00c      	beq.n	8003820 <HAL_RCCEx_GetPeriphCLKFreq+0xb8>
      {
        frequency = HSE_VALUE / 128U;
 8003806:	f24f 4024 	movw	r0, #62500	@ 0xf424
    default:
    {
      break;
    }
  }
  return (frequency);
 800380a:	e009      	b.n	8003820 <HAL_RCCEx_GetPeriphCLKFreq+0xb8>
      frequency = HAL_RCC_GetPCLK2Freq() / (((__HAL_RCC_GET_ADC_SOURCE() >> RCC_CFGR_ADCPRE_Pos) + 1) * 2);
 800380c:	f7ff ff10 	bl	8003630 <HAL_RCC_GetPCLK2Freq>
 8003810:	4b05      	ldr	r3, [pc, #20]	@ (8003828 <HAL_RCCEx_GetPeriphCLKFreq+0xc0>)
 8003812:	685b      	ldr	r3, [r3, #4]
 8003814:	f3c3 3381 	ubfx	r3, r3, #14, #2
 8003818:	3301      	adds	r3, #1
 800381a:	005b      	lsls	r3, r3, #1
 800381c:	fbb0 f0f3 	udiv	r0, r0, r3
}
 8003820:	bd08      	pop	{r3, pc}
        frequency = LSE_VALUE;
 8003822:	f44f 4000 	mov.w	r0, #32768	@ 0x8000
 8003826:	e7fb      	b.n	8003820 <HAL_RCCEx_GetPeriphCLKFreq+0xb8>
 8003828:	40021000 	.word	0x40021000
 800382c:	0800527c 	.word	0x0800527c
 8003830:	08005278 	.word	0x08005278
 8003834:	007a1200 	.word	0x007a1200
 8003838:	aaaaaaab 	.word	0xaaaaaaab
 800383c:	003d0900 	.word	0x003d0900

08003840 <SPI_WaitFlagStateUntilTimeout>:
  * @param  Tickstart tick start value
  * @retval HAL status
  */
static HAL_StatusTypeDef SPI_WaitFlagStateUntilTimeout(SPI_HandleTypeDef *hspi, uint32_t Flag, FlagStatus State,
                                                       uint32_t Timeout, uint32_t Tickstart)
{
 8003840:	e92d 47f0 	stmdb	sp!, {r4, r5, r6, r7, r8, r9, sl, lr}
 8003844:	b082      	sub	sp, #8
 8003846:	4605      	mov	r5, r0
 8003848:	4688      	mov	r8, r1
 800384a:	4617      	mov	r7, r2
 800384c:	461e      	mov	r6, r3
  __IO uint32_t count;
  uint32_t tmp_timeout;
  uint32_t tmp_tickstart;

  /* Adjust Timeout value  in case of end of transfer */
  tmp_timeout   = Timeout - (HAL_GetTick() - Tickstart);
 800384e:	f7fe fdad 	bl	80023ac <HAL_GetTick>
 8003852:	9b0a      	ldr	r3, [sp, #40]	@ 0x28
 8003854:	1a1b      	subs	r3, r3, r0
 8003856:	eb03 0906 	add.w	r9, r3, r6
  tmp_tickstart = HAL_GetTick();
 800385a:	f7fe fda7 	bl	80023ac <HAL_GetTick>
 800385e:	4682      	mov	sl, r0

  /* Calculate Timeout based on a software loop to avoid blocking issue if Systick is disabled */
  count = tmp_timeout * ((SystemCoreClock * 32U) >> 20U);
 8003860:	4b28      	ldr	r3, [pc, #160]	@ (8003904 <SPI_WaitFlagStateUntilTimeout+0xc4>)
 8003862:	681b      	ldr	r3, [r3, #0]
 8003864:	f3c3 33cb 	ubfx	r3, r3, #15, #12
 8003868:	fb09 f303 	mul.w	r3, r9, r3
 800386c:	9301      	str	r3, [sp, #4]

  while ((__HAL_SPI_GET_FLAG(hspi, Flag) ? SET : RESET) != State)
 800386e:	682b      	ldr	r3, [r5, #0]
 8003870:	689c      	ldr	r4, [r3, #8]
 8003872:	ea38 0404 	bics.w	r4, r8, r4
 8003876:	bf0c      	ite	eq
 8003878:	2301      	moveq	r3, #1
 800387a:	2300      	movne	r3, #0
 800387c:	42bb      	cmp	r3, r7
 800387e:	d03d      	beq.n	80038fc <SPI_WaitFlagStateUntilTimeout+0xbc>
  {
    if (Timeout != HAL_MAX_DELAY)
 8003880:	f1b6 3fff 	cmp.w	r6, #4294967295
 8003884:	d0f3      	beq.n	800386e <SPI_WaitFlagStateUntilTimeout+0x2e>
    {
      if (((HAL_GetTick() - tmp_tickstart) >= tmp_timeout) || (tmp_timeout == 0U))
 8003886:	f7fe fd91 	bl	80023ac <HAL_GetTick>
 800388a:	eba0 000a 	sub.w	r0, r0, sl
 800388e:	4548      	cmp	r0, r9
 8003890:	d207      	bcs.n	80038a2 <SPI_WaitFlagStateUntilTimeout+0x62>
        __HAL_UNLOCK(hspi);

        return HAL_TIMEOUT;
      }
      /* If Systick is disabled or not incremented, deactivate timeout to go in disable loop procedure */
      if (count == 0U)
 8003892:	9a01      	ldr	r2, [sp, #4]
 8003894:	b102      	cbz	r2, 8003898 <SPI_WaitFlagStateUntilTimeout+0x58>
 8003896:	464a      	mov	r2, r9
      {
        tmp_timeout = 0U;
      }
      count--;
 8003898:	9b01      	ldr	r3, [sp, #4]
 800389a:	3b01      	subs	r3, #1
 800389c:	9301      	str	r3, [sp, #4]
 800389e:	4691      	mov	r9, r2
 80038a0:	e7e5      	b.n	800386e <SPI_WaitFlagStateUntilTimeout+0x2e>
        __HAL_SPI_DISABLE_IT(hspi, (SPI_IT_TXE | SPI_IT_RXNE | SPI_IT_ERR));
 80038a2:	682a      	ldr	r2, [r5, #0]
 80038a4:	6853      	ldr	r3, [r2, #4]
 80038a6:	f023 03e0 	bic.w	r3, r3, #224	@ 0xe0
 80038aa:	6053      	str	r3, [r2, #4]
        if ((hspi->Init.Mode == SPI_MODE_MASTER) && ((hspi->Init.Direction == SPI_DIRECTION_1LINE)
 80038ac:	686b      	ldr	r3, [r5, #4]
 80038ae:	f5b3 7f82 	cmp.w	r3, #260	@ 0x104
 80038b2:	d00b      	beq.n	80038cc <SPI_WaitFlagStateUntilTimeout+0x8c>
        if (hspi->Init.CRCCalculation == SPI_CRCCALCULATION_ENABLE)
 80038b4:	6aab      	ldr	r3, [r5, #40]	@ 0x28
 80038b6:	f5b3 5f00 	cmp.w	r3, #8192	@ 0x2000
 80038ba:	d014      	beq.n	80038e6 <SPI_WaitFlagStateUntilTimeout+0xa6>
        hspi->State = HAL_SPI_STATE_READY;
 80038bc:	2301      	movs	r3, #1
 80038be:	f885 3051 	strb.w	r3, [r5, #81]	@ 0x51
        __HAL_UNLOCK(hspi);
 80038c2:	2300      	movs	r3, #0
 80038c4:	f885 3050 	strb.w	r3, [r5, #80]	@ 0x50
        return HAL_TIMEOUT;
 80038c8:	2003      	movs	r0, #3
 80038ca:	e018      	b.n	80038fe <SPI_WaitFlagStateUntilTimeout+0xbe>
        if ((hspi->Init.Mode == SPI_MODE_MASTER) && ((hspi->Init.Direction == SPI_DIRECTION_1LINE)
 80038cc:	68ab      	ldr	r3, [r5, #8]
 80038ce:	f5b3 4f00 	cmp.w	r3, #32768	@ 0x8000
 80038d2:	d002      	beq.n	80038da <SPI_WaitFlagStateUntilTimeout+0x9a>
                                                     || (hspi->Init.Direction == SPI_DIRECTION_2LINES_RXONLY)))
 80038d4:	f5b3 6f80 	cmp.w	r3, #1024	@ 0x400
 80038d8:	d1ec      	bne.n	80038b4 <SPI_WaitFlagStateUntilTimeout+0x74>
          __HAL_SPI_DISABLE(hspi);
 80038da:	682a      	ldr	r2, [r5, #0]
 80038dc:	6813      	ldr	r3, [r2, #0]
 80038de:	f023 0340 	bic.w	r3, r3, #64	@ 0x40
 80038e2:	6013      	str	r3, [r2, #0]
 80038e4:	e7e6      	b.n	80038b4 <SPI_WaitFlagStateUntilTimeout+0x74>
          SPI_RESET_CRC(hspi);
 80038e6:	682a      	ldr	r2, [r5, #0]
 80038e8:	6813      	ldr	r3, [r2, #0]
 80038ea:	f423 5300 	bic.w	r3, r3, #8192	@ 0x2000
 80038ee:	6013      	str	r3, [r2, #0]
 80038f0:	682a      	ldr	r2, [r5, #0]
 80038f2:	6813      	ldr	r3, [r2, #0]
 80038f4:	f443 5300 	orr.w	r3, r3, #8192	@ 0x2000
 80038f8:	6013      	str	r3, [r2, #0]
 80038fa:	e7df      	b.n	80038bc <SPI_WaitFlagStateUntilTimeout+0x7c>
    }
  }

  return HAL_OK;
 80038fc:	2000      	movs	r0, #0
}
 80038fe:	b002      	add	sp, #8
 8003900:	e8bd 87f0 	ldmia.w	sp!, {r4, r5, r6, r7, r8, r9, sl, pc}
 8003904:	200000a0 	.word	0x200000a0

08003908 <SPI_EndRxTxTransaction>:
  * @param  Timeout Timeout duration
  * @param  Tickstart tick start value
  * @retval HAL status
  */
static HAL_StatusTypeDef SPI_EndRxTxTransaction(SPI_HandleTypeDef *hspi, uint32_t Timeout, uint32_t Tickstart)
{
 8003908:	b570      	push	{r4, r5, r6, lr}
 800390a:	b082      	sub	sp, #8
 800390c:	4606      	mov	r6, r0
 800390e:	460c      	mov	r4, r1
 8003910:	4615      	mov	r5, r2
  /* Wait until TXE flag */
  if (SPI_WaitFlagStateUntilTimeout(hspi, SPI_FLAG_TXE, SET, Timeout, Tickstart) != HAL_OK)
 8003912:	9200      	str	r2, [sp, #0]
 8003914:	460b      	mov	r3, r1
 8003916:	2201      	movs	r2, #1
 8003918:	2102      	movs	r1, #2
 800391a:	f7ff ff91 	bl	8003840 <SPI_WaitFlagStateUntilTimeout>
 800391e:	b948      	cbnz	r0, 8003934 <SPI_EndRxTxTransaction+0x2c>
    SET_BIT(hspi->ErrorCode, HAL_SPI_ERROR_FLAG);
    return HAL_TIMEOUT;
  }

  /* Control the BSY flag */
  if (SPI_WaitFlagStateUntilTimeout(hspi, SPI_FLAG_BSY, RESET, Timeout, Tickstart) != HAL_OK)
 8003920:	9500      	str	r5, [sp, #0]
 8003922:	4623      	mov	r3, r4
 8003924:	2200      	movs	r2, #0
 8003926:	2180      	movs	r1, #128	@ 0x80
 8003928:	4630      	mov	r0, r6
 800392a:	f7ff ff89 	bl	8003840 <SPI_WaitFlagStateUntilTimeout>
 800392e:	b938      	cbnz	r0, 8003940 <SPI_EndRxTxTransaction+0x38>
  {
    SET_BIT(hspi->ErrorCode, HAL_SPI_ERROR_FLAG);
    return HAL_TIMEOUT;
  }
  return HAL_OK;
}
 8003930:	b002      	add	sp, #8
 8003932:	bd70      	pop	{r4, r5, r6, pc}
    SET_BIT(hspi->ErrorCode, HAL_SPI_ERROR_FLAG);
 8003934:	6d73      	ldr	r3, [r6, #84]	@ 0x54
 8003936:	f043 0320 	orr.w	r3, r3, #32
 800393a:	6573      	str	r3, [r6, #84]	@ 0x54
    return HAL_TIMEOUT;
 800393c:	2003      	movs	r0, #3
 800393e:	e7f7      	b.n	8003930 <SPI_EndRxTxTransaction+0x28>
    SET_BIT(hspi->ErrorCode, HAL_SPI_ERROR_FLAG);
 8003940:	6d73      	ldr	r3, [r6, #84]	@ 0x54
 8003942:	f043 0320 	orr.w	r3, r3, #32
 8003946:	6573      	str	r3, [r6, #84]	@ 0x54
    return HAL_TIMEOUT;
 8003948:	2003      	movs	r0, #3
 800394a:	e7f1      	b.n	8003930 <SPI_EndRxTxTransaction+0x28>

0800394c <HAL_SPI_Init>:
  if (hspi == NULL)
 800394c:	2800      	cmp	r0, #0
 800394e:	d056      	beq.n	80039fe <HAL_SPI_Init+0xb2>
{
 8003950:	b510      	push	{r4, lr}
 8003952:	4604      	mov	r4, r0
  if (hspi->Init.TIMode == SPI_TIMODE_DISABLE)
 8003954:	6a43      	ldr	r3, [r0, #36]	@ 0x24
 8003956:	b933      	cbnz	r3, 8003966 <HAL_SPI_Init+0x1a>
    if (hspi->Init.Mode == SPI_MODE_MASTER)
 8003958:	6843      	ldr	r3, [r0, #4]
 800395a:	f5b3 7f82 	cmp.w	r3, #260	@ 0x104
 800395e:	d005      	beq.n	800396c <HAL_SPI_Init+0x20>
      hspi->Init.BaudRatePrescaler = SPI_BAUDRATEPRESCALER_2;
 8003960:	2300      	movs	r3, #0
 8003962:	61c3      	str	r3, [r0, #28]
 8003964:	e002      	b.n	800396c <HAL_SPI_Init+0x20>
    hspi->Init.CLKPolarity = SPI_POLARITY_LOW;
 8003966:	2300      	movs	r3, #0
 8003968:	6103      	str	r3, [r0, #16]
    hspi->Init.CLKPhase    = SPI_PHASE_1EDGE;
 800396a:	6143      	str	r3, [r0, #20]
  hspi->Init.CRCCalculation = SPI_CRCCALCULATION_DISABLE;
 800396c:	2300      	movs	r3, #0
 800396e:	62a3      	str	r3, [r4, #40]	@ 0x28
  if (hspi->State == HAL_SPI_STATE_RESET)
 8003970:	f894 3051 	ldrb.w	r3, [r4, #81]	@ 0x51
 8003974:	2b00      	cmp	r3, #0
 8003976:	d03c      	beq.n	80039f2 <HAL_SPI_Init+0xa6>
  hspi->State = HAL_SPI_STATE_BUSY;
 8003978:	2302      	movs	r3, #2
 800397a:	f884 3051 	strb.w	r3, [r4, #81]	@ 0x51
  __HAL_SPI_DISABLE(hspi);
 800397e:	6822      	ldr	r2, [r4, #0]
 8003980:	6813      	ldr	r3, [r2, #0]
 8003982:	f023 0340 	bic.w	r3, r3, #64	@ 0x40
 8003986:	6013      	str	r3, [r2, #0]
  WRITE_REG(hspi->Instance->CR1, ((hspi->Init.Mode & (SPI_CR1_MSTR | SPI_CR1_SSI)) |
 8003988:	6863      	ldr	r3, [r4, #4]
 800398a:	f403 7382 	and.w	r3, r3, #260	@ 0x104
 800398e:	68a2      	ldr	r2, [r4, #8]
 8003990:	f402 4204 	and.w	r2, r2, #33792	@ 0x8400
 8003994:	4313      	orrs	r3, r2
 8003996:	68e2      	ldr	r2, [r4, #12]
 8003998:	f402 6200 	and.w	r2, r2, #2048	@ 0x800
 800399c:	4313      	orrs	r3, r2
 800399e:	6922      	ldr	r2, [r4, #16]
 80039a0:	f002 0202 	and.w	r2, r2, #2
 80039a4:	4313      	orrs	r3, r2
 80039a6:	6962      	ldr	r2, [r4, #20]
 80039a8:	f002 0201 	and.w	r2, r2, #1
 80039ac:	4313      	orrs	r3, r2
 80039ae:	69a2      	ldr	r2, [r4, #24]
 80039b0:	f402 7200 	and.w	r2, r2, #512	@ 0x200
 80039b4:	4313      	orrs	r3, r2
 80039b6:	69e2      	ldr	r2, [r4, #28]
 80039b8:	f002 0238 	and.w	r2, r2, #56	@ 0x38
 80039bc:	4313      	orrs	r3, r2
 80039be:	6a22      	ldr	r2, [r4, #32]
 80039c0:	f002 0280 	and.w	r2, r2, #128	@ 0x80
 80039c4:	4313      	orrs	r3, r2
 80039c6:	6aa2      	ldr	r2, [r4, #40]	@ 0x28
 80039c8:	f402 5200 	and.w	r2, r2, #8192	@ 0x2000
 80039cc:	6821      	ldr	r1, [r4, #0]
 80039ce:	4313      	orrs	r3, r2
 80039d0:	600b      	str	r3, [r1, #0]
  WRITE_REG(hspi->Instance->CR2, ((hspi->Init.NSS >> 16U) & SPI_CR2_SSOE));
 80039d2:	8b63      	ldrh	r3, [r4, #26]
 80039d4:	6822      	ldr	r2, [r4, #0]
 80039d6:	f003 0304 	and.w	r3, r3, #4
 80039da:	6053      	str	r3, [r2, #4]
  CLEAR_BIT(hspi->Instance->I2SCFGR, SPI_I2SCFGR_I2SMOD);
 80039dc:	6822      	ldr	r2, [r4, #0]
 80039de:	69d3      	ldr	r3, [r2, #28]
 80039e0:	f423 6300 	bic.w	r3, r3, #2048	@ 0x800
 80039e4:	61d3      	str	r3, [r2, #28]
  hspi->ErrorCode = HAL_SPI_ERROR_NONE;
 80039e6:	2000      	movs	r0, #0
 80039e8:	6560      	str	r0, [r4, #84]	@ 0x54
  hspi->State     = HAL_SPI_STATE_READY;
 80039ea:	2301      	movs	r3, #1
 80039ec:	f884 3051 	strb.w	r3, [r4, #81]	@ 0x51
}
 80039f0:	bd10      	pop	{r4, pc}
    hspi->Lock = HAL_UNLOCKED;
 80039f2:	f884 3050 	strb.w	r3, [r4, #80]	@ 0x50
    HAL_SPI_MspInit(hspi);
 80039f6:	4620      	mov	r0, r4
 80039f8:	f7fe f91e 	bl	8001c38 <HAL_SPI_MspInit>
 80039fc:	e7bc      	b.n	8003978 <HAL_SPI_Init+0x2c>
    return HAL_ERROR;
 80039fe:	2001      	movs	r0, #1
}
 8003a00:	4770      	bx	lr

08003a02 <HAL_SPI_TransmitReceive>:
{
 8003a02:	e92d 43f0 	stmdb	sp!, {r4, r5, r6, r7, r8, r9, lr}
 8003a06:	b083      	sub	sp, #12
 8003a08:	4604      	mov	r4, r0
 8003a0a:	4688      	mov	r8, r1
 8003a0c:	4691      	mov	r9, r2
 8003a0e:	461f      	mov	r7, r3
 8003a10:	9d0a      	ldr	r5, [sp, #40]	@ 0x28
  tickstart = HAL_GetTick();
 8003a12:	f7fe fccb 	bl	80023ac <HAL_GetTick>
 8003a16:	4606      	mov	r6, r0
  tmp_state           = hspi->State;
 8003a18:	f894 3051 	ldrb.w	r3, [r4, #81]	@ 0x51
 8003a1c:	b2db      	uxtb	r3, r3
  tmp_mode            = hspi->Init.Mode;
 8003a1e:	6862      	ldr	r2, [r4, #4]
  if (!((tmp_state == HAL_SPI_STATE_READY) || \
 8003a20:	2b01      	cmp	r3, #1
 8003a22:	d00a      	beq.n	8003a3a <HAL_SPI_TransmitReceive+0x38>
 8003a24:	f5b2 7f82 	cmp.w	r2, #260	@ 0x104
 8003a28:	f040 8105 	bne.w	8003c36 <HAL_SPI_TransmitReceive+0x234>
        ((tmp_mode == SPI_MODE_MASTER) && (hspi->Init.Direction == SPI_DIRECTION_2LINES) &&
 8003a2c:	68a2      	ldr	r2, [r4, #8]
 8003a2e:	2a00      	cmp	r2, #0
 8003a30:	f040 8105 	bne.w	8003c3e <HAL_SPI_TransmitReceive+0x23c>
 8003a34:	2b04      	cmp	r3, #4
 8003a36:	f040 8104 	bne.w	8003c42 <HAL_SPI_TransmitReceive+0x240>
  if ((pTxData == NULL) || (pRxData == NULL) || (Size == 0U))
 8003a3a:	f1b8 0f00 	cmp.w	r8, #0
 8003a3e:	f000 8102 	beq.w	8003c46 <HAL_SPI_TransmitReceive+0x244>
 8003a42:	f1b9 0f00 	cmp.w	r9, #0
 8003a46:	f000 8100 	beq.w	8003c4a <HAL_SPI_TransmitReceive+0x248>
 8003a4a:	2f00      	cmp	r7, #0
 8003a4c:	f000 80ff 	beq.w	8003c4e <HAL_SPI_TransmitReceive+0x24c>
  __HAL_LOCK(hspi);
 8003a50:	f894 3050 	ldrb.w	r3, [r4, #80]	@ 0x50
 8003a54:	2b01      	cmp	r3, #1
 8003a56:	f000 80fc 	beq.w	8003c52 <HAL_SPI_TransmitReceive+0x250>
 8003a5a:	2301      	movs	r3, #1
 8003a5c:	f884 3050 	strb.w	r3, [r4, #80]	@ 0x50
  if (hspi->State != HAL_SPI_STATE_BUSY_RX)
 8003a60:	f894 3051 	ldrb.w	r3, [r4, #81]	@ 0x51
 8003a64:	b2db      	uxtb	r3, r3
 8003a66:	2b04      	cmp	r3, #4
 8003a68:	d002      	beq.n	8003a70 <HAL_SPI_TransmitReceive+0x6e>
    hspi->State = HAL_SPI_STATE_BUSY_TX_RX;
 8003a6a:	2305      	movs	r3, #5
 8003a6c:	f884 3051 	strb.w	r3, [r4, #81]	@ 0x51
  hspi->ErrorCode   = HAL_SPI_ERROR_NONE;
 8003a70:	2300      	movs	r3, #0
 8003a72:	6563      	str	r3, [r4, #84]	@ 0x54
  hspi->pRxBuffPtr  = (uint8_t *)pRxData;
 8003a74:	f8c4 9038 	str.w	r9, [r4, #56]	@ 0x38
  hspi->RxXferCount = Size;
 8003a78:	87e7      	strh	r7, [r4, #62]	@ 0x3e
  hspi->RxXferSize  = Size;
 8003a7a:	87a7      	strh	r7, [r4, #60]	@ 0x3c
  hspi->pTxBuffPtr  = (const uint8_t *)pTxData;
 8003a7c:	f8c4 8030 	str.w	r8, [r4, #48]	@ 0x30
  hspi->TxXferCount = Size;
 8003a80:	86e7      	strh	r7, [r4, #54]	@ 0x36
  hspi->TxXferSize  = Size;
 8003a82:	86a7      	strh	r7, [r4, #52]	@ 0x34
  hspi->RxISR       = NULL;
 8003a84:	6423      	str	r3, [r4, #64]	@ 0x40
  hspi->TxISR       = NULL;
 8003a86:	6463      	str	r3, [r4, #68]	@ 0x44
  if ((hspi->Instance->CR1 & SPI_CR1_SPE) != SPI_CR1_SPE)
 8003a88:	6823      	ldr	r3, [r4, #0]
 8003a8a:	681a      	ldr	r2, [r3, #0]
 8003a8c:	f012 0f40 	tst.w	r2, #64	@ 0x40
 8003a90:	d103      	bne.n	8003a9a <HAL_SPI_TransmitReceive+0x98>
    __HAL_SPI_ENABLE(hspi);
 8003a92:	681a      	ldr	r2, [r3, #0]
 8003a94:	f042 0240 	orr.w	r2, r2, #64	@ 0x40
 8003a98:	601a      	str	r2, [r3, #0]
  if (hspi->Init.DataSize == SPI_DATASIZE_16BIT)
 8003a9a:	68e3      	ldr	r3, [r4, #12]
 8003a9c:	f5b3 6f00 	cmp.w	r3, #2048	@ 0x800
 8003aa0:	d011      	beq.n	8003ac6 <HAL_SPI_TransmitReceive+0xc4>
    if ((hspi->Init.Mode == SPI_MODE_SLAVE) || (initial_TxXferCount == 0x01U))
 8003aa2:	6863      	ldr	r3, [r4, #4]
 8003aa4:	b10b      	cbz	r3, 8003aaa <HAL_SPI_TransmitReceive+0xa8>
 8003aa6:	2f01      	cmp	r7, #1
 8003aa8:	d10b      	bne.n	8003ac2 <HAL_SPI_TransmitReceive+0xc0>
      *((__IO uint8_t *)&hspi->Instance->DR) = *((const uint8_t *)hspi->pTxBuffPtr);
 8003aaa:	6b22      	ldr	r2, [r4, #48]	@ 0x30
 8003aac:	6823      	ldr	r3, [r4, #0]
 8003aae:	7812      	ldrb	r2, [r2, #0]
 8003ab0:	731a      	strb	r2, [r3, #12]
      hspi->pTxBuffPtr += sizeof(uint8_t);
 8003ab2:	6b23      	ldr	r3, [r4, #48]	@ 0x30
 8003ab4:	3301      	adds	r3, #1
 8003ab6:	6323      	str	r3, [r4, #48]	@ 0x30
      hspi->TxXferCount--;
 8003ab8:	8ee3      	ldrh	r3, [r4, #54]	@ 0x36
 8003aba:	b29b      	uxth	r3, r3
 8003abc:	3b01      	subs	r3, #1
 8003abe:	b29b      	uxth	r3, r3
 8003ac0:	86e3      	strh	r3, [r4, #54]	@ 0x36
        txallowed = 1U;
 8003ac2:	2701      	movs	r7, #1
 8003ac4:	e071      	b.n	8003baa <HAL_SPI_TransmitReceive+0x1a8>
    if ((hspi->Init.Mode == SPI_MODE_SLAVE) || (initial_TxXferCount == 0x01U))
 8003ac6:	6863      	ldr	r3, [r4, #4]
 8003ac8:	b10b      	cbz	r3, 8003ace <HAL_SPI_TransmitReceive+0xcc>
 8003aca:	2f01      	cmp	r7, #1
 8003acc:	d10b      	bne.n	8003ae6 <HAL_SPI_TransmitReceive+0xe4>
      hspi->Instance->DR = *((const uint16_t *)hspi->pTxBuffPtr);
 8003ace:	6b22      	ldr	r2, [r4, #48]	@ 0x30
 8003ad0:	6823      	ldr	r3, [r4, #0]
 8003ad2:	8812      	ldrh	r2, [r2, #0]
 8003ad4:	60da      	str	r2, [r3, #12]
      hspi->pTxBuffPtr += sizeof(uint16_t);
 8003ad6:	6b23      	ldr	r3, [r4, #48]	@ 0x30
 8003ad8:	3302      	adds	r3, #2
 8003ada:	6323      	str	r3, [r4, #48]	@ 0x30
      hspi->TxXferCount--;
 8003adc:	8ee3      	ldrh	r3, [r4, #54]	@ 0x36
 8003ade:	b29b      	uxth	r3, r3
 8003ae0:	3b01      	subs	r3, #1
 8003ae2:	b29b      	uxth	r3, r3
 8003ae4:	86e3      	strh	r3, [r4, #54]	@ 0x36
        txallowed = 1U;
 8003ae6:	2701      	movs	r7, #1
 8003ae8:	e01b      	b.n	8003b22 <HAL_SPI_TransmitReceive+0x120>
      if ((__HAL_SPI_GET_FLAG(hspi, SPI_FLAG_RXNE)) && (hspi->RxXferCount > 0U))
 8003aea:	6823      	ldr	r3, [r4, #0]
 8003aec:	689a      	ldr	r2, [r3, #8]
 8003aee:	f012 0f01 	tst.w	r2, #1
 8003af2:	d00e      	beq.n	8003b12 <HAL_SPI_TransmitReceive+0x110>
 8003af4:	8fe2      	ldrh	r2, [r4, #62]	@ 0x3e
 8003af6:	b292      	uxth	r2, r2
 8003af8:	b15a      	cbz	r2, 8003b12 <HAL_SPI_TransmitReceive+0x110>
        *((uint16_t *)hspi->pRxBuffPtr) = (uint16_t)hspi->Instance->DR;
 8003afa:	68da      	ldr	r2, [r3, #12]
 8003afc:	6ba3      	ldr	r3, [r4, #56]	@ 0x38
 8003afe:	801a      	strh	r2, [r3, #0]
        hspi->pRxBuffPtr += sizeof(uint16_t);
 8003b00:	6ba3      	ldr	r3, [r4, #56]	@ 0x38
 8003b02:	3302      	adds	r3, #2
 8003b04:	63a3      	str	r3, [r4, #56]	@ 0x38
        hspi->RxXferCount--;
 8003b06:	8fe3      	ldrh	r3, [r4, #62]	@ 0x3e
 8003b08:	b29b      	uxth	r3, r3
 8003b0a:	3b01      	subs	r3, #1
 8003b0c:	b29b      	uxth	r3, r3
 8003b0e:	87e3      	strh	r3, [r4, #62]	@ 0x3e
        txallowed = 1U;
 8003b10:	2701      	movs	r7, #1
      if (((HAL_GetTick() - tickstart) >=  Timeout) && (Timeout != HAL_MAX_DELAY))
 8003b12:	f7fe fc4b 	bl	80023ac <HAL_GetTick>
 8003b16:	1b80      	subs	r0, r0, r6
 8003b18:	42a8      	cmp	r0, r5
 8003b1a:	d302      	bcc.n	8003b22 <HAL_SPI_TransmitReceive+0x120>
 8003b1c:	f1b5 3fff 	cmp.w	r5, #4294967295
 8003b20:	d11e      	bne.n	8003b60 <HAL_SPI_TransmitReceive+0x15e>
    while ((hspi->TxXferCount > 0U) || (hspi->RxXferCount > 0U))
 8003b22:	8ee3      	ldrh	r3, [r4, #54]	@ 0x36
 8003b24:	b29b      	uxth	r3, r3
 8003b26:	b91b      	cbnz	r3, 8003b30 <HAL_SPI_TransmitReceive+0x12e>
 8003b28:	8fe3      	ldrh	r3, [r4, #62]	@ 0x3e
 8003b2a:	b29b      	uxth	r3, r3
 8003b2c:	2b00      	cmp	r3, #0
 8003b2e:	d062      	beq.n	8003bf6 <HAL_SPI_TransmitReceive+0x1f4>
      if ((__HAL_SPI_GET_FLAG(hspi, SPI_FLAG_TXE)) && (hspi->TxXferCount > 0U) && (txallowed == 1U))
 8003b30:	6823      	ldr	r3, [r4, #0]
 8003b32:	689a      	ldr	r2, [r3, #8]
 8003b34:	f012 0f02 	tst.w	r2, #2
 8003b38:	d0d7      	beq.n	8003aea <HAL_SPI_TransmitReceive+0xe8>
 8003b3a:	8ee2      	ldrh	r2, [r4, #54]	@ 0x36
 8003b3c:	b292      	uxth	r2, r2
 8003b3e:	2a00      	cmp	r2, #0
 8003b40:	d0d3      	beq.n	8003aea <HAL_SPI_TransmitReceive+0xe8>
 8003b42:	2f00      	cmp	r7, #0
 8003b44:	d0d1      	beq.n	8003aea <HAL_SPI_TransmitReceive+0xe8>
        hspi->Instance->DR = *((const uint16_t *)hspi->pTxBuffPtr);
 8003b46:	6b22      	ldr	r2, [r4, #48]	@ 0x30
 8003b48:	8812      	ldrh	r2, [r2, #0]
 8003b4a:	60da      	str	r2, [r3, #12]
        hspi->pTxBuffPtr += sizeof(uint16_t);
 8003b4c:	6b23      	ldr	r3, [r4, #48]	@ 0x30
 8003b4e:	3302      	adds	r3, #2
 8003b50:	6323      	str	r3, [r4, #48]	@ 0x30
        hspi->TxXferCount--;
 8003b52:	8ee3      	ldrh	r3, [r4, #54]	@ 0x36
 8003b54:	b29b      	uxth	r3, r3
 8003b56:	3b01      	subs	r3, #1
 8003b58:	b29b      	uxth	r3, r3
 8003b5a:	86e3      	strh	r3, [r4, #54]	@ 0x36
        txallowed = 0U;
 8003b5c:	2700      	movs	r7, #0
 8003b5e:	e7c4      	b.n	8003aea <HAL_SPI_TransmitReceive+0xe8>
        hspi->State = HAL_SPI_STATE_READY;
 8003b60:	2301      	movs	r3, #1
 8003b62:	f884 3051 	strb.w	r3, [r4, #81]	@ 0x51
        __HAL_UNLOCK(hspi);
 8003b66:	2300      	movs	r3, #0
 8003b68:	f884 3050 	strb.w	r3, [r4, #80]	@ 0x50
        return HAL_TIMEOUT;
 8003b6c:	2003      	movs	r0, #3
 8003b6e:	e063      	b.n	8003c38 <HAL_SPI_TransmitReceive+0x236>
      if ((__HAL_SPI_GET_FLAG(hspi, SPI_FLAG_RXNE)) && (hspi->RxXferCount > 0U))
 8003b70:	6823      	ldr	r3, [r4, #0]
 8003b72:	689a      	ldr	r2, [r3, #8]
 8003b74:	f012 0f01 	tst.w	r2, #1
 8003b78:	d00e      	beq.n	8003b98 <HAL_SPI_TransmitReceive+0x196>
 8003b7a:	8fe2      	ldrh	r2, [r4, #62]	@ 0x3e
 8003b7c:	b292      	uxth	r2, r2
 8003b7e:	b15a      	cbz	r2, 8003b98 <HAL_SPI_TransmitReceive+0x196>
        (*(uint8_t *)hspi->pRxBuffPtr) = hspi->Instance->DR;
 8003b80:	68da      	ldr	r2, [r3, #12]
 8003b82:	6ba3      	ldr	r3, [r4, #56]	@ 0x38
 8003b84:	701a      	strb	r2, [r3, #0]
        hspi->pRxBuffPtr++;
 8003b86:	6ba3      	ldr	r3, [r4, #56]	@ 0x38
 8003b88:	3301      	adds	r3, #1
 8003b8a:	63a3      	str	r3, [r4, #56]	@ 0x38
        hspi->RxXferCount--;
 8003b8c:	8fe3      	ldrh	r3, [r4, #62]	@ 0x3e
 8003b8e:	b29b      	uxth	r3, r3
 8003b90:	3b01      	subs	r3, #1
 8003b92:	b29b      	uxth	r3, r3
 8003b94:	87e3      	strh	r3, [r4, #62]	@ 0x3e
        txallowed = 1U;
 8003b96:	2701      	movs	r7, #1
      if ((((HAL_GetTick() - tickstart) >=  Timeout) && ((Timeout != HAL_MAX_DELAY))) || (Timeout == 0U))
 8003b98:	f7fe fc08 	bl	80023ac <HAL_GetTick>
 8003b9c:	1b83      	subs	r3, r0, r6
 8003b9e:	42ab      	cmp	r3, r5
 8003ba0:	d302      	bcc.n	8003ba8 <HAL_SPI_TransmitReceive+0x1a6>
 8003ba2:	f1b5 3fff 	cmp.w	r5, #4294967295
 8003ba6:	d11e      	bne.n	8003be6 <HAL_SPI_TransmitReceive+0x1e4>
 8003ba8:	b1ed      	cbz	r5, 8003be6 <HAL_SPI_TransmitReceive+0x1e4>
    while ((hspi->TxXferCount > 0U) || (hspi->RxXferCount > 0U))
 8003baa:	8ee3      	ldrh	r3, [r4, #54]	@ 0x36
 8003bac:	b29b      	uxth	r3, r3
 8003bae:	b913      	cbnz	r3, 8003bb6 <HAL_SPI_TransmitReceive+0x1b4>
 8003bb0:	8fe3      	ldrh	r3, [r4, #62]	@ 0x3e
 8003bb2:	b29b      	uxth	r3, r3
 8003bb4:	b1fb      	cbz	r3, 8003bf6 <HAL_SPI_TransmitReceive+0x1f4>
      if ((__HAL_SPI_GET_FLAG(hspi, SPI_FLAG_TXE)) && (hspi->TxXferCount > 0U) && (txallowed == 1U))
 8003bb6:	6823      	ldr	r3, [r4, #0]
 8003bb8:	689a      	ldr	r2, [r3, #8]
 8003bba:	f012 0f02 	tst.w	r2, #2
 8003bbe:	d0d7      	beq.n	8003b70 <HAL_SPI_TransmitReceive+0x16e>
 8003bc0:	8ee2      	ldrh	r2, [r4, #54]	@ 0x36
 8003bc2:	b292      	uxth	r2, r2
 8003bc4:	2a00      	cmp	r2, #0
 8003bc6:	d0d3      	beq.n	8003b70 <HAL_SPI_TransmitReceive+0x16e>
 8003bc8:	2f00      	cmp	r7, #0
 8003bca:	d0d1      	beq.n	8003b70 <HAL_SPI_TransmitReceive+0x16e>
        *(__IO uint8_t *)&hspi->Instance->DR = *((const uint8_t *)hspi->pTxBuffPtr);
 8003bcc:	6b22      	ldr	r2, [r4, #48]	@ 0x30
 8003bce:	7812      	ldrb	r2, [r2, #0]
 8003bd0:	731a      	strb	r2, [r3, #12]
        hspi->pTxBuffPtr++;
 8003bd2:	6b23      	ldr	r3, [r4, #48]	@ 0x30
 8003bd4:	3301      	adds	r3, #1
 8003bd6:	6323      	str	r3, [r4, #48]	@ 0x30
        hspi->TxXferCount--;
 8003bd8:	8ee3      	ldrh	r3, [r4, #54]	@ 0x36
 8003bda:	b29b      	uxth	r3, r3
 8003bdc:	3b01      	subs	r3, #1
 8003bde:	b29b      	uxth	r3, r3
 8003be0:	86e3      	strh	r3, [r4, #54]	@ 0x36
        txallowed = 0U;
 8003be2:	2700      	movs	r7, #0
 8003be4:	e7c4      	b.n	8003b70 <HAL_SPI_TransmitReceive+0x16e>
        hspi->State = HAL_SPI_STATE_READY;
 8003be6:	2301      	movs	r3, #1
 8003be8:	f884 3051 	strb.w	r3, [r4, #81]	@ 0x51
        __HAL_UNLOCK(hspi);
 8003bec:	2300      	movs	r3, #0
 8003bee:	f884 3050 	strb.w	r3, [r4, #80]	@ 0x50
        return HAL_TIMEOUT;
 8003bf2:	2003      	movs	r0, #3
 8003bf4:	e020      	b.n	8003c38 <HAL_SPI_TransmitReceive+0x236>
  if (SPI_EndRxTxTransaction(hspi, Timeout, tickstart) != HAL_OK)
 8003bf6:	4632      	mov	r2, r6
 8003bf8:	4629      	mov	r1, r5
 8003bfa:	4620      	mov	r0, r4
 8003bfc:	f7ff fe84 	bl	8003908 <SPI_EndRxTxTransaction>
 8003c00:	b990      	cbnz	r0, 8003c28 <HAL_SPI_TransmitReceive+0x226>
  if (hspi->Init.Direction == SPI_DIRECTION_2LINES)
 8003c02:	68a3      	ldr	r3, [r4, #8]
 8003c04:	b933      	cbnz	r3, 8003c14 <HAL_SPI_TransmitReceive+0x212>
    __HAL_SPI_CLEAR_OVRFLAG(hspi);
 8003c06:	9301      	str	r3, [sp, #4]
 8003c08:	6823      	ldr	r3, [r4, #0]
 8003c0a:	68da      	ldr	r2, [r3, #12]
 8003c0c:	9201      	str	r2, [sp, #4]
 8003c0e:	689b      	ldr	r3, [r3, #8]
 8003c10:	9301      	str	r3, [sp, #4]
 8003c12:	9b01      	ldr	r3, [sp, #4]
  hspi->State = HAL_SPI_STATE_READY;
 8003c14:	2301      	movs	r3, #1
 8003c16:	f884 3051 	strb.w	r3, [r4, #81]	@ 0x51
  __HAL_UNLOCK(hspi);
 8003c1a:	2300      	movs	r3, #0
 8003c1c:	f884 3050 	strb.w	r3, [r4, #80]	@ 0x50
  if (hspi->ErrorCode != HAL_SPI_ERROR_NONE)
 8003c20:	6d63      	ldr	r3, [r4, #84]	@ 0x54
 8003c22:	b14b      	cbz	r3, 8003c38 <HAL_SPI_TransmitReceive+0x236>
    return HAL_ERROR;
 8003c24:	2001      	movs	r0, #1
 8003c26:	e007      	b.n	8003c38 <HAL_SPI_TransmitReceive+0x236>
    hspi->ErrorCode = HAL_SPI_ERROR_FLAG;
 8003c28:	2320      	movs	r3, #32
 8003c2a:	6563      	str	r3, [r4, #84]	@ 0x54
    __HAL_UNLOCK(hspi);
 8003c2c:	2300      	movs	r3, #0
 8003c2e:	f884 3050 	strb.w	r3, [r4, #80]	@ 0x50
    return HAL_ERROR;
 8003c32:	2001      	movs	r0, #1
 8003c34:	e000      	b.n	8003c38 <HAL_SPI_TransmitReceive+0x236>
    return HAL_BUSY;
 8003c36:	2002      	movs	r0, #2
}
 8003c38:	b003      	add	sp, #12
 8003c3a:	e8bd 83f0 	ldmia.w	sp!, {r4, r5, r6, r7, r8, r9, pc}
    return HAL_BUSY;
 8003c3e:	2002      	movs	r0, #2
 8003c40:	e7fa      	b.n	8003c38 <HAL_SPI_TransmitReceive+0x236>
 8003c42:	2002      	movs	r0, #2
 8003c44:	e7f8      	b.n	8003c38 <HAL_SPI_TransmitReceive+0x236>
    return HAL_ERROR;
 8003c46:	2001      	movs	r0, #1
 8003c48:	e7f6      	b.n	8003c38 <HAL_SPI_TransmitReceive+0x236>
 8003c4a:	2001      	movs	r0, #1
 8003c4c:	e7f4      	b.n	8003c38 <HAL_SPI_TransmitReceive+0x236>
 8003c4e:	2001      	movs	r0, #1
 8003c50:	e7f2      	b.n	8003c38 <HAL_SPI_TransmitReceive+0x236>
  __HAL_LOCK(hspi);
 8003c52:	2002      	movs	r0, #2
 8003c54:	e7f0      	b.n	8003c38 <HAL_SPI_TransmitReceive+0x236>

08003c56 <HAL_SPI_ErrorCallback>:
}
 8003c56:	4770      	bx	lr

08003c58 <HAL_SPI_IRQHandler>:
{
 8003c58:	b530      	push	{r4, r5, lr}
 8003c5a:	b085      	sub	sp, #20
 8003c5c:	4604      	mov	r4, r0
  uint32_t itsource = hspi->Instance->CR2;
 8003c5e:	6802      	ldr	r2, [r0, #0]
 8003c60:	6851      	ldr	r1, [r2, #4]
  uint32_t itflag   = hspi->Instance->SR;
 8003c62:	6893      	ldr	r3, [r2, #8]
  if ((SPI_CHECK_FLAG(itflag, SPI_FLAG_OVR) == RESET) &&
 8003c64:	f3c3 1080 	ubfx	r0, r3, #6, #1
 8003c68:	f013 0f40 	tst.w	r3, #64	@ 0x40
 8003c6c:	d105      	bne.n	8003c7a <HAL_SPI_IRQHandler+0x22>
 8003c6e:	f013 0f01 	tst.w	r3, #1
 8003c72:	d002      	beq.n	8003c7a <HAL_SPI_IRQHandler+0x22>
      (SPI_CHECK_FLAG(itflag, SPI_FLAG_RXNE) != RESET) && (SPI_CHECK_IT_SOURCE(itsource, SPI_IT_RXNE) != RESET))
 8003c74:	f011 0f40 	tst.w	r1, #64	@ 0x40
 8003c78:	d15a      	bne.n	8003d30 <HAL_SPI_IRQHandler+0xd8>
  if ((SPI_CHECK_FLAG(itflag, SPI_FLAG_TXE) != RESET) && (SPI_CHECK_IT_SOURCE(itsource, SPI_IT_TXE) != RESET))
 8003c7a:	f013 0f02 	tst.w	r3, #2
 8003c7e:	d002      	beq.n	8003c86 <HAL_SPI_IRQHandler+0x2e>
 8003c80:	f011 0f80 	tst.w	r1, #128	@ 0x80
 8003c84:	d158      	bne.n	8003d38 <HAL_SPI_IRQHandler+0xe0>
  if (((SPI_CHECK_FLAG(itflag, SPI_FLAG_MODF) != RESET) || (SPI_CHECK_FLAG(itflag, SPI_FLAG_OVR) != RESET))
 8003c86:	f3c3 1540 	ubfx	r5, r3, #5, #1
 8003c8a:	f013 0f20 	tst.w	r3, #32
 8003c8e:	d101      	bne.n	8003c94 <HAL_SPI_IRQHandler+0x3c>
 8003c90:	2800      	cmp	r0, #0
 8003c92:	d054      	beq.n	8003d3e <HAL_SPI_IRQHandler+0xe6>
      && (SPI_CHECK_IT_SOURCE(itsource, SPI_IT_ERR) != RESET))
 8003c94:	f011 0f20 	tst.w	r1, #32
 8003c98:	d051      	beq.n	8003d3e <HAL_SPI_IRQHandler+0xe6>
    if (SPI_CHECK_FLAG(itflag, SPI_FLAG_OVR) != RESET)
 8003c9a:	b178      	cbz	r0, 8003cbc <HAL_SPI_IRQHandler+0x64>
      if (hspi->State != HAL_SPI_STATE_BUSY_TX)
 8003c9c:	f894 3051 	ldrb.w	r3, [r4, #81]	@ 0x51
 8003ca0:	b2db      	uxtb	r3, r3
 8003ca2:	2b03      	cmp	r3, #3
 8003ca4:	d04d      	beq.n	8003d42 <HAL_SPI_IRQHandler+0xea>
        SET_BIT(hspi->ErrorCode, HAL_SPI_ERROR_OVR);
 8003ca6:	6d63      	ldr	r3, [r4, #84]	@ 0x54
 8003ca8:	f043 0304 	orr.w	r3, r3, #4
 8003cac:	6563      	str	r3, [r4, #84]	@ 0x54
        __HAL_SPI_CLEAR_OVRFLAG(hspi);
 8003cae:	2300      	movs	r3, #0
 8003cb0:	9301      	str	r3, [sp, #4]
 8003cb2:	68d3      	ldr	r3, [r2, #12]
 8003cb4:	9301      	str	r3, [sp, #4]
 8003cb6:	6893      	ldr	r3, [r2, #8]
 8003cb8:	9301      	str	r3, [sp, #4]
 8003cba:	9b01      	ldr	r3, [sp, #4]
    if (SPI_CHECK_FLAG(itflag, SPI_FLAG_MODF) != RESET)
 8003cbc:	b165      	cbz	r5, 8003cd8 <HAL_SPI_IRQHandler+0x80>
      SET_BIT(hspi->ErrorCode, HAL_SPI_ERROR_MODF);
 8003cbe:	6d63      	ldr	r3, [r4, #84]	@ 0x54
 8003cc0:	f043 0301 	orr.w	r3, r3, #1
 8003cc4:	6563      	str	r3, [r4, #84]	@ 0x54
      __HAL_SPI_CLEAR_MODFFLAG(hspi);
 8003cc6:	2300      	movs	r3, #0
 8003cc8:	9303      	str	r3, [sp, #12]
 8003cca:	6893      	ldr	r3, [r2, #8]
 8003ccc:	9303      	str	r3, [sp, #12]
 8003cce:	6813      	ldr	r3, [r2, #0]
 8003cd0:	f023 0340 	bic.w	r3, r3, #64	@ 0x40
 8003cd4:	6013      	str	r3, [r2, #0]
 8003cd6:	9b03      	ldr	r3, [sp, #12]
    if (hspi->ErrorCode != HAL_SPI_ERROR_NONE)
 8003cd8:	6d63      	ldr	r3, [r4, #84]	@ 0x54
 8003cda:	2b00      	cmp	r3, #0
 8003cdc:	d02f      	beq.n	8003d3e <HAL_SPI_IRQHandler+0xe6>
      __HAL_SPI_DISABLE_IT(hspi, SPI_IT_RXNE | SPI_IT_TXE | SPI_IT_ERR);
 8003cde:	6822      	ldr	r2, [r4, #0]
 8003ce0:	6853      	ldr	r3, [r2, #4]
 8003ce2:	f023 03e0 	bic.w	r3, r3, #224	@ 0xe0
 8003ce6:	6053      	str	r3, [r2, #4]
      hspi->State = HAL_SPI_STATE_READY;
 8003ce8:	2301      	movs	r3, #1
 8003cea:	f884 3051 	strb.w	r3, [r4, #81]	@ 0x51
      if ((HAL_IS_BIT_SET(itsource, SPI_CR2_TXDMAEN)) || (HAL_IS_BIT_SET(itsource, SPI_CR2_RXDMAEN)))
 8003cee:	f011 0f03 	tst.w	r1, #3
 8003cf2:	d02e      	beq.n	8003d52 <HAL_SPI_IRQHandler+0xfa>
        CLEAR_BIT(hspi->Instance->CR2, (SPI_CR2_TXDMAEN | SPI_CR2_RXDMAEN));
 8003cf4:	6822      	ldr	r2, [r4, #0]
 8003cf6:	6853      	ldr	r3, [r2, #4]
 8003cf8:	f023 0303 	bic.w	r3, r3, #3
 8003cfc:	6053      	str	r3, [r2, #4]
        if (hspi->hdmarx != NULL)
 8003cfe:	6ce3      	ldr	r3, [r4, #76]	@ 0x4c
 8003d00:	b14b      	cbz	r3, 8003d16 <HAL_SPI_IRQHandler+0xbe>
          hspi->hdmarx->XferAbortCallback = SPI_DMAAbortOnError;
 8003d02:	4a16      	ldr	r2, [pc, #88]	@ (8003d5c <HAL_SPI_IRQHandler+0x104>)
 8003d04:	635a      	str	r2, [r3, #52]	@ 0x34
          if (HAL_OK != HAL_DMA_Abort_IT(hspi->hdmarx))
 8003d06:	6ce0      	ldr	r0, [r4, #76]	@ 0x4c
 8003d08:	f7fe ff74 	bl	8002bf4 <HAL_DMA_Abort_IT>
 8003d0c:	b118      	cbz	r0, 8003d16 <HAL_SPI_IRQHandler+0xbe>
            SET_BIT(hspi->ErrorCode, HAL_SPI_ERROR_ABORT);
 8003d0e:	6d63      	ldr	r3, [r4, #84]	@ 0x54
 8003d10:	f043 0340 	orr.w	r3, r3, #64	@ 0x40
 8003d14:	6563      	str	r3, [r4, #84]	@ 0x54
        if (hspi->hdmatx != NULL)
 8003d16:	6ca3      	ldr	r3, [r4, #72]	@ 0x48
 8003d18:	b18b      	cbz	r3, 8003d3e <HAL_SPI_IRQHandler+0xe6>
          hspi->hdmatx->XferAbortCallback = SPI_DMAAbortOnError;
 8003d1a:	4a10      	ldr	r2, [pc, #64]	@ (8003d5c <HAL_SPI_IRQHandler+0x104>)
 8003d1c:	635a      	str	r2, [r3, #52]	@ 0x34
          if (HAL_OK != HAL_DMA_Abort_IT(hspi->hdmatx))
 8003d1e:	6ca0      	ldr	r0, [r4, #72]	@ 0x48
 8003d20:	f7fe ff68 	bl	8002bf4 <HAL_DMA_Abort_IT>
 8003d24:	b158      	cbz	r0, 8003d3e <HAL_SPI_IRQHandler+0xe6>
            SET_BIT(hspi->ErrorCode, HAL_SPI_ERROR_ABORT);
 8003d26:	6d63      	ldr	r3, [r4, #84]	@ 0x54
 8003d28:	f043 0340 	orr.w	r3, r3, #64	@ 0x40
 8003d2c:	6563      	str	r3, [r4, #84]	@ 0x54
 8003d2e:	e006      	b.n	8003d3e <HAL_SPI_IRQHandler+0xe6>
    hspi->RxISR(hspi);
 8003d30:	6c23      	ldr	r3, [r4, #64]	@ 0x40
 8003d32:	4620      	mov	r0, r4
 8003d34:	4798      	blx	r3
    return;
 8003d36:	e002      	b.n	8003d3e <HAL_SPI_IRQHandler+0xe6>
    hspi->TxISR(hspi);
 8003d38:	6c63      	ldr	r3, [r4, #68]	@ 0x44
 8003d3a:	4620      	mov	r0, r4
 8003d3c:	4798      	blx	r3
}
 8003d3e:	b005      	add	sp, #20
 8003d40:	bd30      	pop	{r4, r5, pc}
        __HAL_SPI_CLEAR_OVRFLAG(hspi);
 8003d42:	2300      	movs	r3, #0
 8003d44:	9302      	str	r3, [sp, #8]
 8003d46:	68d3      	ldr	r3, [r2, #12]
 8003d48:	9302      	str	r3, [sp, #8]
 8003d4a:	6893      	ldr	r3, [r2, #8]
 8003d4c:	9302      	str	r3, [sp, #8]
 8003d4e:	9b02      	ldr	r3, [sp, #8]
        return;
 8003d50:	e7f5      	b.n	8003d3e <HAL_SPI_IRQHandler+0xe6>
        HAL_SPI_ErrorCallback(hspi);
 8003d52:	4620      	mov	r0, r4
 8003d54:	f7ff ff7f 	bl	8003c56 <HAL_SPI_ErrorCallback>
    return;
 8003d58:	e7f1      	b.n	8003d3e <HAL_SPI_IRQHandler+0xe6>
 8003d5a:	bf00      	nop
 8003d5c:	08003d61 	.word	0x08003d61

08003d60 <SPI_DMAAbortOnError>:
{
 8003d60:	b508      	push	{r3, lr}
  SPI_HandleTypeDef *hspi = (SPI_HandleTypeDef *)(((DMA_HandleTypeDef *)hdma)->Parent);
 8003d62:	6a40      	ldr	r0, [r0, #36]	@ 0x24
  hspi->RxXferCount = 0U;
 8003d64:	2300      	movs	r3, #0
 8003d66:	87c3      	strh	r3, [r0, #62]	@ 0x3e
  hspi->TxXferCount = 0U;
 8003d68:	86c3      	strh	r3, [r0, #54]	@ 0x36
  HAL_SPI_ErrorCallback(hspi);
 8003d6a:	f7ff ff74 	bl	8003c56 <HAL_SPI_ErrorCallback>
}
 8003d6e:	bd08      	pop	{r3, pc}

08003d70 <TIM_OC1_SetConfig>:
  * @param  TIMx to select the TIM peripheral
  * @param  OC_Config The output configuration structure
  * @retval None
  */
static void TIM_OC1_SetConfig(TIM_TypeDef *TIMx, const TIM_OC_InitTypeDef *OC_Config)
{
 8003d70:	b430      	push	{r4, r5}
  uint32_t tmpccmrx;
  uint32_t tmpccer;
  uint32_t tmpcr2;

  /* Get the TIMx CCER register value */
  tmpccer = TIMx->CCER;
 8003d72:	6a02      	ldr	r2, [r0, #32]

  /* Disable the Channel 1: Reset the CC1E Bit */
  TIMx->CCER &= ~TIM_CCER_CC1E;
 8003d74:	6a03      	ldr	r3, [r0, #32]
 8003d76:	f023 0301 	bic.w	r3, r3, #1
 8003d7a:	6203      	str	r3, [r0, #32]

  /* Get the TIMx CR2 register value */
  tmpcr2 =  TIMx->CR2;
 8003d7c:	6845      	ldr	r5, [r0, #4]

  /* Get the TIMx CCMR1 register value */
  tmpccmrx = TIMx->CCMR1;
 8003d7e:	6983      	ldr	r3, [r0, #24]

  /* Reset the Output Compare Mode Bits */
  tmpccmrx &= ~TIM_CCMR1_OC1M;
  tmpccmrx &= ~TIM_CCMR1_CC1S;
 8003d80:	f023 0373 	bic.w	r3, r3, #115	@ 0x73
  /* Select the Output Compare Mode */
  tmpccmrx |= OC_Config->OCMode;
 8003d84:	680c      	ldr	r4, [r1, #0]
 8003d86:	431c      	orrs	r4, r3

  /* Reset the Output Polarity level */
  tmpccer &= ~TIM_CCER_CC1P;
 8003d88:	f022 0202 	bic.w	r2, r2, #2
  /* Set the Output Compare Polarity */
  tmpccer |= OC_Config->OCPolarity;
 8003d8c:	688b      	ldr	r3, [r1, #8]
 8003d8e:	4313      	orrs	r3, r2

  if (IS_TIM_CCXN_INSTANCE(TIMx, TIM_CHANNEL_1))
 8003d90:	4a0b      	ldr	r2, [pc, #44]	@ (8003dc0 <TIM_OC1_SetConfig+0x50>)
 8003d92:	4290      	cmp	r0, r2
 8003d94:	d006      	beq.n	8003da4 <TIM_OC1_SetConfig+0x34>
    /* Set the Output N Idle state */
    tmpcr2 |= OC_Config->OCNIdleState;
  }

  /* Write to TIMx CR2 */
  TIMx->CR2 = tmpcr2;
 8003d96:	6045      	str	r5, [r0, #4]

  /* Write to TIMx CCMR1 */
  TIMx->CCMR1 = tmpccmrx;
 8003d98:	6184      	str	r4, [r0, #24]

  /* Set the Capture Compare Register value */
  TIMx->CCR1 = OC_Config->Pulse;
 8003d9a:	684a      	ldr	r2, [r1, #4]
 8003d9c:	6342      	str	r2, [r0, #52]	@ 0x34

  /* Write to TIMx CCER */
  TIMx->CCER = tmpccer;
 8003d9e:	6203      	str	r3, [r0, #32]
}
 8003da0:	bc30      	pop	{r4, r5}
 8003da2:	4770      	bx	lr
    tmpccer &= ~TIM_CCER_CC1NP;
 8003da4:	f023 0308 	bic.w	r3, r3, #8
    tmpccer |= OC_Config->OCNPolarity;
 8003da8:	68ca      	ldr	r2, [r1, #12]
 8003daa:	431a      	orrs	r2, r3
    tmpccer &= ~TIM_CCER_CC1NE;
 8003dac:	f022 0304 	bic.w	r3, r2, #4
    tmpcr2 &= ~TIM_CR2_OIS1N;
 8003db0:	f425 7540 	bic.w	r5, r5, #768	@ 0x300
    tmpcr2 |= OC_Config->OCIdleState;
 8003db4:	694a      	ldr	r2, [r1, #20]
 8003db6:	432a      	orrs	r2, r5
    tmpcr2 |= OC_Config->OCNIdleState;
 8003db8:	698d      	ldr	r5, [r1, #24]
 8003dba:	4315      	orrs	r5, r2
 8003dbc:	e7eb      	b.n	8003d96 <TIM_OC1_SetConfig+0x26>
 8003dbe:	bf00      	nop
 8003dc0:	40012c00 	.word	0x40012c00

08003dc4 <TIM_OC3_SetConfig>:
  * @param  TIMx to select the TIM peripheral
  * @param  OC_Config The output configuration structure
  * @retval None
  */
static void TIM_OC3_SetConfig(TIM_TypeDef *TIMx, const TIM_OC_InitTypeDef *OC_Config)
{
 8003dc4:	b430      	push	{r4, r5}
  uint32_t tmpccmrx;
  uint32_t tmpccer;
  uint32_t tmpcr2;

  /* Get the TIMx CCER register value */
  tmpccer = TIMx->CCER;
 8003dc6:	6a03      	ldr	r3, [r0, #32]

  /* Disable the Channel 3: Reset the CC2E Bit */
  TIMx->CCER &= ~TIM_CCER_CC3E;
 8003dc8:	6a02      	ldr	r2, [r0, #32]
 8003dca:	f422 7280 	bic.w	r2, r2, #256	@ 0x100
 8003dce:	6202      	str	r2, [r0, #32]

  /* Get the TIMx CR2 register value */
  tmpcr2 =  TIMx->CR2;
 8003dd0:	6844      	ldr	r4, [r0, #4]

  /* Get the TIMx CCMR2 register value */
  tmpccmrx = TIMx->CCMR2;
 8003dd2:	69c2      	ldr	r2, [r0, #28]

  /* Reset the Output Compare mode and Capture/Compare selection Bits */
  tmpccmrx &= ~TIM_CCMR2_OC3M;
  tmpccmrx &= ~TIM_CCMR2_CC3S;
 8003dd4:	f022 0273 	bic.w	r2, r2, #115	@ 0x73
  /* Select the Output Compare Mode */
  tmpccmrx |= OC_Config->OCMode;
 8003dd8:	680d      	ldr	r5, [r1, #0]
 8003dda:	4315      	orrs	r5, r2

  /* Reset the Output Polarity level */
  tmpccer &= ~TIM_CCER_CC3P;
 8003ddc:	f423 7300 	bic.w	r3, r3, #512	@ 0x200
  /* Set the Output Compare Polarity */
  tmpccer |= (OC_Config->OCPolarity << 8U);
 8003de0:	688a      	ldr	r2, [r1, #8]
 8003de2:	ea43 2302 	orr.w	r3, r3, r2, lsl #8

  if (IS_TIM_CCXN_INSTANCE(TIMx, TIM_CHANNEL_3))
 8003de6:	4a0d      	ldr	r2, [pc, #52]	@ (8003e1c <TIM_OC3_SetConfig+0x58>)
 8003de8:	4290      	cmp	r0, r2
 8003dea:	d006      	beq.n	8003dfa <TIM_OC3_SetConfig+0x36>
    /* Set the Output N Idle state */
    tmpcr2 |= (OC_Config->OCNIdleState << 4U);
  }

  /* Write to TIMx CR2 */
  TIMx->CR2 = tmpcr2;
 8003dec:	6044      	str	r4, [r0, #4]

  /* Write to TIMx CCMR2 */
  TIMx->CCMR2 = tmpccmrx;
 8003dee:	61c5      	str	r5, [r0, #28]

  /* Set the Capture Compare Register value */
  TIMx->CCR3 = OC_Config->Pulse;
 8003df0:	684a      	ldr	r2, [r1, #4]
 8003df2:	63c2      	str	r2, [r0, #60]	@ 0x3c

  /* Write to TIMx CCER */
  TIMx->CCER = tmpccer;
 8003df4:	6203      	str	r3, [r0, #32]
}
 8003df6:	bc30      	pop	{r4, r5}
 8003df8:	4770      	bx	lr
    tmpccer &= ~TIM_CCER_CC3NP;
 8003dfa:	f423 6300 	bic.w	r3, r3, #2048	@ 0x800
    tmpccer |= (OC_Config->OCNPolarity << 8U);
 8003dfe:	68ca      	ldr	r2, [r1, #12]
 8003e00:	ea43 2302 	orr.w	r3, r3, r2, lsl #8
    tmpccer &= ~TIM_CCER_CC3NE;
 8003e04:	f423 6380 	bic.w	r3, r3, #1024	@ 0x400
    tmpcr2 &= ~TIM_CR2_OIS3N;
 8003e08:	f424 5440 	bic.w	r4, r4, #12288	@ 0x3000
    tmpcr2 |= (OC_Config->OCIdleState << 4U);
 8003e0c:	694a      	ldr	r2, [r1, #20]
 8003e0e:	ea44 1402 	orr.w	r4, r4, r2, lsl #4
    tmpcr2 |= (OC_Config->OCNIdleState << 4U);
 8003e12:	698a      	ldr	r2, [r1, #24]
 8003e14:	ea44 1402 	orr.w	r4, r4, r2, lsl #4
 8003e18:	e7e8      	b.n	8003dec <TIM_OC3_SetConfig+0x28>
 8003e1a:	bf00      	nop
 8003e1c:	40012c00 	.word	0x40012c00

08003e20 <TIM_OC4_SetConfig>:
  * @param  TIMx to select the TIM peripheral
  * @param  OC_Config The output configuration structure
  * @retval None
  */
static void TIM_OC4_SetConfig(TIM_TypeDef *TIMx, const TIM_OC_InitTypeDef *OC_Config)
{
 8003e20:	b430      	push	{r4, r5}
  uint32_t tmpccmrx;
  uint32_t tmpccer;
  uint32_t tmpcr2;

  /* Get the TIMx CCER register value */
  tmpccer = TIMx->CCER;
 8003e22:	6a03      	ldr	r3, [r0, #32]

  /* Disable the Channel 4: Reset the CC4E Bit */
  TIMx->CCER &= ~TIM_CCER_CC4E;
 8003e24:	6a02      	ldr	r2, [r0, #32]
 8003e26:	f422 5280 	bic.w	r2, r2, #4096	@ 0x1000
 8003e2a:	6202      	str	r2, [r0, #32]

  /* Get the TIMx CR2 register value */
  tmpcr2 =  TIMx->CR2;
 8003e2c:	6844      	ldr	r4, [r0, #4]

  /* Get the TIMx CCMR2 register value */
  tmpccmrx = TIMx->CCMR2;
 8003e2e:	69c2      	ldr	r2, [r0, #28]

  /* Reset the Output Compare mode and Capture/Compare selection Bits */
  tmpccmrx &= ~TIM_CCMR2_OC4M;
  tmpccmrx &= ~TIM_CCMR2_CC4S;
 8003e30:	f422 42e6 	bic.w	r2, r2, #29440	@ 0x7300

  /* Select the Output Compare Mode */
  tmpccmrx |= (OC_Config->OCMode << 8U);
 8003e34:	680d      	ldr	r5, [r1, #0]
 8003e36:	ea42 2205 	orr.w	r2, r2, r5, lsl #8

  /* Reset the Output Polarity level */
  tmpccer &= ~TIM_CCER_CC4P;
 8003e3a:	f423 5300 	bic.w	r3, r3, #8192	@ 0x2000
  /* Set the Output Compare Polarity */
  tmpccer |= (OC_Config->OCPolarity << 12U);
 8003e3e:	688d      	ldr	r5, [r1, #8]
 8003e40:	ea43 3305 	orr.w	r3, r3, r5, lsl #12

  if (IS_TIM_BREAK_INSTANCE(TIMx))
 8003e44:	4d07      	ldr	r5, [pc, #28]	@ (8003e64 <TIM_OC4_SetConfig+0x44>)
 8003e46:	42a8      	cmp	r0, r5
 8003e48:	d006      	beq.n	8003e58 <TIM_OC4_SetConfig+0x38>
    /* Set the Output Idle state */
    tmpcr2 |= (OC_Config->OCIdleState << 6U);
  }

  /* Write to TIMx CR2 */
  TIMx->CR2 = tmpcr2;
 8003e4a:	6044      	str	r4, [r0, #4]

  /* Write to TIMx CCMR2 */
  TIMx->CCMR2 = tmpccmrx;
 8003e4c:	61c2      	str	r2, [r0, #28]

  /* Set the Capture Compare Register value */
  TIMx->CCR4 = OC_Config->Pulse;
 8003e4e:	684a      	ldr	r2, [r1, #4]
 8003e50:	6402      	str	r2, [r0, #64]	@ 0x40

  /* Write to TIMx CCER */
  TIMx->CCER = tmpccer;
 8003e52:	6203      	str	r3, [r0, #32]
}
 8003e54:	bc30      	pop	{r4, r5}
 8003e56:	4770      	bx	lr
    tmpcr2 &= ~TIM_CR2_OIS4;
 8003e58:	f424 4480 	bic.w	r4, r4, #16384	@ 0x4000
    tmpcr2 |= (OC_Config->OCIdleState << 6U);
 8003e5c:	694d      	ldr	r5, [r1, #20]
 8003e5e:	ea44 1485 	orr.w	r4, r4, r5, lsl #6
 8003e62:	e7f2      	b.n	8003e4a <TIM_OC4_SetConfig+0x2a>
 8003e64:	40012c00 	.word	0x40012c00

08003e68 <TIM_TI2_SetConfig>:
  *       (on channel1 path) is used as the input signal. Therefore CCMR1 must be
  *        protected against un-initialized filter and polarity values.
  */
static void TIM_TI2_SetConfig(TIM_TypeDef *TIMx, uint32_t TIM_ICPolarity, uint32_t TIM_ICSelection,
                              uint32_t TIM_ICFilter)
{
 8003e68:	b430      	push	{r4, r5}
  uint32_t tmpccmr1;
  uint32_t tmpccer;

  /* Disable the Channel 2: Reset the CC2E Bit */
  tmpccer = TIMx->CCER;
 8003e6a:	6a05      	ldr	r5, [r0, #32]
  TIMx->CCER &= ~TIM_CCER_CC2E;
 8003e6c:	6a04      	ldr	r4, [r0, #32]
 8003e6e:	f024 0410 	bic.w	r4, r4, #16
 8003e72:	6204      	str	r4, [r0, #32]
  tmpccmr1 = TIMx->CCMR1;
 8003e74:	6984      	ldr	r4, [r0, #24]

  /* Select the Input */
  tmpccmr1 &= ~TIM_CCMR1_CC2S;
 8003e76:	f424 7c40 	bic.w	ip, r4, #768	@ 0x300
  tmpccmr1 |= (TIM_ICSelection << 8U);
 8003e7a:	ea4c 2c02 	orr.w	ip, ip, r2, lsl #8

  /* Set the filter */
  tmpccmr1 &= ~TIM_CCMR1_IC2F;
 8003e7e:	f42c 4c70 	bic.w	ip, ip, #61440	@ 0xf000
  tmpccmr1 |= ((TIM_ICFilter << 12U) & TIM_CCMR1_IC2F);
 8003e82:	031b      	lsls	r3, r3, #12
 8003e84:	b29b      	uxth	r3, r3
 8003e86:	ea43 030c 	orr.w	r3, r3, ip

  /* Select the Polarity and set the CC2E Bit */
  tmpccer &= ~(TIM_CCER_CC2P | TIM_CCER_CC2NP);
 8003e8a:	f025 05a0 	bic.w	r5, r5, #160	@ 0xa0
  tmpccer |= ((TIM_ICPolarity << 4U) & (TIM_CCER_CC2P | TIM_CCER_CC2NP));
 8003e8e:	0109      	lsls	r1, r1, #4
 8003e90:	f001 01a0 	and.w	r1, r1, #160	@ 0xa0
 8003e94:	4329      	orrs	r1, r5

  /* Write to TIMx CCMR1 and CCER registers */
  TIMx->CCMR1 = tmpccmr1 ;
 8003e96:	6183      	str	r3, [r0, #24]
  TIMx->CCER = tmpccer;
 8003e98:	6201      	str	r1, [r0, #32]
}
 8003e9a:	bc30      	pop	{r4, r5}
 8003e9c:	4770      	bx	lr

08003e9e <TIM_TI3_SetConfig>:
  *       (on channel1 path) is used as the input signal. Therefore CCMR2 must be
  *        protected against un-initialized filter and polarity values.
  */
static void TIM_TI3_SetConfig(TIM_TypeDef *TIMx, uint32_t TIM_ICPolarity, uint32_t TIM_ICSelection,
                              uint32_t TIM_ICFilter)
{
 8003e9e:	b430      	push	{r4, r5}
  uint32_t tmpccmr2;
  uint32_t tmpccer;

  /* Disable the Channel 3: Reset the CC3E Bit */
  tmpccer = TIMx->CCER;
 8003ea0:	6a05      	ldr	r5, [r0, #32]
  TIMx->CCER &= ~TIM_CCER_CC3E;
 8003ea2:	6a04      	ldr	r4, [r0, #32]
 8003ea4:	f424 7480 	bic.w	r4, r4, #256	@ 0x100
 8003ea8:	6204      	str	r4, [r0, #32]
  tmpccmr2 = TIMx->CCMR2;
 8003eaa:	69c4      	ldr	r4, [r0, #28]

  /* Select the Input */
  tmpccmr2 &= ~TIM_CCMR2_CC3S;
 8003eac:	f024 0c03 	bic.w	ip, r4, #3
  tmpccmr2 |= TIM_ICSelection;
 8003eb0:	ea4c 0c02 	orr.w	ip, ip, r2

  /* Set the filter */
  tmpccmr2 &= ~TIM_CCMR2_IC3F;
 8003eb4:	f02c 0cf0 	bic.w	ip, ip, #240	@ 0xf0
  tmpccmr2 |= ((TIM_ICFilter << 4U) & TIM_CCMR2_IC3F);
 8003eb8:	011b      	lsls	r3, r3, #4
 8003eba:	b2db      	uxtb	r3, r3
 8003ebc:	ea43 030c 	orr.w	r3, r3, ip

  /* Select the Polarity and set the CC3E Bit */
  tmpccer &= ~(TIM_CCER_CC3P);
 8003ec0:	f425 7500 	bic.w	r5, r5, #512	@ 0x200
  tmpccer |= ((TIM_ICPolarity << 8U) & TIM_CCER_CC3P);
 8003ec4:	0209      	lsls	r1, r1, #8
 8003ec6:	f401 7100 	and.w	r1, r1, #512	@ 0x200
 8003eca:	4329      	orrs	r1, r5

  /* Write to TIMx CCMR2 and CCER registers */
  TIMx->CCMR2 = tmpccmr2;
 8003ecc:	61c3      	str	r3, [r0, #28]
  TIMx->CCER = tmpccer;
 8003ece:	6201      	str	r1, [r0, #32]
}
 8003ed0:	bc30      	pop	{r4, r5}
 8003ed2:	4770      	bx	lr

08003ed4 <TIM_TI4_SetConfig>:
  *        protected against un-initialized filter and polarity values.
  * @retval None
  */
static void TIM_TI4_SetConfig(TIM_TypeDef *TIMx, uint32_t TIM_ICPolarity, uint32_t TIM_ICSelection,
                              uint32_t TIM_ICFilter)
{
 8003ed4:	b430      	push	{r4, r5}
  uint32_t tmpccmr2;
  uint32_t tmpccer;

  /* Disable the Channel 4: Reset the CC4E Bit */
  tmpccer = TIMx->CCER;
 8003ed6:	6a05      	ldr	r5, [r0, #32]
  TIMx->CCER &= ~TIM_CCER_CC4E;
 8003ed8:	6a04      	ldr	r4, [r0, #32]
 8003eda:	f424 5480 	bic.w	r4, r4, #4096	@ 0x1000
 8003ede:	6204      	str	r4, [r0, #32]
  tmpccmr2 = TIMx->CCMR2;
 8003ee0:	69c4      	ldr	r4, [r0, #28]

  /* Select the Input */
  tmpccmr2 &= ~TIM_CCMR2_CC4S;
 8003ee2:	f424 7c40 	bic.w	ip, r4, #768	@ 0x300
  tmpccmr2 |= (TIM_ICSelection << 8U);
 8003ee6:	ea4c 2c02 	orr.w	ip, ip, r2, lsl #8

  /* Set the filter */
  tmpccmr2 &= ~TIM_CCMR2_IC4F;
 8003eea:	f42c 4c70 	bic.w	ip, ip, #61440	@ 0xf000
  tmpccmr2 |= ((TIM_ICFilter << 12U) & TIM_CCMR2_IC4F);
 8003eee:	031b      	lsls	r3, r3, #12
 8003ef0:	b29b      	uxth	r3, r3
 8003ef2:	ea43 030c 	orr.w	r3, r3, ip

  /* Select the Polarity and set the CC4E Bit */
  tmpccer &= ~(TIM_CCER_CC4P);
 8003ef6:	f425 5500 	bic.w	r5, r5, #8192	@ 0x2000
  tmpccer |= ((TIM_ICPolarity << 12U) & TIM_CCER_CC4P);
 8003efa:	0309      	lsls	r1, r1, #12
 8003efc:	f401 5100 	and.w	r1, r1, #8192	@ 0x2000
 8003f00:	4329      	orrs	r1, r5

  /* Write to TIMx CCMR2 and CCER registers */
  TIMx->CCMR2 = tmpccmr2;
 8003f02:	61c3      	str	r3, [r0, #28]
  TIMx->CCER = tmpccer ;
 8003f04:	6201      	str	r1, [r0, #32]
}
 8003f06:	bc30      	pop	{r4, r5}
 8003f08:	4770      	bx	lr
	...

08003f0c <HAL_TIM_Base_Start_IT>:
  if (htim->State != HAL_TIM_STATE_READY)
 8003f0c:	f890 303d 	ldrb.w	r3, [r0, #61]	@ 0x3d
 8003f10:	b2db      	uxtb	r3, r3
 8003f12:	2b01      	cmp	r3, #1
 8003f14:	d127      	bne.n	8003f66 <HAL_TIM_Base_Start_IT+0x5a>
  htim->State = HAL_TIM_STATE_BUSY;
 8003f16:	2302      	movs	r3, #2
 8003f18:	f880 303d 	strb.w	r3, [r0, #61]	@ 0x3d
  __HAL_TIM_ENABLE_IT(htim, TIM_IT_UPDATE);
 8003f1c:	6802      	ldr	r2, [r0, #0]
 8003f1e:	68d3      	ldr	r3, [r2, #12]
 8003f20:	f043 0301 	orr.w	r3, r3, #1
 8003f24:	60d3      	str	r3, [r2, #12]
  if (IS_TIM_SLAVE_INSTANCE(htim->Instance))
 8003f26:	6803      	ldr	r3, [r0, #0]
 8003f28:	4a11      	ldr	r2, [pc, #68]	@ (8003f70 <HAL_TIM_Base_Start_IT+0x64>)
 8003f2a:	4293      	cmp	r3, r2
 8003f2c:	d010      	beq.n	8003f50 <HAL_TIM_Base_Start_IT+0x44>
 8003f2e:	f1b3 4f80 	cmp.w	r3, #1073741824	@ 0x40000000
 8003f32:	d00d      	beq.n	8003f50 <HAL_TIM_Base_Start_IT+0x44>
 8003f34:	f5a2 3294 	sub.w	r2, r2, #75776	@ 0x12800
 8003f38:	4293      	cmp	r3, r2
 8003f3a:	d009      	beq.n	8003f50 <HAL_TIM_Base_Start_IT+0x44>
 8003f3c:	f502 6280 	add.w	r2, r2, #1024	@ 0x400
 8003f40:	4293      	cmp	r3, r2
 8003f42:	d005      	beq.n	8003f50 <HAL_TIM_Base_Start_IT+0x44>
    __HAL_TIM_ENABLE(htim);
 8003f44:	681a      	ldr	r2, [r3, #0]
 8003f46:	f042 0201 	orr.w	r2, r2, #1
 8003f4a:	601a      	str	r2, [r3, #0]
  return HAL_OK;
 8003f4c:	2000      	movs	r0, #0
 8003f4e:	4770      	bx	lr
    tmpsmcr = htim->Instance->SMCR & TIM_SMCR_SMS;
 8003f50:	689a      	ldr	r2, [r3, #8]
 8003f52:	f002 0207 	and.w	r2, r2, #7
    if (!IS_TIM_SLAVEMODE_TRIGGER_ENABLED(tmpsmcr))
 8003f56:	2a06      	cmp	r2, #6
 8003f58:	d007      	beq.n	8003f6a <HAL_TIM_Base_Start_IT+0x5e>
      __HAL_TIM_ENABLE(htim);
 8003f5a:	681a      	ldr	r2, [r3, #0]
 8003f5c:	f042 0201 	orr.w	r2, r2, #1
 8003f60:	601a      	str	r2, [r3, #0]
  return HAL_OK;
 8003f62:	2000      	movs	r0, #0
 8003f64:	4770      	bx	lr
    return HAL_ERROR;
 8003f66:	2001      	movs	r0, #1
 8003f68:	4770      	bx	lr
  return HAL_OK;
 8003f6a:	2000      	movs	r0, #0
}
 8003f6c:	4770      	bx	lr
 8003f6e:	bf00      	nop
 8003f70:	40012c00 	.word	0x40012c00

08003f74 <HAL_TIM_OC_DelayElapsedCallback>:
}
 8003f74:	4770      	bx	lr

08003f76 <HAL_TIM_IC_CaptureCallback>:
}
 8003f76:	4770      	bx	lr

08003f78 <HAL_TIM_PWM_PulseFinishedCallback>:
}
 8003f78:	4770      	bx	lr

08003f7a <HAL_TIM_TriggerCallback>:
}
 8003f7a:	4770      	bx	lr

08003f7c <HAL_TIM_IRQHandler>:
{
 8003f7c:	b570      	push	{r4, r5, r6, lr}
 8003f7e:	4604      	mov	r4, r0
  uint32_t itsource = htim->Instance->DIER;
 8003f80:	6803      	ldr	r3, [r0, #0]
 8003f82:	68de      	ldr	r6, [r3, #12]
  uint32_t itflag   = htim->Instance->SR;
 8003f84:	691d      	ldr	r5, [r3, #16]
  if ((itflag & (TIM_FLAG_CC1)) == (TIM_FLAG_CC1))
 8003f86:	f015 0f02 	tst.w	r5, #2
 8003f8a:	d010      	beq.n	8003fae <HAL_TIM_IRQHandler+0x32>
    if ((itsource & (TIM_IT_CC1)) == (TIM_IT_CC1))
 8003f8c:	f016 0f02 	tst.w	r6, #2
 8003f90:	d00d      	beq.n	8003fae <HAL_TIM_IRQHandler+0x32>
        __HAL_TIM_CLEAR_FLAG(htim, TIM_FLAG_CC1);
 8003f92:	f06f 0202 	mvn.w	r2, #2
 8003f96:	611a      	str	r2, [r3, #16]
        htim->Channel = HAL_TIM_ACTIVE_CHANNEL_1;
 8003f98:	2301      	movs	r3, #1
 8003f9a:	7703      	strb	r3, [r0, #28]
        if ((htim->Instance->CCMR1 & TIM_CCMR1_CC1S) != 0x00U)
 8003f9c:	6803      	ldr	r3, [r0, #0]
 8003f9e:	699b      	ldr	r3, [r3, #24]
 8003fa0:	f013 0f03 	tst.w	r3, #3
 8003fa4:	d05e      	beq.n	8004064 <HAL_TIM_IRQHandler+0xe8>
          HAL_TIM_IC_CaptureCallback(htim);
 8003fa6:	f7ff ffe6 	bl	8003f76 <HAL_TIM_IC_CaptureCallback>
        htim->Channel = HAL_TIM_ACTIVE_CHANNEL_CLEARED;
 8003faa:	2300      	movs	r3, #0
 8003fac:	7723      	strb	r3, [r4, #28]
  if ((itflag & (TIM_FLAG_CC2)) == (TIM_FLAG_CC2))
 8003fae:	f015 0f04 	tst.w	r5, #4
 8003fb2:	d012      	beq.n	8003fda <HAL_TIM_IRQHandler+0x5e>
    if ((itsource & (TIM_IT_CC2)) == (TIM_IT_CC2))
 8003fb4:	f016 0f04 	tst.w	r6, #4
 8003fb8:	d00f      	beq.n	8003fda <HAL_TIM_IRQHandler+0x5e>
      __HAL_TIM_CLEAR_FLAG(htim, TIM_FLAG_CC2);
 8003fba:	6823      	ldr	r3, [r4, #0]
 8003fbc:	f06f 0204 	mvn.w	r2, #4
 8003fc0:	611a      	str	r2, [r3, #16]
      htim->Channel = HAL_TIM_ACTIVE_CHANNEL_2;
 8003fc2:	2302      	movs	r3, #2
 8003fc4:	7723      	strb	r3, [r4, #28]
      if ((htim->Instance->CCMR1 & TIM_CCMR1_CC2S) != 0x00U)
 8003fc6:	6823      	ldr	r3, [r4, #0]
 8003fc8:	699b      	ldr	r3, [r3, #24]
 8003fca:	f413 7f40 	tst.w	r3, #768	@ 0x300
 8003fce:	d04f      	beq.n	8004070 <HAL_TIM_IRQHandler+0xf4>
        HAL_TIM_IC_CaptureCallback(htim);
 8003fd0:	4620      	mov	r0, r4
 8003fd2:	f7ff ffd0 	bl	8003f76 <HAL_TIM_IC_CaptureCallback>
      htim->Channel = HAL_TIM_ACTIVE_CHANNEL_CLEARED;
 8003fd6:	2300      	movs	r3, #0
 8003fd8:	7723      	strb	r3, [r4, #28]
  if ((itflag & (TIM_FLAG_CC3)) == (TIM_FLAG_CC3))
 8003fda:	f015 0f08 	tst.w	r5, #8
 8003fde:	d012      	beq.n	8004006 <HAL_TIM_IRQHandler+0x8a>
    if ((itsource & (TIM_IT_CC3)) == (TIM_IT_CC3))
 8003fe0:	f016 0f08 	tst.w	r6, #8
 8003fe4:	d00f      	beq.n	8004006 <HAL_TIM_IRQHandler+0x8a>
      __HAL_TIM_CLEAR_FLAG(htim, TIM_FLAG_CC3);
 8003fe6:	6823      	ldr	r3, [r4, #0]
 8003fe8:	f06f 0208 	mvn.w	r2, #8
 8003fec:	611a      	str	r2, [r3, #16]
      htim->Channel = HAL_TIM_ACTIVE_CHANNEL_3;
 8003fee:	2304      	movs	r3, #4
 8003ff0:	7723      	strb	r3, [r4, #28]
      if ((htim->Instance->CCMR2 & TIM_CCMR2_CC3S) != 0x00U)
 8003ff2:	6823      	ldr	r3, [r4, #0]
 8003ff4:	69db      	ldr	r3, [r3, #28]
 8003ff6:	f013 0f03 	tst.w	r3, #3
 8003ffa:	d040      	beq.n	800407e <HAL_TIM_IRQHandler+0x102>
        HAL_TIM_IC_CaptureCallback(htim);
 8003ffc:	4620      	mov	r0, r4
 8003ffe:	f7ff ffba 	bl	8003f76 <HAL_TIM_IC_CaptureCallback>
      htim->Channel = HAL_TIM_ACTIVE_CHANNEL_CLEARED;
 8004002:	2300      	movs	r3, #0
 8004004:	7723      	strb	r3, [r4, #28]
  if ((itflag & (TIM_FLAG_CC4)) == (TIM_FLAG_CC4))
 8004006:	f015 0f10 	tst.w	r5, #16
 800400a:	d012      	beq.n	8004032 <HAL_TIM_IRQHandler+0xb6>
    if ((itsource & (TIM_IT_CC4)) == (TIM_IT_CC4))
 800400c:	f016 0f10 	tst.w	r6, #16
 8004010:	d00f      	beq.n	8004032 <HAL_TIM_IRQHandler+0xb6>
      __HAL_TIM_CLEAR_FLAG(htim, TIM_FLAG_CC4);
 8004012:	6823      	ldr	r3, [r4, #0]
 8004014:	f06f 0210 	mvn.w	r2, #16
 8004018:	611a      	str	r2, [r3, #16]
      htim->Channel = HAL_TIM_ACTIVE_CHANNEL_4;
 800401a:	2308      	movs	r3, #8
 800401c:	7723      	strb	r3, [r4, #28]
      if ((htim->Instance->CCMR2 & TIM_CCMR2_CC4S) != 0x00U)
 800401e:	6823      	ldr	r3, [r4, #0]
 8004020:	69db      	ldr	r3, [r3, #28]
 8004022:	f413 7f40 	tst.w	r3, #768	@ 0x300
 8004026:	d031      	beq.n	800408c <HAL_TIM_IRQHandler+0x110>
        HAL_TIM_IC_CaptureCallback(htim);
 8004028:	4620      	mov	r0, r4
 800402a:	f7ff ffa4 	bl	8003f76 <HAL_TIM_IC_CaptureCallback>
      htim->Channel = HAL_TIM_ACTIVE_CHANNEL_CLEARED;
 800402e:	2300      	movs	r3, #0
 8004030:	7723      	strb	r3, [r4, #28]
  if ((itflag & (TIM_FLAG_UPDATE)) == (TIM_FLAG_UPDATE))
 8004032:	f015 0f01 	tst.w	r5, #1
 8004036:	d002      	beq.n	800403e <HAL_TIM_IRQHandler+0xc2>
    if ((itsource & (TIM_IT_UPDATE)) == (TIM_IT_UPDATE))
 8004038:	f016 0f01 	tst.w	r6, #1
 800403c:	d12d      	bne.n	800409a <HAL_TIM_IRQHandler+0x11e>
  if ((itflag & (TIM_FLAG_BREAK)) == (TIM_FLAG_BREAK))
 800403e:	f015 0f80 	tst.w	r5, #128	@ 0x80
 8004042:	d002      	beq.n	800404a <HAL_TIM_IRQHandler+0xce>
    if ((itsource & (TIM_IT_BREAK)) == (TIM_IT_BREAK))
 8004044:	f016 0f80 	tst.w	r6, #128	@ 0x80
 8004048:	d12f      	bne.n	80040aa <HAL_TIM_IRQHandler+0x12e>
  if ((itflag & (TIM_FLAG_TRIGGER)) == (TIM_FLAG_TRIGGER))
 800404a:	f015 0f40 	tst.w	r5, #64	@ 0x40
 800404e:	d002      	beq.n	8004056 <HAL_TIM_IRQHandler+0xda>
    if ((itsource & (TIM_IT_TRIGGER)) == (TIM_IT_TRIGGER))
 8004050:	f016 0f40 	tst.w	r6, #64	@ 0x40
 8004054:	d131      	bne.n	80040ba <HAL_TIM_IRQHandler+0x13e>
  if ((itflag & (TIM_FLAG_COM)) == (TIM_FLAG_COM))
 8004056:	f015 0f20 	tst.w	r5, #32
 800405a:	d002      	beq.n	8004062 <HAL_TIM_IRQHandler+0xe6>
    if ((itsource & (TIM_IT_COM)) == (TIM_IT_COM))
 800405c:	f016 0f20 	tst.w	r6, #32
 8004060:	d133      	bne.n	80040ca <HAL_TIM_IRQHandler+0x14e>
}
 8004062:	bd70      	pop	{r4, r5, r6, pc}
          HAL_TIM_OC_DelayElapsedCallback(htim);
 8004064:	f7ff ff86 	bl	8003f74 <HAL_TIM_OC_DelayElapsedCallback>
          HAL_TIM_PWM_PulseFinishedCallback(htim);
 8004068:	4620      	mov	r0, r4
 800406a:	f7ff ff85 	bl	8003f78 <HAL_TIM_PWM_PulseFinishedCallback>
 800406e:	e79c      	b.n	8003faa <HAL_TIM_IRQHandler+0x2e>
        HAL_TIM_OC_DelayElapsedCallback(htim);
 8004070:	4620      	mov	r0, r4
 8004072:	f7ff ff7f 	bl	8003f74 <HAL_TIM_OC_DelayElapsedCallback>
        HAL_TIM_PWM_PulseFinishedCallback(htim);
 8004076:	4620      	mov	r0, r4
 8004078:	f7ff ff7e 	bl	8003f78 <HAL_TIM_PWM_PulseFinishedCallback>
 800407c:	e7ab      	b.n	8003fd6 <HAL_TIM_IRQHandler+0x5a>
        HAL_TIM_OC_DelayElapsedCallback(htim);
 800407e:	4620      	mov	r0, r4
 8004080:	f7ff ff78 	bl	8003f74 <HAL_TIM_OC_DelayElapsedCallback>
        HAL_TIM_PWM_PulseFinishedCallback(htim);
 8004084:	4620      	mov	r0, r4
 8004086:	f7ff ff77 	bl	8003f78 <HAL_TIM_PWM_PulseFinishedCallback>
 800408a:	e7ba      	b.n	8004002 <HAL_TIM_IRQHandler+0x86>
        HAL_TIM_OC_DelayElapsedCallback(htim);
 800408c:	4620      	mov	r0, r4
 800408e:	f7ff ff71 	bl	8003f74 <HAL_TIM_OC_DelayElapsedCallback>
        HAL_TIM_PWM_PulseFinishedCallback(htim);
 8004092:	4620      	mov	r0, r4
 8004094:	f7ff ff70 	bl	8003f78 <HAL_TIM_PWM_PulseFinishedCallback>
 8004098:	e7c9      	b.n	800402e <HAL_TIM_IRQHandler+0xb2>
      __HAL_TIM_CLEAR_FLAG(htim, TIM_FLAG_UPDATE);
 800409a:	6823      	ldr	r3, [r4, #0]
 800409c:	f06f 0201 	mvn.w	r2, #1
 80040a0:	611a      	str	r2, [r3, #16]
      HAL_TIM_PeriodElapsedCallback(htim);
 80040a2:	4620      	mov	r0, r4
 80040a4:	f7fc fdac 	bl	8000c00 <HAL_TIM_PeriodElapsedCallback>
 80040a8:	e7c9      	b.n	800403e <HAL_TIM_IRQHandler+0xc2>
      __HAL_TIM_CLEAR_FLAG(htim, TIM_FLAG_BREAK);
 80040aa:	6823      	ldr	r3, [r4, #0]
 80040ac:	f06f 0280 	mvn.w	r2, #128	@ 0x80
 80040b0:	611a      	str	r2, [r3, #16]
      HAL_TIMEx_BreakCallback(htim);
 80040b2:	4620      	mov	r0, r4
 80040b4:	f000 fbf5 	bl	80048a2 <HAL_TIMEx_BreakCallback>
 80040b8:	e7c7      	b.n	800404a <HAL_TIM_IRQHandler+0xce>
      __HAL_TIM_CLEAR_FLAG(htim, TIM_FLAG_TRIGGER);
 80040ba:	6823      	ldr	r3, [r4, #0]
 80040bc:	f06f 0240 	mvn.w	r2, #64	@ 0x40
 80040c0:	611a      	str	r2, [r3, #16]
      HAL_TIM_TriggerCallback(htim);
 80040c2:	4620      	mov	r0, r4
 80040c4:	f7ff ff59 	bl	8003f7a <HAL_TIM_TriggerCallback>
 80040c8:	e7c5      	b.n	8004056 <HAL_TIM_IRQHandler+0xda>
      __HAL_TIM_CLEAR_FLAG(htim, TIM_FLAG_COM);
 80040ca:	6823      	ldr	r3, [r4, #0]
 80040cc:	f06f 0220 	mvn.w	r2, #32
 80040d0:	611a      	str	r2, [r3, #16]
      HAL_TIMEx_CommutCallback(htim);
 80040d2:	4620      	mov	r0, r4
 80040d4:	f000 fbe4 	bl	80048a0 <HAL_TIMEx_CommutCallback>
}
 80040d8:	e7c3      	b.n	8004062 <HAL_TIM_IRQHandler+0xe6>
	...

080040dc <TIM_Base_SetConfig>:
  tmpcr1 = TIMx->CR1;
 80040dc:	6803      	ldr	r3, [r0, #0]
  if (IS_TIM_COUNTER_MODE_SELECT_INSTANCE(TIMx))
 80040de:	4a1f      	ldr	r2, [pc, #124]	@ (800415c <TIM_Base_SetConfig+0x80>)
 80040e0:	4290      	cmp	r0, r2
 80040e2:	d00a      	beq.n	80040fa <TIM_Base_SetConfig+0x1e>
 80040e4:	f1b0 4f80 	cmp.w	r0, #1073741824	@ 0x40000000
 80040e8:	d007      	beq.n	80040fa <TIM_Base_SetConfig+0x1e>
 80040ea:	f5a2 3294 	sub.w	r2, r2, #75776	@ 0x12800
 80040ee:	4290      	cmp	r0, r2
 80040f0:	d003      	beq.n	80040fa <TIM_Base_SetConfig+0x1e>
 80040f2:	f502 6280 	add.w	r2, r2, #1024	@ 0x400
 80040f6:	4290      	cmp	r0, r2
 80040f8:	d103      	bne.n	8004102 <TIM_Base_SetConfig+0x26>
    tmpcr1 &= ~(TIM_CR1_DIR | TIM_CR1_CMS);
 80040fa:	f023 0370 	bic.w	r3, r3, #112	@ 0x70
    tmpcr1 |= Structure->CounterMode;
 80040fe:	684a      	ldr	r2, [r1, #4]
 8004100:	4313      	orrs	r3, r2
  if (IS_TIM_CLOCK_DIVISION_INSTANCE(TIMx))
 8004102:	4a16      	ldr	r2, [pc, #88]	@ (800415c <TIM_Base_SetConfig+0x80>)
 8004104:	4290      	cmp	r0, r2
 8004106:	d00a      	beq.n	800411e <TIM_Base_SetConfig+0x42>
 8004108:	f1b0 4f80 	cmp.w	r0, #1073741824	@ 0x40000000
 800410c:	d007      	beq.n	800411e <TIM_Base_SetConfig+0x42>
 800410e:	f5a2 3294 	sub.w	r2, r2, #75776	@ 0x12800
 8004112:	4290      	cmp	r0, r2
 8004114:	d003      	beq.n	800411e <TIM_Base_SetConfig+0x42>
 8004116:	f502 6280 	add.w	r2, r2, #1024	@ 0x400
 800411a:	4290      	cmp	r0, r2
 800411c:	d103      	bne.n	8004126 <TIM_Base_SetConfig+0x4a>
    tmpcr1 &= ~TIM_CR1_CKD;
 800411e:	f423 7340 	bic.w	r3, r3, #768	@ 0x300
    tmpcr1 |= (uint32_t)Structure->ClockDivision;
 8004122:	68ca      	ldr	r2, [r1, #12]
 8004124:	4313      	orrs	r3, r2
  MODIFY_REG(tmpcr1, TIM_CR1_ARPE, Structure->AutoReloadPreload);
 8004126:	f023 0380 	bic.w	r3, r3, #128	@ 0x80
 800412a:	694a      	ldr	r2, [r1, #20]
 800412c:	4313      	orrs	r3, r2
  TIMx->CR1 = tmpcr1;
 800412e:	6003      	str	r3, [r0, #0]
  TIMx->ARR = (uint32_t)Structure->Period ;
 8004130:	688b      	ldr	r3, [r1, #8]
 8004132:	62c3      	str	r3, [r0, #44]	@ 0x2c
  TIMx->PSC = Structure->Prescaler;
 8004134:	680b      	ldr	r3, [r1, #0]
 8004136:	6283      	str	r3, [r0, #40]	@ 0x28
  if (IS_TIM_REPETITION_COUNTER_INSTANCE(TIMx))
 8004138:	4b08      	ldr	r3, [pc, #32]	@ (800415c <TIM_Base_SetConfig+0x80>)
 800413a:	4298      	cmp	r0, r3
 800413c:	d00a      	beq.n	8004154 <TIM_Base_SetConfig+0x78>
  TIMx->EGR = TIM_EGR_UG;
 800413e:	2301      	movs	r3, #1
 8004140:	6143      	str	r3, [r0, #20]
  if (HAL_IS_BIT_SET(TIMx->SR, TIM_FLAG_UPDATE))
 8004142:	6903      	ldr	r3, [r0, #16]
 8004144:	f013 0f01 	tst.w	r3, #1
 8004148:	d003      	beq.n	8004152 <TIM_Base_SetConfig+0x76>
    CLEAR_BIT(TIMx->SR, TIM_FLAG_UPDATE);
 800414a:	6903      	ldr	r3, [r0, #16]
 800414c:	f023 0301 	bic.w	r3, r3, #1
 8004150:	6103      	str	r3, [r0, #16]
}
 8004152:	4770      	bx	lr
    TIMx->RCR = Structure->RepetitionCounter;
 8004154:	690b      	ldr	r3, [r1, #16]
 8004156:	6303      	str	r3, [r0, #48]	@ 0x30
 8004158:	e7f1      	b.n	800413e <TIM_Base_SetConfig+0x62>
 800415a:	bf00      	nop
 800415c:	40012c00 	.word	0x40012c00

08004160 <HAL_TIM_PWM_Init>:
  if (htim == NULL)
 8004160:	b340      	cbz	r0, 80041b4 <HAL_TIM_PWM_Init+0x54>
{
 8004162:	b510      	push	{r4, lr}
 8004164:	4604      	mov	r4, r0
  if (htim->State == HAL_TIM_STATE_RESET)
 8004166:	f890 303d 	ldrb.w	r3, [r0, #61]	@ 0x3d
 800416a:	b1f3      	cbz	r3, 80041aa <HAL_TIM_PWM_Init+0x4a>
  htim->State = HAL_TIM_STATE_BUSY;
 800416c:	2302      	movs	r3, #2
 800416e:	f884 303d 	strb.w	r3, [r4, #61]	@ 0x3d
  TIM_Base_SetConfig(htim->Instance, &htim->Init);
 8004172:	4621      	mov	r1, r4
 8004174:	f851 0b04 	ldr.w	r0, [r1], #4
 8004178:	f7ff ffb0 	bl	80040dc <TIM_Base_SetConfig>
  htim->DMABurstState = HAL_DMA_BURST_STATE_READY;
 800417c:	2301      	movs	r3, #1
 800417e:	f884 3046 	strb.w	r3, [r4, #70]	@ 0x46
  TIM_CHANNEL_STATE_SET_ALL(htim, HAL_TIM_CHANNEL_STATE_READY);
 8004182:	f884 303e 	strb.w	r3, [r4, #62]	@ 0x3e
 8004186:	f884 303f 	strb.w	r3, [r4, #63]	@ 0x3f
 800418a:	f884 3040 	strb.w	r3, [r4, #64]	@ 0x40
 800418e:	f884 3041 	strb.w	r3, [r4, #65]	@ 0x41
  TIM_CHANNEL_N_STATE_SET_ALL(htim, HAL_TIM_CHANNEL_STATE_READY);
 8004192:	f884 3042 	strb.w	r3, [r4, #66]	@ 0x42
 8004196:	f884 3043 	strb.w	r3, [r4, #67]	@ 0x43
 800419a:	f884 3044 	strb.w	r3, [r4, #68]	@ 0x44
 800419e:	f884 3045 	strb.w	r3, [r4, #69]	@ 0x45
  htim->State = HAL_TIM_STATE_READY;
 80041a2:	f884 303d 	strb.w	r3, [r4, #61]	@ 0x3d
  return HAL_OK;
 80041a6:	2000      	movs	r0, #0
}
 80041a8:	bd10      	pop	{r4, pc}
    htim->Lock = HAL_UNLOCKED;
 80041aa:	f880 303c 	strb.w	r3, [r0, #60]	@ 0x3c
    HAL_TIM_PWM_MspInit(htim);
 80041ae:	f7fd ff51 	bl	8002054 <HAL_TIM_PWM_MspInit>
 80041b2:	e7db      	b.n	800416c <HAL_TIM_PWM_Init+0xc>
    return HAL_ERROR;
 80041b4:	2001      	movs	r0, #1
}
 80041b6:	4770      	bx	lr

080041b8 <HAL_TIM_IC_Init>:
  if (htim == NULL)
 80041b8:	b340      	cbz	r0, 800420c <HAL_TIM_IC_Init+0x54>
{
 80041ba:	b510      	push	{r4, lr}
 80041bc:	4604      	mov	r4, r0
  if (htim->State == HAL_TIM_STATE_RESET)
 80041be:	f890 303d 	ldrb.w	r3, [r0, #61]	@ 0x3d
 80041c2:	b1f3      	cbz	r3, 8004202 <HAL_TIM_IC_Init+0x4a>
  htim->State = HAL_TIM_STATE_BUSY;
 80041c4:	2302      	movs	r3, #2
 80041c6:	f884 303d 	strb.w	r3, [r4, #61]	@ 0x3d
  TIM_Base_SetConfig(htim->Instance, &htim->Init);
 80041ca:	4621      	mov	r1, r4
 80041cc:	f851 0b04 	ldr.w	r0, [r1], #4
 80041d0:	f7ff ff84 	bl	80040dc <TIM_Base_SetConfig>
  htim->DMABurstState = HAL_DMA_BURST_STATE_READY;
 80041d4:	2301      	movs	r3, #1
 80041d6:	f884 3046 	strb.w	r3, [r4, #70]	@ 0x46
  TIM_CHANNEL_STATE_SET_ALL(htim, HAL_TIM_CHANNEL_STATE_READY);
 80041da:	f884 303e 	strb.w	r3, [r4, #62]	@ 0x3e
 80041de:	f884 303f 	strb.w	r3, [r4, #63]	@ 0x3f
 80041e2:	f884 3040 	strb.w	r3, [r4, #64]	@ 0x40
 80041e6:	f884 3041 	strb.w	r3, [r4, #65]	@ 0x41
  TIM_CHANNEL_N_STATE_SET_ALL(htim, HAL_TIM_CHANNEL_STATE_READY);
 80041ea:	f884 3042 	strb.w	r3, [r4, #66]	@ 0x42
 80041ee:	f884 3043 	strb.w	r3, [r4, #67]	@ 0x43
 80041f2:	f884 3044 	strb.w	r3, [r4, #68]	@ 0x44
 80041f6:	f884 3045 	strb.w	r3, [r4, #69]	@ 0x45
  htim->State = HAL_TIM_STATE_READY;
 80041fa:	f884 303d 	strb.w	r3, [r4, #61]	@ 0x3d
  return HAL_OK;
 80041fe:	2000      	movs	r0, #0
}
 8004200:	bd10      	pop	{r4, pc}
    htim->Lock = HAL_UNLOCKED;
 8004202:	f880 303c 	strb.w	r3, [r0, #60]	@ 0x3c
    HAL_TIM_IC_MspInit(htim);
 8004206:	f7fd ff45 	bl	8002094 <HAL_TIM_IC_MspInit>
 800420a:	e7db      	b.n	80041c4 <HAL_TIM_IC_Init+0xc>
    return HAL_ERROR;
 800420c:	2001      	movs	r0, #1
}
 800420e:	4770      	bx	lr

08004210 <HAL_TIM_Encoder_Init>:
  if (htim == NULL)
 8004210:	2800      	cmp	r0, #0
 8004212:	d056      	beq.n	80042c2 <HAL_TIM_Encoder_Init+0xb2>
{
 8004214:	b570      	push	{r4, r5, r6, lr}
 8004216:	460d      	mov	r5, r1
 8004218:	4604      	mov	r4, r0
  if (htim->State == HAL_TIM_STATE_RESET)
 800421a:	f890 303d 	ldrb.w	r3, [r0, #61]	@ 0x3d
 800421e:	2b00      	cmp	r3, #0
 8004220:	d04a      	beq.n	80042b8 <HAL_TIM_Encoder_Init+0xa8>
  htim->State = HAL_TIM_STATE_BUSY;
 8004222:	2302      	movs	r3, #2
 8004224:	f884 303d 	strb.w	r3, [r4, #61]	@ 0x3d
  htim->Instance->SMCR &= ~(TIM_SMCR_SMS | TIM_SMCR_ECE);
 8004228:	6822      	ldr	r2, [r4, #0]
 800422a:	6893      	ldr	r3, [r2, #8]
 800422c:	f423 4380 	bic.w	r3, r3, #16384	@ 0x4000
 8004230:	f023 0307 	bic.w	r3, r3, #7
 8004234:	6093      	str	r3, [r2, #8]
  TIM_Base_SetConfig(htim->Instance, &htim->Init);
 8004236:	4621      	mov	r1, r4
 8004238:	f851 0b04 	ldr.w	r0, [r1], #4
 800423c:	f7ff ff4e 	bl	80040dc <TIM_Base_SetConfig>
  tmpsmcr = htim->Instance->SMCR;
 8004240:	6821      	ldr	r1, [r4, #0]
 8004242:	688b      	ldr	r3, [r1, #8]
  tmpccmr1 = htim->Instance->CCMR1;
 8004244:	698a      	ldr	r2, [r1, #24]
  tmpccer = htim->Instance->CCER;
 8004246:	6a0e      	ldr	r6, [r1, #32]
  tmpsmcr |= sConfig->EncoderMode;
 8004248:	6828      	ldr	r0, [r5, #0]
 800424a:	4318      	orrs	r0, r3
  tmpccmr1 &= ~(TIM_CCMR1_CC1S | TIM_CCMR1_CC2S);
 800424c:	f422 7240 	bic.w	r2, r2, #768	@ 0x300
 8004250:	f022 0203 	bic.w	r2, r2, #3
  tmpccmr1 |= (sConfig->IC1Selection | (sConfig->IC2Selection << 8U));
 8004254:	68ab      	ldr	r3, [r5, #8]
 8004256:	f8d5 c018 	ldr.w	ip, [r5, #24]
 800425a:	ea43 230c 	orr.w	r3, r3, ip, lsl #8
 800425e:	4313      	orrs	r3, r2
  tmpccmr1 &= ~(TIM_CCMR1_IC1F | TIM_CCMR1_IC2F);
 8004260:	f423 437c 	bic.w	r3, r3, #64512	@ 0xfc00
 8004264:	f023 03fc 	bic.w	r3, r3, #252	@ 0xfc
  tmpccmr1 |= sConfig->IC1Prescaler | (sConfig->IC2Prescaler << 8U);
 8004268:	68ea      	ldr	r2, [r5, #12]
 800426a:	f8d5 c01c 	ldr.w	ip, [r5, #28]
 800426e:	ea42 220c 	orr.w	r2, r2, ip, lsl #8
 8004272:	431a      	orrs	r2, r3
  tmpccmr1 |= (sConfig->IC1Filter << 4U) | (sConfig->IC2Filter << 12U);
 8004274:	6a2b      	ldr	r3, [r5, #32]
 8004276:	031b      	lsls	r3, r3, #12
 8004278:	f8d5 c010 	ldr.w	ip, [r5, #16]
 800427c:	ea43 130c 	orr.w	r3, r3, ip, lsl #4
 8004280:	4313      	orrs	r3, r2
  tmpccer &= ~(TIM_CCER_CC1P | TIM_CCER_CC2P);
 8004282:	f026 0622 	bic.w	r6, r6, #34	@ 0x22
  tmpccer |= sConfig->IC1Polarity | (sConfig->IC2Polarity << 4U);
 8004286:	686a      	ldr	r2, [r5, #4]
 8004288:	696d      	ldr	r5, [r5, #20]
 800428a:	ea42 1205 	orr.w	r2, r2, r5, lsl #4
 800428e:	4332      	orrs	r2, r6
  htim->Instance->SMCR = tmpsmcr;
 8004290:	6088      	str	r0, [r1, #8]
  htim->Instance->CCMR1 = tmpccmr1;
 8004292:	6821      	ldr	r1, [r4, #0]
 8004294:	618b      	str	r3, [r1, #24]
  htim->Instance->CCER = tmpccer;
 8004296:	6823      	ldr	r3, [r4, #0]
 8004298:	621a      	str	r2, [r3, #32]
  htim->DMABurstState = HAL_DMA_BURST_STATE_READY;
 800429a:	2301      	movs	r3, #1
 800429c:	f884 3046 	strb.w	r3, [r4, #70]	@ 0x46
  TIM_CHANNEL_STATE_SET(htim, TIM_CHANNEL_1, HAL_TIM_CHANNEL_STATE_READY);
 80042a0:	f884 303e 	strb.w	r3, [r4, #62]	@ 0x3e
  TIM_CHANNEL_STATE_SET(htim, TIM_CHANNEL_2, HAL_TIM_CHANNEL_STATE_READY);
 80042a4:	f884 303f 	strb.w	r3, [r4, #63]	@ 0x3f
  TIM_CHANNEL_N_STATE_SET(htim, TIM_CHANNEL_1, HAL_TIM_CHANNEL_STATE_READY);
 80042a8:	f884 3042 	strb.w	r3, [r4, #66]	@ 0x42
  TIM_CHANNEL_N_STATE_SET(htim, TIM_CHANNEL_2, HAL_TIM_CHANNEL_STATE_READY);
 80042ac:	f884 3043 	strb.w	r3, [r4, #67]	@ 0x43
  htim->State = HAL_TIM_STATE_READY;
 80042b0:	f884 303d 	strb.w	r3, [r4, #61]	@ 0x3d
  return HAL_OK;
 80042b4:	2000      	movs	r0, #0
}
 80042b6:	bd70      	pop	{r4, r5, r6, pc}
    htim->Lock = HAL_UNLOCKED;
 80042b8:	f880 303c 	strb.w	r3, [r0, #60]	@ 0x3c
    HAL_TIM_Encoder_MspInit(htim);
 80042bc:	f7fd fe5c 	bl	8001f78 <HAL_TIM_Encoder_MspInit>
 80042c0:	e7af      	b.n	8004222 <HAL_TIM_Encoder_Init+0x12>
    return HAL_ERROR;
 80042c2:	2001      	movs	r0, #1
}
 80042c4:	4770      	bx	lr
	...

080042c8 <TIM_OC2_SetConfig>:
{
 80042c8:	b430      	push	{r4, r5}
  tmpccer = TIMx->CCER;
 80042ca:	6a03      	ldr	r3, [r0, #32]
  TIMx->CCER &= ~TIM_CCER_CC2E;
 80042cc:	6a02      	ldr	r2, [r0, #32]
 80042ce:	f022 0210 	bic.w	r2, r2, #16
 80042d2:	6202      	str	r2, [r0, #32]
  tmpcr2 =  TIMx->CR2;
 80042d4:	6844      	ldr	r4, [r0, #4]
  tmpccmrx = TIMx->CCMR1;
 80042d6:	6982      	ldr	r2, [r0, #24]
  tmpccmrx &= ~TIM_CCMR1_CC2S;
 80042d8:	f422 42e6 	bic.w	r2, r2, #29440	@ 0x7300
  tmpccmrx |= (OC_Config->OCMode << 8U);
 80042dc:	680d      	ldr	r5, [r1, #0]
 80042de:	ea42 2205 	orr.w	r2, r2, r5, lsl #8
  tmpccer &= ~TIM_CCER_CC2P;
 80042e2:	f023 0320 	bic.w	r3, r3, #32
  tmpccer |= (OC_Config->OCPolarity << 4U);
 80042e6:	688d      	ldr	r5, [r1, #8]
 80042e8:	ea43 1305 	orr.w	r3, r3, r5, lsl #4
  if (IS_TIM_CCXN_INSTANCE(TIMx, TIM_CHANNEL_2))
 80042ec:	4d0c      	ldr	r5, [pc, #48]	@ (8004320 <TIM_OC2_SetConfig+0x58>)
 80042ee:	42a8      	cmp	r0, r5
 80042f0:	d006      	beq.n	8004300 <TIM_OC2_SetConfig+0x38>
  TIMx->CR2 = tmpcr2;
 80042f2:	6044      	str	r4, [r0, #4]
  TIMx->CCMR1 = tmpccmrx;
 80042f4:	6182      	str	r2, [r0, #24]
  TIMx->CCR2 = OC_Config->Pulse;
 80042f6:	684a      	ldr	r2, [r1, #4]
 80042f8:	6382      	str	r2, [r0, #56]	@ 0x38
  TIMx->CCER = tmpccer;
 80042fa:	6203      	str	r3, [r0, #32]
}
 80042fc:	bc30      	pop	{r4, r5}
 80042fe:	4770      	bx	lr
    tmpccer &= ~TIM_CCER_CC2NP;
 8004300:	f023 0380 	bic.w	r3, r3, #128	@ 0x80
    tmpccer |= (OC_Config->OCNPolarity << 4U);
 8004304:	68cd      	ldr	r5, [r1, #12]
 8004306:	ea43 1305 	orr.w	r3, r3, r5, lsl #4
    tmpccer &= ~TIM_CCER_CC2NE;
 800430a:	f023 0340 	bic.w	r3, r3, #64	@ 0x40
    tmpcr2 &= ~TIM_CR2_OIS2N;
 800430e:	f424 6440 	bic.w	r4, r4, #3072	@ 0xc00
    tmpcr2 |= (OC_Config->OCIdleState << 2U);
 8004312:	694d      	ldr	r5, [r1, #20]
 8004314:	ea44 0485 	orr.w	r4, r4, r5, lsl #2
    tmpcr2 |= (OC_Config->OCNIdleState << 2U);
 8004318:	698d      	ldr	r5, [r1, #24]
 800431a:	ea44 0485 	orr.w	r4, r4, r5, lsl #2
 800431e:	e7e8      	b.n	80042f2 <TIM_OC2_SetConfig+0x2a>
 8004320:	40012c00 	.word	0x40012c00

08004324 <HAL_TIM_PWM_ConfigChannel>:
{
 8004324:	b538      	push	{r3, r4, r5, lr}
  __HAL_LOCK(htim);
 8004326:	f890 303c 	ldrb.w	r3, [r0, #60]	@ 0x3c
 800432a:	2b01      	cmp	r3, #1
 800432c:	d066      	beq.n	80043fc <HAL_TIM_PWM_ConfigChannel+0xd8>
 800432e:	4604      	mov	r4, r0
 8004330:	460d      	mov	r5, r1
 8004332:	2301      	movs	r3, #1
 8004334:	f880 303c 	strb.w	r3, [r0, #60]	@ 0x3c
  switch (Channel)
 8004338:	2a0c      	cmp	r2, #12
 800433a:	d85a      	bhi.n	80043f2 <HAL_TIM_PWM_ConfigChannel+0xce>
 800433c:	e8df f002 	tbb	[pc, r2]
 8004340:	59595907 	.word	0x59595907
 8004344:	5959591b 	.word	0x5959591b
 8004348:	59595930 	.word	0x59595930
 800434c:	44          	.byte	0x44
 800434d:	00          	.byte	0x00
      TIM_OC1_SetConfig(htim->Instance, sConfig);
 800434e:	6800      	ldr	r0, [r0, #0]
 8004350:	f7ff fd0e 	bl	8003d70 <TIM_OC1_SetConfig>
      htim->Instance->CCMR1 |= TIM_CCMR1_OC1PE;
 8004354:	6822      	ldr	r2, [r4, #0]
 8004356:	6993      	ldr	r3, [r2, #24]
 8004358:	f043 0308 	orr.w	r3, r3, #8
 800435c:	6193      	str	r3, [r2, #24]
      htim->Instance->CCMR1 &= ~TIM_CCMR1_OC1FE;
 800435e:	6822      	ldr	r2, [r4, #0]
 8004360:	6993      	ldr	r3, [r2, #24]
 8004362:	f023 0304 	bic.w	r3, r3, #4
 8004366:	6193      	str	r3, [r2, #24]
      htim->Instance->CCMR1 |= sConfig->OCFastMode;
 8004368:	6822      	ldr	r2, [r4, #0]
 800436a:	6993      	ldr	r3, [r2, #24]
 800436c:	6929      	ldr	r1, [r5, #16]
 800436e:	430b      	orrs	r3, r1
 8004370:	6193      	str	r3, [r2, #24]
  HAL_StatusTypeDef status = HAL_OK;
 8004372:	2000      	movs	r0, #0
      break;
 8004374:	e03e      	b.n	80043f4 <HAL_TIM_PWM_ConfigChannel+0xd0>
      TIM_OC2_SetConfig(htim->Instance, sConfig);
 8004376:	6800      	ldr	r0, [r0, #0]
 8004378:	f7ff ffa6 	bl	80042c8 <TIM_OC2_SetConfig>
      htim->Instance->CCMR1 |= TIM_CCMR1_OC2PE;
 800437c:	6822      	ldr	r2, [r4, #0]
 800437e:	6993      	ldr	r3, [r2, #24]
 8004380:	f443 6300 	orr.w	r3, r3, #2048	@ 0x800
 8004384:	6193      	str	r3, [r2, #24]
      htim->Instance->CCMR1 &= ~TIM_CCMR1_OC2FE;
 8004386:	6822      	ldr	r2, [r4, #0]
 8004388:	6993      	ldr	r3, [r2, #24]
 800438a:	f423 6380 	bic.w	r3, r3, #1024	@ 0x400
 800438e:	6193      	str	r3, [r2, #24]
      htim->Instance->CCMR1 |= sConfig->OCFastMode << 8U;
 8004390:	6822      	ldr	r2, [r4, #0]
 8004392:	6993      	ldr	r3, [r2, #24]
 8004394:	6929      	ldr	r1, [r5, #16]
 8004396:	ea43 2301 	orr.w	r3, r3, r1, lsl #8
 800439a:	6193      	str	r3, [r2, #24]
  HAL_StatusTypeDef status = HAL_OK;
 800439c:	2000      	movs	r0, #0
      break;
 800439e:	e029      	b.n	80043f4 <HAL_TIM_PWM_ConfigChannel+0xd0>
      TIM_OC3_SetConfig(htim->Instance, sConfig);
 80043a0:	6800      	ldr	r0, [r0, #0]
 80043a2:	f7ff fd0f 	bl	8003dc4 <TIM_OC3_SetConfig>
      htim->Instance->CCMR2 |= TIM_CCMR2_OC3PE;
 80043a6:	6822      	ldr	r2, [r4, #0]
 80043a8:	69d3      	ldr	r3, [r2, #28]
 80043aa:	f043 0308 	orr.w	r3, r3, #8
 80043ae:	61d3      	str	r3, [r2, #28]
      htim->Instance->CCMR2 &= ~TIM_CCMR2_OC3FE;
 80043b0:	6822      	ldr	r2, [r4, #0]
 80043b2:	69d3      	ldr	r3, [r2, #28]
 80043b4:	f023 0304 	bic.w	r3, r3, #4
 80043b8:	61d3      	str	r3, [r2, #28]
      htim->Instance->CCMR2 |= sConfig->OCFastMode;
 80043ba:	6822      	ldr	r2, [r4, #0]
 80043bc:	69d3      	ldr	r3, [r2, #28]
 80043be:	6929      	ldr	r1, [r5, #16]
 80043c0:	430b      	orrs	r3, r1
 80043c2:	61d3      	str	r3, [r2, #28]
  HAL_StatusTypeDef status = HAL_OK;
 80043c4:	2000      	movs	r0, #0
      break;
 80043c6:	e015      	b.n	80043f4 <HAL_TIM_PWM_ConfigChannel+0xd0>
      TIM_OC4_SetConfig(htim->Instance, sConfig);
 80043c8:	6800      	ldr	r0, [r0, #0]
 80043ca:	f7ff fd29 	bl	8003e20 <TIM_OC4_SetConfig>
      htim->Instance->CCMR2 |= TIM_CCMR2_OC4PE;
 80043ce:	6822      	ldr	r2, [r4, #0]
 80043d0:	69d3      	ldr	r3, [r2, #28]
 80043d2:	f443 6300 	orr.w	r3, r3, #2048	@ 0x800
 80043d6:	61d3      	str	r3, [r2, #28]
      htim->Instance->CCMR2 &= ~TIM_CCMR2_OC4FE;
 80043d8:	6822      	ldr	r2, [r4, #0]
 80043da:	69d3      	ldr	r3, [r2, #28]
 80043dc:	f423 6380 	bic.w	r3, r3, #1024	@ 0x400
 80043e0:	61d3      	str	r3, [r2, #28]
      htim->Instance->CCMR2 |= sConfig->OCFastMode << 8U;
 80043e2:	6822      	ldr	r2, [r4, #0]
 80043e4:	69d3      	ldr	r3, [r2, #28]
 80043e6:	6929      	ldr	r1, [r5, #16]
 80043e8:	ea43 2301 	orr.w	r3, r3, r1, lsl #8
 80043ec:	61d3      	str	r3, [r2, #28]
  HAL_StatusTypeDef status = HAL_OK;
 80043ee:	2000      	movs	r0, #0
      break;
 80043f0:	e000      	b.n	80043f4 <HAL_TIM_PWM_ConfigChannel+0xd0>
  switch (Channel)
 80043f2:	2001      	movs	r0, #1
  __HAL_UNLOCK(htim);
 80043f4:	2300      	movs	r3, #0
 80043f6:	f884 303c 	strb.w	r3, [r4, #60]	@ 0x3c
}
 80043fa:	bd38      	pop	{r3, r4, r5, pc}
  __HAL_LOCK(htim);
 80043fc:	2002      	movs	r0, #2
 80043fe:	e7fc      	b.n	80043fa <HAL_TIM_PWM_ConfigChannel+0xd6>

08004400 <TIM_TI1_SetConfig>:
{
 8004400:	b470      	push	{r4, r5, r6}
  tmpccer = TIMx->CCER;
 8004402:	6a05      	ldr	r5, [r0, #32]
  TIMx->CCER &= ~TIM_CCER_CC1E;
 8004404:	6a04      	ldr	r4, [r0, #32]
 8004406:	f024 0401 	bic.w	r4, r4, #1
 800440a:	6204      	str	r4, [r0, #32]
  tmpccmr1 = TIMx->CCMR1;
 800440c:	6984      	ldr	r4, [r0, #24]
  if (IS_TIM_CC2_INSTANCE(TIMx) != RESET)
 800440e:	4e11      	ldr	r6, [pc, #68]	@ (8004454 <TIM_TI1_SetConfig+0x54>)
 8004410:	42b0      	cmp	r0, r6
 8004412:	d00d      	beq.n	8004430 <TIM_TI1_SetConfig+0x30>
 8004414:	f1b0 4f80 	cmp.w	r0, #1073741824	@ 0x40000000
 8004418:	d00a      	beq.n	8004430 <TIM_TI1_SetConfig+0x30>
 800441a:	f5a6 3694 	sub.w	r6, r6, #75776	@ 0x12800
 800441e:	42b0      	cmp	r0, r6
 8004420:	d006      	beq.n	8004430 <TIM_TI1_SetConfig+0x30>
 8004422:	f506 6680 	add.w	r6, r6, #1024	@ 0x400
 8004426:	42b0      	cmp	r0, r6
 8004428:	d002      	beq.n	8004430 <TIM_TI1_SetConfig+0x30>
    tmpccmr1 |= TIM_CCMR1_CC1S_0;
 800442a:	f044 0201 	orr.w	r2, r4, #1
 800442e:	e002      	b.n	8004436 <TIM_TI1_SetConfig+0x36>
    tmpccmr1 &= ~TIM_CCMR1_CC1S;
 8004430:	f024 0403 	bic.w	r4, r4, #3
    tmpccmr1 |= TIM_ICSelection;
 8004434:	4322      	orrs	r2, r4
  tmpccmr1 &= ~TIM_CCMR1_IC1F;
 8004436:	f022 02f0 	bic.w	r2, r2, #240	@ 0xf0
  tmpccmr1 |= ((TIM_ICFilter << 4U) & TIM_CCMR1_IC1F);
 800443a:	011b      	lsls	r3, r3, #4
 800443c:	b2db      	uxtb	r3, r3
 800443e:	4313      	orrs	r3, r2
  tmpccer &= ~(TIM_CCER_CC1P | TIM_CCER_CC1NP);
 8004440:	f025 020a 	bic.w	r2, r5, #10
  tmpccer |= (TIM_ICPolarity & (TIM_CCER_CC1P | TIM_CCER_CC1NP));
 8004444:	f001 010a 	and.w	r1, r1, #10
 8004448:	4311      	orrs	r1, r2
  TIMx->CCMR1 = tmpccmr1;
 800444a:	6183      	str	r3, [r0, #24]
  TIMx->CCER = tmpccer;
 800444c:	6201      	str	r1, [r0, #32]
}
 800444e:	bc70      	pop	{r4, r5, r6}
 8004450:	4770      	bx	lr
 8004452:	bf00      	nop
 8004454:	40012c00 	.word	0x40012c00

08004458 <HAL_TIM_IC_ConfigChannel>:
{
 8004458:	b538      	push	{r3, r4, r5, lr}
  __HAL_LOCK(htim);
 800445a:	f890 303c 	ldrb.w	r3, [r0, #60]	@ 0x3c
 800445e:	2b01      	cmp	r3, #1
 8004460:	d05e      	beq.n	8004520 <HAL_TIM_IC_ConfigChannel+0xc8>
 8004462:	4604      	mov	r4, r0
 8004464:	460d      	mov	r5, r1
 8004466:	2301      	movs	r3, #1
 8004468:	f880 303c 	strb.w	r3, [r0, #60]	@ 0x3c
  if (Channel == TIM_CHANNEL_1)
 800446c:	2a0c      	cmp	r2, #12
 800446e:	d852      	bhi.n	8004516 <HAL_TIM_IC_ConfigChannel+0xbe>
 8004470:	e8df f002 	tbb	[pc, r2]
 8004474:	51515107 	.word	0x51515107
 8004478:	51515119 	.word	0x51515119
 800447c:	5151512c 	.word	0x5151512c
 8004480:	3e          	.byte	0x3e
 8004481:	00          	.byte	0x00
    TIM_TI1_SetConfig(htim->Instance,
 8004482:	68cb      	ldr	r3, [r1, #12]
 8004484:	684a      	ldr	r2, [r1, #4]
 8004486:	6809      	ldr	r1, [r1, #0]
 8004488:	6800      	ldr	r0, [r0, #0]
 800448a:	f7ff ffb9 	bl	8004400 <TIM_TI1_SetConfig>
    htim->Instance->CCMR1 &= ~TIM_CCMR1_IC1PSC;
 800448e:	6822      	ldr	r2, [r4, #0]
 8004490:	6993      	ldr	r3, [r2, #24]
 8004492:	f023 030c 	bic.w	r3, r3, #12
 8004496:	6193      	str	r3, [r2, #24]
    htim->Instance->CCMR1 |= sConfig->ICPrescaler;
 8004498:	6822      	ldr	r2, [r4, #0]
 800449a:	6993      	ldr	r3, [r2, #24]
 800449c:	68a9      	ldr	r1, [r5, #8]
 800449e:	430b      	orrs	r3, r1
 80044a0:	6193      	str	r3, [r2, #24]
  HAL_StatusTypeDef status = HAL_OK;
 80044a2:	2000      	movs	r0, #0
 80044a4:	e038      	b.n	8004518 <HAL_TIM_IC_ConfigChannel+0xc0>
    TIM_TI2_SetConfig(htim->Instance,
 80044a6:	68cb      	ldr	r3, [r1, #12]
 80044a8:	684a      	ldr	r2, [r1, #4]
 80044aa:	6809      	ldr	r1, [r1, #0]
 80044ac:	6800      	ldr	r0, [r0, #0]
 80044ae:	f7ff fcdb 	bl	8003e68 <TIM_TI2_SetConfig>
    htim->Instance->CCMR1 &= ~TIM_CCMR1_IC2PSC;
 80044b2:	6822      	ldr	r2, [r4, #0]
 80044b4:	6993      	ldr	r3, [r2, #24]
 80044b6:	f423 6340 	bic.w	r3, r3, #3072	@ 0xc00
 80044ba:	6193      	str	r3, [r2, #24]
    htim->Instance->CCMR1 |= (sConfig->ICPrescaler << 8U);
 80044bc:	6822      	ldr	r2, [r4, #0]
 80044be:	6993      	ldr	r3, [r2, #24]
 80044c0:	68a9      	ldr	r1, [r5, #8]
 80044c2:	ea43 2301 	orr.w	r3, r3, r1, lsl #8
 80044c6:	6193      	str	r3, [r2, #24]
  HAL_StatusTypeDef status = HAL_OK;
 80044c8:	2000      	movs	r0, #0
 80044ca:	e025      	b.n	8004518 <HAL_TIM_IC_ConfigChannel+0xc0>
    TIM_TI3_SetConfig(htim->Instance,
 80044cc:	68cb      	ldr	r3, [r1, #12]
 80044ce:	684a      	ldr	r2, [r1, #4]
 80044d0:	6809      	ldr	r1, [r1, #0]
 80044d2:	6800      	ldr	r0, [r0, #0]
 80044d4:	f7ff fce3 	bl	8003e9e <TIM_TI3_SetConfig>
    htim->Instance->CCMR2 &= ~TIM_CCMR2_IC3PSC;
 80044d8:	6822      	ldr	r2, [r4, #0]
 80044da:	69d3      	ldr	r3, [r2, #28]
 80044dc:	f023 030c 	bic.w	r3, r3, #12
 80044e0:	61d3      	str	r3, [r2, #28]
    htim->Instance->CCMR2 |= sConfig->ICPrescaler;
 80044e2:	6822      	ldr	r2, [r4, #0]
 80044e4:	69d3      	ldr	r3, [r2, #28]
 80044e6:	68a9      	ldr	r1, [r5, #8]
 80044e8:	430b      	orrs	r3, r1
 80044ea:	61d3      	str	r3, [r2, #28]
  HAL_StatusTypeDef status = HAL_OK;
 80044ec:	2000      	movs	r0, #0
 80044ee:	e013      	b.n	8004518 <HAL_TIM_IC_ConfigChannel+0xc0>
    TIM_TI4_SetConfig(htim->Instance,
 80044f0:	68cb      	ldr	r3, [r1, #12]
 80044f2:	684a      	ldr	r2, [r1, #4]
 80044f4:	6809      	ldr	r1, [r1, #0]
 80044f6:	6800      	ldr	r0, [r0, #0]
 80044f8:	f7ff fcec 	bl	8003ed4 <TIM_TI4_SetConfig>
    htim->Instance->CCMR2 &= ~TIM_CCMR2_IC4PSC;
 80044fc:	6822      	ldr	r2, [r4, #0]
 80044fe:	69d3      	ldr	r3, [r2, #28]
 8004500:	f423 6340 	bic.w	r3, r3, #3072	@ 0xc00
 8004504:	61d3      	str	r3, [r2, #28]
    htim->Instance->CCMR2 |= (sConfig->ICPrescaler << 8U);
 8004506:	6822      	ldr	r2, [r4, #0]
 8004508:	69d3      	ldr	r3, [r2, #28]
 800450a:	68a9      	ldr	r1, [r5, #8]
 800450c:	ea43 2301 	orr.w	r3, r3, r1, lsl #8
 8004510:	61d3      	str	r3, [r2, #28]
  HAL_StatusTypeDef status = HAL_OK;
 8004512:	2000      	movs	r0, #0
 8004514:	e000      	b.n	8004518 <HAL_TIM_IC_ConfigChannel+0xc0>
  __HAL_LOCK(htim);
 8004516:	2001      	movs	r0, #1
  __HAL_UNLOCK(htim);
 8004518:	2300      	movs	r3, #0
 800451a:	f884 303c 	strb.w	r3, [r4, #60]	@ 0x3c
}
 800451e:	bd38      	pop	{r3, r4, r5, pc}
  __HAL_LOCK(htim);
 8004520:	2002      	movs	r0, #2
 8004522:	e7fc      	b.n	800451e <HAL_TIM_IC_ConfigChannel+0xc6>

08004524 <TIM_CCxChannelCmd>:

  /* Check the parameters */
  assert_param(IS_TIM_CC1_INSTANCE(TIMx));
  assert_param(IS_TIM_CHANNELS(Channel));

  tmp = TIM_CCER_CC1E << (Channel & 0x1FU); /* 0x1FU = 31 bits max shift */
 8004524:	f001 011f 	and.w	r1, r1, #31
 8004528:	f04f 0c01 	mov.w	ip, #1
 800452c:	fa0c fc01 	lsl.w	ip, ip, r1

  /* Reset the CCxE Bit */
  TIMx->CCER &= ~tmp;
 8004530:	6a03      	ldr	r3, [r0, #32]
 8004532:	ea23 030c 	bic.w	r3, r3, ip
 8004536:	6203      	str	r3, [r0, #32]

  /* Set or reset the CCxE Bit */
  TIMx->CCER |= (uint32_t)(ChannelState << (Channel & 0x1FU)); /* 0x1FU = 31 bits max shift */
 8004538:	6a03      	ldr	r3, [r0, #32]
 800453a:	408a      	lsls	r2, r1
 800453c:	4313      	orrs	r3, r2
 800453e:	6203      	str	r3, [r0, #32]
}
 8004540:	4770      	bx	lr
	...

08004544 <HAL_TIM_PWM_Start>:
{
 8004544:	b510      	push	{r4, lr}
 8004546:	4604      	mov	r4, r0
  if (TIM_CHANNEL_STATE_GET(htim, Channel) != HAL_TIM_CHANNEL_STATE_READY)
 8004548:	4608      	mov	r0, r1
 800454a:	bb51      	cbnz	r1, 80045a2 <HAL_TIM_PWM_Start+0x5e>
 800454c:	f894 303e 	ldrb.w	r3, [r4, #62]	@ 0x3e
 8004550:	b2db      	uxtb	r3, r3
 8004552:	3b01      	subs	r3, #1
 8004554:	bf18      	it	ne
 8004556:	2301      	movne	r3, #1
 8004558:	2b00      	cmp	r3, #0
 800455a:	d15b      	bne.n	8004614 <HAL_TIM_PWM_Start+0xd0>
  TIM_CHANNEL_STATE_SET(htim, Channel, HAL_TIM_CHANNEL_STATE_BUSY);
 800455c:	2800      	cmp	r0, #0
 800455e:	d139      	bne.n	80045d4 <HAL_TIM_PWM_Start+0x90>
 8004560:	2302      	movs	r3, #2
 8004562:	f884 303e 	strb.w	r3, [r4, #62]	@ 0x3e
  TIM_CCxChannelCmd(htim->Instance, Channel, TIM_CCx_ENABLE);
 8004566:	2201      	movs	r2, #1
 8004568:	4601      	mov	r1, r0
 800456a:	6820      	ldr	r0, [r4, #0]
 800456c:	f7ff ffda 	bl	8004524 <TIM_CCxChannelCmd>
  if (IS_TIM_BREAK_INSTANCE(htim->Instance) != RESET)
 8004570:	6823      	ldr	r3, [r4, #0]
 8004572:	4a2a      	ldr	r2, [pc, #168]	@ (800461c <HAL_TIM_PWM_Start+0xd8>)
 8004574:	4293      	cmp	r3, r2
 8004576:	d03d      	beq.n	80045f4 <HAL_TIM_PWM_Start+0xb0>
  if (IS_TIM_SLAVE_INSTANCE(htim->Instance))
 8004578:	6823      	ldr	r3, [r4, #0]
 800457a:	4a28      	ldr	r2, [pc, #160]	@ (800461c <HAL_TIM_PWM_Start+0xd8>)
 800457c:	4293      	cmp	r3, r2
 800457e:	d03e      	beq.n	80045fe <HAL_TIM_PWM_Start+0xba>
 8004580:	f1b3 4f80 	cmp.w	r3, #1073741824	@ 0x40000000
 8004584:	d03b      	beq.n	80045fe <HAL_TIM_PWM_Start+0xba>
 8004586:	f5a2 3294 	sub.w	r2, r2, #75776	@ 0x12800
 800458a:	4293      	cmp	r3, r2
 800458c:	d037      	beq.n	80045fe <HAL_TIM_PWM_Start+0xba>
 800458e:	f502 6280 	add.w	r2, r2, #1024	@ 0x400
 8004592:	4293      	cmp	r3, r2
 8004594:	d033      	beq.n	80045fe <HAL_TIM_PWM_Start+0xba>
    __HAL_TIM_ENABLE(htim);
 8004596:	681a      	ldr	r2, [r3, #0]
 8004598:	f042 0201 	orr.w	r2, r2, #1
 800459c:	601a      	str	r2, [r3, #0]
  return HAL_OK;
 800459e:	2000      	movs	r0, #0
 80045a0:	e039      	b.n	8004616 <HAL_TIM_PWM_Start+0xd2>
  if (TIM_CHANNEL_STATE_GET(htim, Channel) != HAL_TIM_CHANNEL_STATE_READY)
 80045a2:	2904      	cmp	r1, #4
 80045a4:	d008      	beq.n	80045b8 <HAL_TIM_PWM_Start+0x74>
 80045a6:	2908      	cmp	r1, #8
 80045a8:	d00d      	beq.n	80045c6 <HAL_TIM_PWM_Start+0x82>
 80045aa:	f894 3041 	ldrb.w	r3, [r4, #65]	@ 0x41
 80045ae:	b2db      	uxtb	r3, r3
 80045b0:	3b01      	subs	r3, #1
 80045b2:	bf18      	it	ne
 80045b4:	2301      	movne	r3, #1
 80045b6:	e7cf      	b.n	8004558 <HAL_TIM_PWM_Start+0x14>
 80045b8:	f894 303f 	ldrb.w	r3, [r4, #63]	@ 0x3f
 80045bc:	b2db      	uxtb	r3, r3
 80045be:	3b01      	subs	r3, #1
 80045c0:	bf18      	it	ne
 80045c2:	2301      	movne	r3, #1
 80045c4:	e7c8      	b.n	8004558 <HAL_TIM_PWM_Start+0x14>
 80045c6:	f894 3040 	ldrb.w	r3, [r4, #64]	@ 0x40
 80045ca:	b2db      	uxtb	r3, r3
 80045cc:	3b01      	subs	r3, #1
 80045ce:	bf18      	it	ne
 80045d0:	2301      	movne	r3, #1
 80045d2:	e7c1      	b.n	8004558 <HAL_TIM_PWM_Start+0x14>
  TIM_CHANNEL_STATE_SET(htim, Channel, HAL_TIM_CHANNEL_STATE_BUSY);
 80045d4:	2804      	cmp	r0, #4
 80045d6:	d005      	beq.n	80045e4 <HAL_TIM_PWM_Start+0xa0>
 80045d8:	2808      	cmp	r0, #8
 80045da:	d007      	beq.n	80045ec <HAL_TIM_PWM_Start+0xa8>
 80045dc:	2302      	movs	r3, #2
 80045de:	f884 3041 	strb.w	r3, [r4, #65]	@ 0x41
 80045e2:	e7c0      	b.n	8004566 <HAL_TIM_PWM_Start+0x22>
 80045e4:	2302      	movs	r3, #2
 80045e6:	f884 303f 	strb.w	r3, [r4, #63]	@ 0x3f
 80045ea:	e7bc      	b.n	8004566 <HAL_TIM_PWM_Start+0x22>
 80045ec:	2302      	movs	r3, #2
 80045ee:	f884 3040 	strb.w	r3, [r4, #64]	@ 0x40
 80045f2:	e7b8      	b.n	8004566 <HAL_TIM_PWM_Start+0x22>
    __HAL_TIM_MOE_ENABLE(htim);
 80045f4:	6c5a      	ldr	r2, [r3, #68]	@ 0x44
 80045f6:	f442 4200 	orr.w	r2, r2, #32768	@ 0x8000
 80045fa:	645a      	str	r2, [r3, #68]	@ 0x44
 80045fc:	e7bc      	b.n	8004578 <HAL_TIM_PWM_Start+0x34>
    tmpsmcr = htim->Instance->SMCR & TIM_SMCR_SMS;
 80045fe:	689a      	ldr	r2, [r3, #8]
 8004600:	f002 0207 	and.w	r2, r2, #7
    if (!IS_TIM_SLAVEMODE_TRIGGER_ENABLED(tmpsmcr))
 8004604:	2a06      	cmp	r2, #6
 8004606:	d007      	beq.n	8004618 <HAL_TIM_PWM_Start+0xd4>
      __HAL_TIM_ENABLE(htim);
 8004608:	681a      	ldr	r2, [r3, #0]
 800460a:	f042 0201 	orr.w	r2, r2, #1
 800460e:	601a      	str	r2, [r3, #0]
  return HAL_OK;
 8004610:	2000      	movs	r0, #0
 8004612:	e000      	b.n	8004616 <HAL_TIM_PWM_Start+0xd2>
    return HAL_ERROR;
 8004614:	2001      	movs	r0, #1
}
 8004616:	bd10      	pop	{r4, pc}
  return HAL_OK;
 8004618:	2000      	movs	r0, #0
 800461a:	e7fc      	b.n	8004616 <HAL_TIM_PWM_Start+0xd2>
 800461c:	40012c00 	.word	0x40012c00

08004620 <HAL_TIM_IC_Start_IT>:
{
 8004620:	b510      	push	{r4, lr}
 8004622:	4604      	mov	r4, r0
  HAL_TIM_ChannelStateTypeDef channel_state = TIM_CHANNEL_STATE_GET(htim, Channel);
 8004624:	460b      	mov	r3, r1
 8004626:	b9f1      	cbnz	r1, 8004666 <HAL_TIM_IC_Start_IT+0x46>
 8004628:	f890 003e 	ldrb.w	r0, [r0, #62]	@ 0x3e
 800462c:	b2c0      	uxtb	r0, r0
  HAL_TIM_ChannelStateTypeDef complementary_channel_state = TIM_CHANNEL_N_STATE_GET(htim, Channel);
 800462e:	bb53      	cbnz	r3, 8004686 <HAL_TIM_IC_Start_IT+0x66>
 8004630:	f894 2042 	ldrb.w	r2, [r4, #66]	@ 0x42
 8004634:	b2d2      	uxtb	r2, r2
  if ((channel_state != HAL_TIM_CHANNEL_STATE_READY)
 8004636:	2801      	cmp	r0, #1
 8004638:	f040 808e 	bne.w	8004758 <HAL_TIM_IC_Start_IT+0x138>
      || (complementary_channel_state != HAL_TIM_CHANNEL_STATE_READY))
 800463c:	2a01      	cmp	r2, #1
 800463e:	f040 808c 	bne.w	800475a <HAL_TIM_IC_Start_IT+0x13a>
  TIM_CHANNEL_STATE_SET(htim, Channel, HAL_TIM_CHANNEL_STATE_BUSY);
 8004642:	bb83      	cbnz	r3, 80046a6 <HAL_TIM_IC_Start_IT+0x86>
 8004644:	2102      	movs	r1, #2
 8004646:	f884 103e 	strb.w	r1, [r4, #62]	@ 0x3e
  TIM_CHANNEL_N_STATE_SET(htim, Channel, HAL_TIM_CHANNEL_STATE_BUSY);
 800464a:	f884 1042 	strb.w	r1, [r4, #66]	@ 0x42
  switch (Channel)
 800464e:	2b0c      	cmp	r3, #12
 8004650:	f200 8084 	bhi.w	800475c <HAL_TIM_IC_Start_IT+0x13c>
 8004654:	e8df f003 	tbb	[pc, r3]
 8004658:	82828269 	.word	0x82828269
 800465c:	82828241 	.word	0x82828241
 8004660:	82828263 	.word	0x82828263
 8004664:	6f          	.byte	0x6f
 8004665:	00          	.byte	0x00
  HAL_TIM_ChannelStateTypeDef channel_state = TIM_CHANNEL_STATE_GET(htim, Channel);
 8004666:	2904      	cmp	r1, #4
 8004668:	d005      	beq.n	8004676 <HAL_TIM_IC_Start_IT+0x56>
 800466a:	2908      	cmp	r1, #8
 800466c:	d007      	beq.n	800467e <HAL_TIM_IC_Start_IT+0x5e>
 800466e:	f890 0041 	ldrb.w	r0, [r0, #65]	@ 0x41
 8004672:	b2c0      	uxtb	r0, r0
 8004674:	e7db      	b.n	800462e <HAL_TIM_IC_Start_IT+0xe>
 8004676:	f890 003f 	ldrb.w	r0, [r0, #63]	@ 0x3f
 800467a:	b2c0      	uxtb	r0, r0
 800467c:	e7d7      	b.n	800462e <HAL_TIM_IC_Start_IT+0xe>
 800467e:	f890 0040 	ldrb.w	r0, [r0, #64]	@ 0x40
 8004682:	b2c0      	uxtb	r0, r0
 8004684:	e7d3      	b.n	800462e <HAL_TIM_IC_Start_IT+0xe>
  HAL_TIM_ChannelStateTypeDef complementary_channel_state = TIM_CHANNEL_N_STATE_GET(htim, Channel);
 8004686:	2b04      	cmp	r3, #4
 8004688:	d005      	beq.n	8004696 <HAL_TIM_IC_Start_IT+0x76>
 800468a:	2b08      	cmp	r3, #8
 800468c:	d007      	beq.n	800469e <HAL_TIM_IC_Start_IT+0x7e>
 800468e:	f894 2045 	ldrb.w	r2, [r4, #69]	@ 0x45
 8004692:	b2d2      	uxtb	r2, r2
 8004694:	e7cf      	b.n	8004636 <HAL_TIM_IC_Start_IT+0x16>
 8004696:	f894 2043 	ldrb.w	r2, [r4, #67]	@ 0x43
 800469a:	b2d2      	uxtb	r2, r2
 800469c:	e7cb      	b.n	8004636 <HAL_TIM_IC_Start_IT+0x16>
 800469e:	f894 2044 	ldrb.w	r2, [r4, #68]	@ 0x44
 80046a2:	b2d2      	uxtb	r2, r2
 80046a4:	e7c7      	b.n	8004636 <HAL_TIM_IC_Start_IT+0x16>
  TIM_CHANNEL_STATE_SET(htim, Channel, HAL_TIM_CHANNEL_STATE_BUSY);
 80046a6:	2b04      	cmp	r3, #4
 80046a8:	d00c      	beq.n	80046c4 <HAL_TIM_IC_Start_IT+0xa4>
 80046aa:	2b08      	cmp	r3, #8
 80046ac:	d00e      	beq.n	80046cc <HAL_TIM_IC_Start_IT+0xac>
 80046ae:	2102      	movs	r1, #2
 80046b0:	f884 1041 	strb.w	r1, [r4, #65]	@ 0x41
  TIM_CHANNEL_N_STATE_SET(htim, Channel, HAL_TIM_CHANNEL_STATE_BUSY);
 80046b4:	2b04      	cmp	r3, #4
 80046b6:	d00d      	beq.n	80046d4 <HAL_TIM_IC_Start_IT+0xb4>
 80046b8:	2b08      	cmp	r3, #8
 80046ba:	d02d      	beq.n	8004718 <HAL_TIM_IC_Start_IT+0xf8>
 80046bc:	2102      	movs	r1, #2
 80046be:	f884 1045 	strb.w	r1, [r4, #69]	@ 0x45
 80046c2:	e7c4      	b.n	800464e <HAL_TIM_IC_Start_IT+0x2e>
  TIM_CHANNEL_STATE_SET(htim, Channel, HAL_TIM_CHANNEL_STATE_BUSY);
 80046c4:	2102      	movs	r1, #2
 80046c6:	f884 103f 	strb.w	r1, [r4, #63]	@ 0x3f
  TIM_CHANNEL_N_STATE_SET(htim, Channel, HAL_TIM_CHANNEL_STATE_BUSY);
 80046ca:	e7f3      	b.n	80046b4 <HAL_TIM_IC_Start_IT+0x94>
  TIM_CHANNEL_STATE_SET(htim, Channel, HAL_TIM_CHANNEL_STATE_BUSY);
 80046cc:	2102      	movs	r1, #2
 80046ce:	f884 1040 	strb.w	r1, [r4, #64]	@ 0x40
  TIM_CHANNEL_N_STATE_SET(htim, Channel, HAL_TIM_CHANNEL_STATE_BUSY);
 80046d2:	e7ef      	b.n	80046b4 <HAL_TIM_IC_Start_IT+0x94>
 80046d4:	2202      	movs	r2, #2
 80046d6:	f884 2043 	strb.w	r2, [r4, #67]	@ 0x43
      __HAL_TIM_ENABLE_IT(htim, TIM_IT_CC2);
 80046da:	6821      	ldr	r1, [r4, #0]
 80046dc:	68ca      	ldr	r2, [r1, #12]
 80046de:	f042 0204 	orr.w	r2, r2, #4
 80046e2:	60ca      	str	r2, [r1, #12]
    TIM_CCxChannelCmd(htim->Instance, Channel, TIM_CCx_ENABLE);
 80046e4:	2201      	movs	r2, #1
 80046e6:	4619      	mov	r1, r3
 80046e8:	6820      	ldr	r0, [r4, #0]
 80046ea:	f7ff ff1b 	bl	8004524 <TIM_CCxChannelCmd>
    if (IS_TIM_SLAVE_INSTANCE(htim->Instance))
 80046ee:	6823      	ldr	r3, [r4, #0]
 80046f0:	4a1c      	ldr	r2, [pc, #112]	@ (8004764 <HAL_TIM_IC_Start_IT+0x144>)
 80046f2:	4293      	cmp	r3, r2
 80046f4:	d025      	beq.n	8004742 <HAL_TIM_IC_Start_IT+0x122>
 80046f6:	f1b3 4f80 	cmp.w	r3, #1073741824	@ 0x40000000
 80046fa:	d022      	beq.n	8004742 <HAL_TIM_IC_Start_IT+0x122>
 80046fc:	f5a2 3294 	sub.w	r2, r2, #75776	@ 0x12800
 8004700:	4293      	cmp	r3, r2
 8004702:	d01e      	beq.n	8004742 <HAL_TIM_IC_Start_IT+0x122>
 8004704:	f502 6280 	add.w	r2, r2, #1024	@ 0x400
 8004708:	4293      	cmp	r3, r2
 800470a:	d01a      	beq.n	8004742 <HAL_TIM_IC_Start_IT+0x122>
      __HAL_TIM_ENABLE(htim);
 800470c:	681a      	ldr	r2, [r3, #0]
 800470e:	f042 0201 	orr.w	r2, r2, #1
 8004712:	601a      	str	r2, [r3, #0]
 8004714:	2000      	movs	r0, #0
 8004716:	e020      	b.n	800475a <HAL_TIM_IC_Start_IT+0x13a>
  TIM_CHANNEL_N_STATE_SET(htim, Channel, HAL_TIM_CHANNEL_STATE_BUSY);
 8004718:	2202      	movs	r2, #2
 800471a:	f884 2044 	strb.w	r2, [r4, #68]	@ 0x44
      __HAL_TIM_ENABLE_IT(htim, TIM_IT_CC3);
 800471e:	6821      	ldr	r1, [r4, #0]
 8004720:	68ca      	ldr	r2, [r1, #12]
 8004722:	f042 0208 	orr.w	r2, r2, #8
 8004726:	60ca      	str	r2, [r1, #12]
  if (status == HAL_OK)
 8004728:	e7dc      	b.n	80046e4 <HAL_TIM_IC_Start_IT+0xc4>
      __HAL_TIM_ENABLE_IT(htim, TIM_IT_CC1);
 800472a:	6821      	ldr	r1, [r4, #0]
 800472c:	68ca      	ldr	r2, [r1, #12]
 800472e:	f042 0202 	orr.w	r2, r2, #2
 8004732:	60ca      	str	r2, [r1, #12]
  if (status == HAL_OK)
 8004734:	e7d6      	b.n	80046e4 <HAL_TIM_IC_Start_IT+0xc4>
      __HAL_TIM_ENABLE_IT(htim, TIM_IT_CC4);
 8004736:	6821      	ldr	r1, [r4, #0]
 8004738:	68ca      	ldr	r2, [r1, #12]
 800473a:	f042 0210 	orr.w	r2, r2, #16
 800473e:	60ca      	str	r2, [r1, #12]
  if (status == HAL_OK)
 8004740:	e7d0      	b.n	80046e4 <HAL_TIM_IC_Start_IT+0xc4>
      tmpsmcr = htim->Instance->SMCR & TIM_SMCR_SMS;
 8004742:	689a      	ldr	r2, [r3, #8]
 8004744:	f002 0207 	and.w	r2, r2, #7
      if (!IS_TIM_SLAVEMODE_TRIGGER_ENABLED(tmpsmcr))
 8004748:	2a06      	cmp	r2, #6
 800474a:	d009      	beq.n	8004760 <HAL_TIM_IC_Start_IT+0x140>
        __HAL_TIM_ENABLE(htim);
 800474c:	681a      	ldr	r2, [r3, #0]
 800474e:	f042 0201 	orr.w	r2, r2, #1
 8004752:	601a      	str	r2, [r3, #0]
 8004754:	2000      	movs	r0, #0
 8004756:	e000      	b.n	800475a <HAL_TIM_IC_Start_IT+0x13a>
    return HAL_ERROR;
 8004758:	2001      	movs	r0, #1
}
 800475a:	bd10      	pop	{r4, pc}
  switch (Channel)
 800475c:	4610      	mov	r0, r2
 800475e:	e7fc      	b.n	800475a <HAL_TIM_IC_Start_IT+0x13a>
 8004760:	2000      	movs	r0, #0
 8004762:	e7fa      	b.n	800475a <HAL_TIM_IC_Start_IT+0x13a>
 8004764:	40012c00 	.word	0x40012c00

08004768 <HAL_TIM_Encoder_Start>:
{
 8004768:	b538      	push	{r3, r4, r5, lr}
 800476a:	4604      	mov	r4, r0
  HAL_TIM_ChannelStateTypeDef channel_1_state = TIM_CHANNEL_STATE_GET(htim, TIM_CHANNEL_1);
 800476c:	f890 003e 	ldrb.w	r0, [r0, #62]	@ 0x3e
 8004770:	b2c0      	uxtb	r0, r0
  HAL_TIM_ChannelStateTypeDef channel_2_state = TIM_CHANNEL_STATE_GET(htim, TIM_CHANNEL_2);
 8004772:	f894 303f 	ldrb.w	r3, [r4, #63]	@ 0x3f
  HAL_TIM_ChannelStateTypeDef complementary_channel_1_state = TIM_CHANNEL_N_STATE_GET(htim, TIM_CHANNEL_1);
 8004776:	f894 2042 	ldrb.w	r2, [r4, #66]	@ 0x42
 800477a:	b2d2      	uxtb	r2, r2
  HAL_TIM_ChannelStateTypeDef complementary_channel_2_state = TIM_CHANNEL_N_STATE_GET(htim, TIM_CHANNEL_2);
 800477c:	f894 c043 	ldrb.w	ip, [r4, #67]	@ 0x43
  if (Channel == TIM_CHANNEL_1)
 8004780:	460d      	mov	r5, r1
 8004782:	b9b1      	cbnz	r1, 80047b2 <HAL_TIM_Encoder_Start+0x4a>
    if ((channel_1_state != HAL_TIM_CHANNEL_STATE_READY)
 8004784:	2801      	cmp	r0, #1
 8004786:	d149      	bne.n	800481c <HAL_TIM_Encoder_Start+0xb4>
        || (complementary_channel_1_state != HAL_TIM_CHANNEL_STATE_READY))
 8004788:	2a01      	cmp	r2, #1
 800478a:	d148      	bne.n	800481e <HAL_TIM_Encoder_Start+0xb6>
      TIM_CHANNEL_STATE_SET(htim, TIM_CHANNEL_1, HAL_TIM_CHANNEL_STATE_BUSY);
 800478c:	2302      	movs	r3, #2
 800478e:	f884 303e 	strb.w	r3, [r4, #62]	@ 0x3e
      TIM_CHANNEL_N_STATE_SET(htim, TIM_CHANNEL_1, HAL_TIM_CHANNEL_STATE_BUSY);
 8004792:	f884 3042 	strb.w	r3, [r4, #66]	@ 0x42
  switch (Channel)
 8004796:	b37d      	cbz	r5, 80047f8 <HAL_TIM_Encoder_Start+0x90>
 8004798:	2d04      	cmp	r5, #4
 800479a:	d039      	beq.n	8004810 <HAL_TIM_Encoder_Start+0xa8>
      TIM_CCxChannelCmd(htim->Instance, TIM_CHANNEL_1, TIM_CCx_ENABLE);
 800479c:	2201      	movs	r2, #1
 800479e:	2100      	movs	r1, #0
 80047a0:	6820      	ldr	r0, [r4, #0]
 80047a2:	f7ff febf 	bl	8004524 <TIM_CCxChannelCmd>
      TIM_CCxChannelCmd(htim->Instance, TIM_CHANNEL_2, TIM_CCx_ENABLE);
 80047a6:	2201      	movs	r2, #1
 80047a8:	2104      	movs	r1, #4
 80047aa:	6820      	ldr	r0, [r4, #0]
 80047ac:	f7ff feba 	bl	8004524 <TIM_CCxChannelCmd>
      break;
 80047b0:	e027      	b.n	8004802 <HAL_TIM_Encoder_Start+0x9a>
 80047b2:	b2db      	uxtb	r3, r3
 80047b4:	fa5f fc8c 	uxtb.w	ip, ip
  else if (Channel == TIM_CHANNEL_2)
 80047b8:	2904      	cmp	r1, #4
 80047ba:	d012      	beq.n	80047e2 <HAL_TIM_Encoder_Start+0x7a>
    if ((channel_1_state != HAL_TIM_CHANNEL_STATE_READY)
 80047bc:	2801      	cmp	r0, #1
 80047be:	d133      	bne.n	8004828 <HAL_TIM_Encoder_Start+0xc0>
        || (channel_2_state != HAL_TIM_CHANNEL_STATE_READY)
 80047c0:	2b01      	cmp	r3, #1
 80047c2:	d12c      	bne.n	800481e <HAL_TIM_Encoder_Start+0xb6>
        || (complementary_channel_1_state != HAL_TIM_CHANNEL_STATE_READY)
 80047c4:	2a01      	cmp	r2, #1
 80047c6:	d131      	bne.n	800482c <HAL_TIM_Encoder_Start+0xc4>
        || (complementary_channel_2_state != HAL_TIM_CHANNEL_STATE_READY))
 80047c8:	f1bc 0f01 	cmp.w	ip, #1
 80047cc:	d130      	bne.n	8004830 <HAL_TIM_Encoder_Start+0xc8>
      TIM_CHANNEL_STATE_SET(htim, TIM_CHANNEL_1, HAL_TIM_CHANNEL_STATE_BUSY);
 80047ce:	2302      	movs	r3, #2
 80047d0:	f884 303e 	strb.w	r3, [r4, #62]	@ 0x3e
      TIM_CHANNEL_STATE_SET(htim, TIM_CHANNEL_2, HAL_TIM_CHANNEL_STATE_BUSY);
 80047d4:	f884 303f 	strb.w	r3, [r4, #63]	@ 0x3f
      TIM_CHANNEL_N_STATE_SET(htim, TIM_CHANNEL_1, HAL_TIM_CHANNEL_STATE_BUSY);
 80047d8:	f884 3042 	strb.w	r3, [r4, #66]	@ 0x42
      TIM_CHANNEL_N_STATE_SET(htim, TIM_CHANNEL_2, HAL_TIM_CHANNEL_STATE_BUSY);
 80047dc:	f884 3043 	strb.w	r3, [r4, #67]	@ 0x43
 80047e0:	e7d9      	b.n	8004796 <HAL_TIM_Encoder_Start+0x2e>
    if ((channel_2_state != HAL_TIM_CHANNEL_STATE_READY)
 80047e2:	2b01      	cmp	r3, #1
 80047e4:	d11c      	bne.n	8004820 <HAL_TIM_Encoder_Start+0xb8>
        || (complementary_channel_2_state != HAL_TIM_CHANNEL_STATE_READY))
 80047e6:	f1bc 0f01 	cmp.w	ip, #1
 80047ea:	d11b      	bne.n	8004824 <HAL_TIM_Encoder_Start+0xbc>
      TIM_CHANNEL_STATE_SET(htim, TIM_CHANNEL_2, HAL_TIM_CHANNEL_STATE_BUSY);
 80047ec:	2302      	movs	r3, #2
 80047ee:	f884 303f 	strb.w	r3, [r4, #63]	@ 0x3f
      TIM_CHANNEL_N_STATE_SET(htim, TIM_CHANNEL_2, HAL_TIM_CHANNEL_STATE_BUSY);
 80047f2:	f884 3043 	strb.w	r3, [r4, #67]	@ 0x43
 80047f6:	e7ce      	b.n	8004796 <HAL_TIM_Encoder_Start+0x2e>
      TIM_CCxChannelCmd(htim->Instance, TIM_CHANNEL_1, TIM_CCx_ENABLE);
 80047f8:	2201      	movs	r2, #1
 80047fa:	2100      	movs	r1, #0
 80047fc:	6820      	ldr	r0, [r4, #0]
 80047fe:	f7ff fe91 	bl	8004524 <TIM_CCxChannelCmd>
  __HAL_TIM_ENABLE(htim);
 8004802:	6822      	ldr	r2, [r4, #0]
 8004804:	6813      	ldr	r3, [r2, #0]
 8004806:	f043 0301 	orr.w	r3, r3, #1
 800480a:	6013      	str	r3, [r2, #0]
  return HAL_OK;
 800480c:	2000      	movs	r0, #0
 800480e:	e006      	b.n	800481e <HAL_TIM_Encoder_Start+0xb6>
      TIM_CCxChannelCmd(htim->Instance, TIM_CHANNEL_2, TIM_CCx_ENABLE);
 8004810:	2201      	movs	r2, #1
 8004812:	2104      	movs	r1, #4
 8004814:	6820      	ldr	r0, [r4, #0]
 8004816:	f7ff fe85 	bl	8004524 <TIM_CCxChannelCmd>
      break;
 800481a:	e7f2      	b.n	8004802 <HAL_TIM_Encoder_Start+0x9a>
      return HAL_ERROR;
 800481c:	2001      	movs	r0, #1
}
 800481e:	bd38      	pop	{r3, r4, r5, pc}
      return HAL_ERROR;
 8004820:	2001      	movs	r0, #1
 8004822:	e7fc      	b.n	800481e <HAL_TIM_Encoder_Start+0xb6>
 8004824:	4618      	mov	r0, r3
 8004826:	e7fa      	b.n	800481e <HAL_TIM_Encoder_Start+0xb6>
      return HAL_ERROR;
 8004828:	2001      	movs	r0, #1
 800482a:	e7f8      	b.n	800481e <HAL_TIM_Encoder_Start+0xb6>
 800482c:	4618      	mov	r0, r3
 800482e:	e7f6      	b.n	800481e <HAL_TIM_Encoder_Start+0xb6>
 8004830:	4610      	mov	r0, r2
 8004832:	e7f4      	b.n	800481e <HAL_TIM_Encoder_Start+0xb6>

08004834 <HAL_TIMEx_MasterConfigSynchronization>:
  assert_param(IS_TIM_MASTER_INSTANCE(htim->Instance));
  assert_param(IS_TIM_TRGO_SOURCE(sMasterConfig->MasterOutputTrigger));
  assert_param(IS_TIM_MSM_STATE(sMasterConfig->MasterSlaveMode));

  /* Check input state */
  __HAL_LOCK(htim);
 8004834:	f890 203c 	ldrb.w	r2, [r0, #60]	@ 0x3c
 8004838:	2a01      	cmp	r2, #1
 800483a:	d02c      	beq.n	8004896 <HAL_TIMEx_MasterConfigSynchronization+0x62>
{
 800483c:	b410      	push	{r4}
 800483e:	4603      	mov	r3, r0
  __HAL_LOCK(htim);
 8004840:	2201      	movs	r2, #1
 8004842:	f880 203c 	strb.w	r2, [r0, #60]	@ 0x3c

  /* Change the handler state */
  htim->State = HAL_TIM_STATE_BUSY;
 8004846:	2202      	movs	r2, #2
 8004848:	f880 203d 	strb.w	r2, [r0, #61]	@ 0x3d

  /* Get the TIMx CR2 register value */
  tmpcr2 = htim->Instance->CR2;
 800484c:	6802      	ldr	r2, [r0, #0]
 800484e:	6850      	ldr	r0, [r2, #4]

  /* Get the TIMx SMCR register value */
  tmpsmcr = htim->Instance->SMCR;
 8004850:	6894      	ldr	r4, [r2, #8]

  /* Reset the MMS Bits */
  tmpcr2 &= ~TIM_CR2_MMS;
 8004852:	f020 0c70 	bic.w	ip, r0, #112	@ 0x70
  /* Select the TRGO source */
  tmpcr2 |=  sMasterConfig->MasterOutputTrigger;
 8004856:	6808      	ldr	r0, [r1, #0]
 8004858:	ea40 000c 	orr.w	r0, r0, ip

  /* Update TIMx CR2 */
  htim->Instance->CR2 = tmpcr2;
 800485c:	6050      	str	r0, [r2, #4]

  if (IS_TIM_SLAVE_INSTANCE(htim->Instance))
 800485e:	681a      	ldr	r2, [r3, #0]
 8004860:	480e      	ldr	r0, [pc, #56]	@ (800489c <HAL_TIMEx_MasterConfigSynchronization+0x68>)
 8004862:	4282      	cmp	r2, r0
 8004864:	d00a      	beq.n	800487c <HAL_TIMEx_MasterConfigSynchronization+0x48>
 8004866:	f1b2 4f80 	cmp.w	r2, #1073741824	@ 0x40000000
 800486a:	d007      	beq.n	800487c <HAL_TIMEx_MasterConfigSynchronization+0x48>
 800486c:	f5a0 3094 	sub.w	r0, r0, #75776	@ 0x12800
 8004870:	4282      	cmp	r2, r0
 8004872:	d003      	beq.n	800487c <HAL_TIMEx_MasterConfigSynchronization+0x48>
 8004874:	f500 6080 	add.w	r0, r0, #1024	@ 0x400
 8004878:	4282      	cmp	r2, r0
 800487a:	d104      	bne.n	8004886 <HAL_TIMEx_MasterConfigSynchronization+0x52>
  {
    /* Reset the MSM Bit */
    tmpsmcr &= ~TIM_SMCR_MSM;
 800487c:	f024 0480 	bic.w	r4, r4, #128	@ 0x80
    /* Set master mode */
    tmpsmcr |= sMasterConfig->MasterSlaveMode;
 8004880:	6849      	ldr	r1, [r1, #4]
 8004882:	4321      	orrs	r1, r4

    /* Update TIMx SMCR */
    htim->Instance->SMCR = tmpsmcr;
 8004884:	6091      	str	r1, [r2, #8]
  }

  /* Change the htim state */
  htim->State = HAL_TIM_STATE_READY;
 8004886:	2201      	movs	r2, #1
 8004888:	f883 203d 	strb.w	r2, [r3, #61]	@ 0x3d

  __HAL_UNLOCK(htim);
 800488c:	2000      	movs	r0, #0
 800488e:	f883 003c 	strb.w	r0, [r3, #60]	@ 0x3c

  return HAL_OK;
}
 8004892:	bc10      	pop	{r4}
 8004894:	4770      	bx	lr
  __HAL_LOCK(htim);
 8004896:	2002      	movs	r0, #2
}
 8004898:	4770      	bx	lr
 800489a:	bf00      	nop
 800489c:	40012c00 	.word	0x40012c00

080048a0 <HAL_TIMEx_CommutCallback>:
  UNUSED(htim);

  /* NOTE : This function should not be modified, when the callback is needed,
            the HAL_TIMEx_CommutCallback could be implemented in the user file
   */
}
 80048a0:	4770      	bx	lr

080048a2 <HAL_TIMEx_BreakCallback>:
  UNUSED(htim);

  /* NOTE : This function should not be modified, when the callback is needed,
            the HAL_TIMEx_BreakCallback could be implemented in the user file
   */
}
 80048a2:	4770      	bx	lr

080048a4 <UART_EndTxTransfer>:
  * @retval None
  */
static void UART_EndTxTransfer(UART_HandleTypeDef *huart)
{
  /* Disable TXEIE and TCIE interrupts */
  ATOMIC_CLEAR_BIT(huart->Instance->CR1, (USART_CR1_TXEIE | USART_CR1_TCIE));
 80048a4:	6802      	ldr	r2, [r0, #0]
 */
__STATIC_FORCEINLINE uint32_t __LDREXW(volatile uint32_t *addr)
{
    uint32_t result;

   __ASM volatile ("ldrex %0, %1" : "=r" (result) : "Q" (*addr) );
 80048a6:	f102 030c 	add.w	r3, r2, #12
 80048aa:	e853 3f00 	ldrex	r3, [r3]
 80048ae:	f023 03c0 	bic.w	r3, r3, #192	@ 0xc0
 */
__STATIC_FORCEINLINE uint32_t __STREXW(uint32_t value, volatile uint32_t *addr)
{
   uint32_t result;

   __ASM volatile ("strex %0, %2, %1" : "=&r" (result), "=Q" (*addr) : "r" (value) );
 80048b2:	320c      	adds	r2, #12
 80048b4:	e842 3100 	strex	r1, r3, [r2]
 80048b8:	2900      	cmp	r1, #0
 80048ba:	d1f3      	bne.n	80048a4 <UART_EndTxTransfer>

  /* At end of Tx process, restore huart->gState to Ready */
  huart->gState = HAL_UART_STATE_READY;
 80048bc:	2320      	movs	r3, #32
 80048be:	f880 3041 	strb.w	r3, [r0, #65]	@ 0x41
}
 80048c2:	4770      	bx	lr

080048c4 <UART_EndRxTransfer>:
  * @retval None
  */
static void UART_EndRxTransfer(UART_HandleTypeDef *huart)
{
  /* Disable RXNE, PE and ERR (Frame error, noise error, overrun error) interrupts */
  ATOMIC_CLEAR_BIT(huart->Instance->CR1, (USART_CR1_RXNEIE | USART_CR1_PEIE));
 80048c4:	6802      	ldr	r2, [r0, #0]
   __ASM volatile ("ldrex %0, %1" : "=r" (result) : "Q" (*addr) );
 80048c6:	f102 030c 	add.w	r3, r2, #12
 80048ca:	e853 3f00 	ldrex	r3, [r3]
 80048ce:	f423 7390 	bic.w	r3, r3, #288	@ 0x120
   __ASM volatile ("strex %0, %2, %1" : "=&r" (result), "=Q" (*addr) : "r" (value) );
 80048d2:	320c      	adds	r2, #12
 80048d4:	e842 3100 	strex	r1, r3, [r2]
 80048d8:	2900      	cmp	r1, #0
 80048da:	d1f3      	bne.n	80048c4 <UART_EndRxTransfer>
  ATOMIC_CLEAR_BIT(huart->Instance->CR3, USART_CR3_EIE);
 80048dc:	6802      	ldr	r2, [r0, #0]
   __ASM volatile ("ldrex %0, %1" : "=r" (result) : "Q" (*addr) );
 80048de:	f102 0314 	add.w	r3, r2, #20
 80048e2:	e853 3f00 	ldrex	r3, [r3]
 80048e6:	f023 0301 	bic.w	r3, r3, #1
   __ASM volatile ("strex %0, %2, %1" : "=&r" (result), "=Q" (*addr) : "r" (value) );
 80048ea:	3214      	adds	r2, #20
 80048ec:	e842 3100 	strex	r1, r3, [r2]
 80048f0:	2900      	cmp	r1, #0
 80048f2:	d1f3      	bne.n	80048dc <UART_EndRxTransfer+0x18>

  /* In case of reception waiting for IDLE event, disable also the IDLE IE interrupt source */
  if (huart->ReceptionType == HAL_UART_RECEPTION_TOIDLE)
 80048f4:	6b03      	ldr	r3, [r0, #48]	@ 0x30
 80048f6:	2b01      	cmp	r3, #1
 80048f8:	d005      	beq.n	8004906 <UART_EndRxTransfer+0x42>
  {
    ATOMIC_CLEAR_BIT(huart->Instance->CR1, USART_CR1_IDLEIE);
  }

  /* At end of Rx process, restore huart->RxState to Ready */
  huart->RxState = HAL_UART_STATE_READY;
 80048fa:	2320      	movs	r3, #32
 80048fc:	f880 3042 	strb.w	r3, [r0, #66]	@ 0x42
  huart->ReceptionType = HAL_UART_RECEPTION_STANDARD;
 8004900:	2300      	movs	r3, #0
 8004902:	6303      	str	r3, [r0, #48]	@ 0x30
}
 8004904:	4770      	bx	lr
    ATOMIC_CLEAR_BIT(huart->Instance->CR1, USART_CR1_IDLEIE);
 8004906:	6802      	ldr	r2, [r0, #0]
   __ASM volatile ("ldrex %0, %1" : "=r" (result) : "Q" (*addr) );
 8004908:	f102 030c 	add.w	r3, r2, #12
 800490c:	e853 3f00 	ldrex	r3, [r3]
 8004910:	f023 0310 	bic.w	r3, r3, #16
   __ASM volatile ("strex %0, %2, %1" : "=&r" (result), "=Q" (*addr) : "r" (value) );
 8004914:	320c      	adds	r2, #12
 8004916:	e842 3100 	strex	r1, r3, [r2]
 800491a:	2900      	cmp	r1, #0
 800491c:	d1f3      	bne.n	8004906 <UART_EndRxTransfer+0x42>
 800491e:	e7ec      	b.n	80048fa <UART_EndRxTransfer+0x36>

08004920 <UART_Transmit_IT>:
static HAL_StatusTypeDef UART_Transmit_IT(UART_HandleTypeDef *huart)
{
  const uint16_t *tmp;

  /* Check that a Tx process is ongoing */
  if (huart->gState == HAL_UART_STATE_BUSY_TX)
 8004920:	f890 3041 	ldrb.w	r3, [r0, #65]	@ 0x41
 8004924:	b2db      	uxtb	r3, r3
 8004926:	2b21      	cmp	r3, #33	@ 0x21
 8004928:	d001      	beq.n	800492e <UART_Transmit_IT+0xe>
    }
    return HAL_OK;
  }
  else
  {
    return HAL_BUSY;
 800492a:	2002      	movs	r0, #2
  }
}
 800492c:	4770      	bx	lr
    if ((huart->Init.WordLength == UART_WORDLENGTH_9B) && (huart->Init.Parity == UART_PARITY_NONE))
 800492e:	6883      	ldr	r3, [r0, #8]
 8004930:	f5b3 5f80 	cmp.w	r3, #4096	@ 0x1000
 8004934:	d017      	beq.n	8004966 <UART_Transmit_IT+0x46>
      huart->Instance->DR = (uint8_t)(*huart->pTxBuffPtr++ & (uint8_t)0x00FF);
 8004936:	6a03      	ldr	r3, [r0, #32]
 8004938:	1c5a      	adds	r2, r3, #1
 800493a:	6202      	str	r2, [r0, #32]
 800493c:	781a      	ldrb	r2, [r3, #0]
 800493e:	6803      	ldr	r3, [r0, #0]
 8004940:	605a      	str	r2, [r3, #4]
    if (--huart->TxXferCount == 0U)
 8004942:	8cc3      	ldrh	r3, [r0, #38]	@ 0x26
 8004944:	b29b      	uxth	r3, r3
 8004946:	3b01      	subs	r3, #1
 8004948:	b29b      	uxth	r3, r3
 800494a:	84c3      	strh	r3, [r0, #38]	@ 0x26
 800494c:	b94b      	cbnz	r3, 8004962 <UART_Transmit_IT+0x42>
      __HAL_UART_DISABLE_IT(huart, UART_IT_TXE);
 800494e:	6802      	ldr	r2, [r0, #0]
 8004950:	68d3      	ldr	r3, [r2, #12]
 8004952:	f023 0380 	bic.w	r3, r3, #128	@ 0x80
 8004956:	60d3      	str	r3, [r2, #12]
      __HAL_UART_ENABLE_IT(huart, UART_IT_TC);
 8004958:	6802      	ldr	r2, [r0, #0]
 800495a:	68d3      	ldr	r3, [r2, #12]
 800495c:	f043 0340 	orr.w	r3, r3, #64	@ 0x40
 8004960:	60d3      	str	r3, [r2, #12]
    return HAL_OK;
 8004962:	2000      	movs	r0, #0
 8004964:	4770      	bx	lr
    if ((huart->Init.WordLength == UART_WORDLENGTH_9B) && (huart->Init.Parity == UART_PARITY_NONE))
 8004966:	6903      	ldr	r3, [r0, #16]
 8004968:	2b00      	cmp	r3, #0
 800496a:	d1e4      	bne.n	8004936 <UART_Transmit_IT+0x16>
      tmp = (const uint16_t *) huart->pTxBuffPtr;
 800496c:	6a03      	ldr	r3, [r0, #32]
      huart->Instance->DR = (uint16_t)(*tmp & (uint16_t)0x01FF);
 800496e:	881b      	ldrh	r3, [r3, #0]
 8004970:	6802      	ldr	r2, [r0, #0]
 8004972:	f3c3 0308 	ubfx	r3, r3, #0, #9
 8004976:	6053      	str	r3, [r2, #4]
      huart->pTxBuffPtr += 2U;
 8004978:	6a03      	ldr	r3, [r0, #32]
 800497a:	3302      	adds	r3, #2
 800497c:	6203      	str	r3, [r0, #32]
 800497e:	e7e0      	b.n	8004942 <UART_Transmit_IT+0x22>

08004980 <UART_SetConfig>:
  * @param  huart  Pointer to a UART_HandleTypeDef structure that contains
  *                the configuration information for the specified UART module.
  * @retval None
  */
static void UART_SetConfig(UART_HandleTypeDef *huart)
{
 8004980:	b510      	push	{r4, lr}
 8004982:	4604      	mov	r4, r0
  assert_param(IS_UART_MODE(huart->Init.Mode));

  /*-------------------------- USART CR2 Configuration -----------------------*/
  /* Configure the UART Stop Bits: Set STOP[13:12] bits
     according to huart->Init.StopBits value */
  MODIFY_REG(huart->Instance->CR2, USART_CR2_STOP, huart->Init.StopBits);
 8004984:	6802      	ldr	r2, [r0, #0]
 8004986:	6913      	ldr	r3, [r2, #16]
 8004988:	f423 5340 	bic.w	r3, r3, #12288	@ 0x3000
 800498c:	68c1      	ldr	r1, [r0, #12]
 800498e:	430b      	orrs	r3, r1
 8004990:	6113      	str	r3, [r2, #16]
  tmpreg = (uint32_t)huart->Init.WordLength | huart->Init.Parity | huart->Init.Mode | huart->Init.OverSampling;
  MODIFY_REG(huart->Instance->CR1,
             (uint32_t)(USART_CR1_M | USART_CR1_PCE | USART_CR1_PS | USART_CR1_TE | USART_CR1_RE | USART_CR1_OVER8),
             tmpreg);
#else
  tmpreg = (uint32_t)huart->Init.WordLength | huart->Init.Parity | huart->Init.Mode;
 8004992:	6883      	ldr	r3, [r0, #8]
 8004994:	6902      	ldr	r2, [r0, #16]
 8004996:	4313      	orrs	r3, r2
 8004998:	6942      	ldr	r2, [r0, #20]
 800499a:	431a      	orrs	r2, r3
  MODIFY_REG(huart->Instance->CR1,
 800499c:	6801      	ldr	r1, [r0, #0]
 800499e:	68cb      	ldr	r3, [r1, #12]
 80049a0:	f423 53b0 	bic.w	r3, r3, #5632	@ 0x1600
 80049a4:	f023 030c 	bic.w	r3, r3, #12
 80049a8:	4313      	orrs	r3, r2
 80049aa:	60cb      	str	r3, [r1, #12]
             tmpreg);
#endif /* USART_CR1_OVER8 */

  /*-------------------------- USART CR3 Configuration -----------------------*/
  /* Configure the UART HFC: Set CTSE and RTSE bits according to huart->Init.HwFlowCtl value */
  MODIFY_REG(huart->Instance->CR3, (USART_CR3_RTSE | USART_CR3_CTSE), huart->Init.HwFlowCtl);
 80049ac:	6802      	ldr	r2, [r0, #0]
 80049ae:	6953      	ldr	r3, [r2, #20]
 80049b0:	f423 7340 	bic.w	r3, r3, #768	@ 0x300
 80049b4:	6981      	ldr	r1, [r0, #24]
 80049b6:	430b      	orrs	r3, r1
 80049b8:	6153      	str	r3, [r2, #20]


  if(huart->Instance == USART1)
 80049ba:	6802      	ldr	r2, [r0, #0]
 80049bc:	4b13      	ldr	r3, [pc, #76]	@ (8004a0c <UART_SetConfig+0x8c>)
 80049be:	429a      	cmp	r2, r3
 80049c0:	d020      	beq.n	8004a04 <UART_SetConfig+0x84>
  {
    pclk = HAL_RCC_GetPCLK2Freq();
  }
  else
  {
    pclk = HAL_RCC_GetPCLK1Freq();
 80049c2:	f7fe fe25 	bl	8003610 <HAL_RCC_GetPCLK1Freq>
 80049c6:	4602      	mov	r2, r0
  else
  {
    huart->Instance->BRR = UART_BRR_SAMPLING16(pclk, huart->Init.BaudRate);
  }
#else
  huart->Instance->BRR = UART_BRR_SAMPLING16(pclk, huart->Init.BaudRate);
 80049c8:	eb02 0282 	add.w	r2, r2, r2, lsl #2
 80049cc:	eb02 0282 	add.w	r2, r2, r2, lsl #2
 80049d0:	6863      	ldr	r3, [r4, #4]
 80049d2:	009b      	lsls	r3, r3, #2
 80049d4:	fbb2 f2f3 	udiv	r2, r2, r3
 80049d8:	480d      	ldr	r0, [pc, #52]	@ (8004a10 <UART_SetConfig+0x90>)
 80049da:	fba0 3102 	umull	r3, r1, r0, r2
 80049de:	0949      	lsrs	r1, r1, #5
 80049e0:	2364      	movs	r3, #100	@ 0x64
 80049e2:	fb03 2311 	mls	r3, r3, r1, r2
 80049e6:	011b      	lsls	r3, r3, #4
 80049e8:	3332      	adds	r3, #50	@ 0x32
 80049ea:	fba0 0303 	umull	r0, r3, r0, r3
 80049ee:	095b      	lsrs	r3, r3, #5
 80049f0:	f003 02f0 	and.w	r2, r3, #240	@ 0xf0
 80049f4:	eb02 1201 	add.w	r2, r2, r1, lsl #4
 80049f8:	f003 030f 	and.w	r3, r3, #15
 80049fc:	6821      	ldr	r1, [r4, #0]
 80049fe:	4413      	add	r3, r2
 8004a00:	608b      	str	r3, [r1, #8]
#endif /* USART_CR1_OVER8 */
}
 8004a02:	bd10      	pop	{r4, pc}
    pclk = HAL_RCC_GetPCLK2Freq();
 8004a04:	f7fe fe14 	bl	8003630 <HAL_RCC_GetPCLK2Freq>
 8004a08:	4602      	mov	r2, r0
 8004a0a:	e7dd      	b.n	80049c8 <UART_SetConfig+0x48>
 8004a0c:	40013800 	.word	0x40013800
 8004a10:	51eb851f 	.word	0x51eb851f

08004a14 <HAL_UART_Init>:
  if (huart == NULL)
 8004a14:	b360      	cbz	r0, 8004a70 <HAL_UART_Init+0x5c>
{
 8004a16:	b510      	push	{r4, lr}
 8004a18:	4604      	mov	r4, r0
  if (huart->gState == HAL_UART_STATE_RESET)
 8004a1a:	f890 3041 	ldrb.w	r3, [r0, #65]	@ 0x41
 8004a1e:	b313      	cbz	r3, 8004a66 <HAL_UART_Init+0x52>
  huart->gState = HAL_UART_STATE_BUSY;
 8004a20:	2324      	movs	r3, #36	@ 0x24
 8004a22:	f884 3041 	strb.w	r3, [r4, #65]	@ 0x41
  __HAL_UART_DISABLE(huart);
 8004a26:	6822      	ldr	r2, [r4, #0]
 8004a28:	68d3      	ldr	r3, [r2, #12]
 8004a2a:	f423 5300 	bic.w	r3, r3, #8192	@ 0x2000
 8004a2e:	60d3      	str	r3, [r2, #12]
  UART_SetConfig(huart);
 8004a30:	4620      	mov	r0, r4
 8004a32:	f7ff ffa5 	bl	8004980 <UART_SetConfig>
  CLEAR_BIT(huart->Instance->CR2, (USART_CR2_LINEN | USART_CR2_CLKEN));
 8004a36:	6822      	ldr	r2, [r4, #0]
 8004a38:	6913      	ldr	r3, [r2, #16]
 8004a3a:	f423 4390 	bic.w	r3, r3, #18432	@ 0x4800
 8004a3e:	6113      	str	r3, [r2, #16]
  CLEAR_BIT(huart->Instance->CR3, (USART_CR3_SCEN | USART_CR3_HDSEL | USART_CR3_IREN));
 8004a40:	6822      	ldr	r2, [r4, #0]
 8004a42:	6953      	ldr	r3, [r2, #20]
 8004a44:	f023 032a 	bic.w	r3, r3, #42	@ 0x2a
 8004a48:	6153      	str	r3, [r2, #20]
  __HAL_UART_ENABLE(huart);
 8004a4a:	6822      	ldr	r2, [r4, #0]
 8004a4c:	68d3      	ldr	r3, [r2, #12]
 8004a4e:	f443 5300 	orr.w	r3, r3, #8192	@ 0x2000
 8004a52:	60d3      	str	r3, [r2, #12]
  huart->ErrorCode = HAL_UART_ERROR_NONE;
 8004a54:	2000      	movs	r0, #0
 8004a56:	6460      	str	r0, [r4, #68]	@ 0x44
  huart->gState = HAL_UART_STATE_READY;
 8004a58:	2320      	movs	r3, #32
 8004a5a:	f884 3041 	strb.w	r3, [r4, #65]	@ 0x41
  huart->RxState = HAL_UART_STATE_READY;
 8004a5e:	f884 3042 	strb.w	r3, [r4, #66]	@ 0x42
  huart->RxEventType = HAL_UART_RXEVENT_TC;
 8004a62:	6360      	str	r0, [r4, #52]	@ 0x34
}
 8004a64:	bd10      	pop	{r4, pc}
    huart->Lock = HAL_UNLOCKED;
 8004a66:	f880 3040 	strb.w	r3, [r0, #64]	@ 0x40
    HAL_UART_MspInit(huart);
 8004a6a:	f7fd fbd9 	bl	8002220 <HAL_UART_MspInit>
 8004a6e:	e7d7      	b.n	8004a20 <HAL_UART_Init+0xc>
    return HAL_ERROR;
 8004a70:	2001      	movs	r0, #1
}
 8004a72:	4770      	bx	lr

08004a74 <HAL_UART_Transmit_DMA>:
{
 8004a74:	b538      	push	{r3, r4, r5, lr}
 8004a76:	4613      	mov	r3, r2
  if (huart->gState == HAL_UART_STATE_READY)
 8004a78:	f890 2041 	ldrb.w	r2, [r0, #65]	@ 0x41
 8004a7c:	b2d2      	uxtb	r2, r2
 8004a7e:	2a20      	cmp	r2, #32
 8004a80:	d12f      	bne.n	8004ae2 <HAL_UART_Transmit_DMA+0x6e>
 8004a82:	4604      	mov	r4, r0
    if ((pData == NULL) || (Size == 0U))
 8004a84:	2900      	cmp	r1, #0
 8004a86:	d02e      	beq.n	8004ae6 <HAL_UART_Transmit_DMA+0x72>
 8004a88:	b90b      	cbnz	r3, 8004a8e <HAL_UART_Transmit_DMA+0x1a>
      return HAL_ERROR;
 8004a8a:	2001      	movs	r0, #1
}
 8004a8c:	bd38      	pop	{r3, r4, r5, pc}
    huart->pTxBuffPtr = pData;
 8004a8e:	6201      	str	r1, [r0, #32]
    huart->TxXferSize = Size;
 8004a90:	8483      	strh	r3, [r0, #36]	@ 0x24
    huart->TxXferCount = Size;
 8004a92:	84c3      	strh	r3, [r0, #38]	@ 0x26
    huart->ErrorCode = HAL_UART_ERROR_NONE;
 8004a94:	2200      	movs	r2, #0
 8004a96:	6442      	str	r2, [r0, #68]	@ 0x44
    huart->gState = HAL_UART_STATE_BUSY_TX;
 8004a98:	2021      	movs	r0, #33	@ 0x21
 8004a9a:	f884 0041 	strb.w	r0, [r4, #65]	@ 0x41
    huart->hdmatx->XferCpltCallback = UART_DMATransmitCplt;
 8004a9e:	6ba0      	ldr	r0, [r4, #56]	@ 0x38
 8004aa0:	4d12      	ldr	r5, [pc, #72]	@ (8004aec <HAL_UART_Transmit_DMA+0x78>)
 8004aa2:	6285      	str	r5, [r0, #40]	@ 0x28
    huart->hdmatx->XferHalfCpltCallback = UART_DMATxHalfCplt;
 8004aa4:	6ba0      	ldr	r0, [r4, #56]	@ 0x38
 8004aa6:	4d12      	ldr	r5, [pc, #72]	@ (8004af0 <HAL_UART_Transmit_DMA+0x7c>)
 8004aa8:	62c5      	str	r5, [r0, #44]	@ 0x2c
    huart->hdmatx->XferErrorCallback = UART_DMAError;
 8004aaa:	6ba0      	ldr	r0, [r4, #56]	@ 0x38
 8004aac:	4d11      	ldr	r5, [pc, #68]	@ (8004af4 <HAL_UART_Transmit_DMA+0x80>)
 8004aae:	6305      	str	r5, [r0, #48]	@ 0x30
    huart->hdmatx->XferAbortCallback = NULL;
 8004ab0:	6ba0      	ldr	r0, [r4, #56]	@ 0x38
 8004ab2:	6342      	str	r2, [r0, #52]	@ 0x34
    HAL_DMA_Start_IT(huart->hdmatx, *(const uint32_t *)tmp, (uint32_t)&huart->Instance->DR, Size);
 8004ab4:	6822      	ldr	r2, [r4, #0]
 8004ab6:	3204      	adds	r2, #4
 8004ab8:	6ba0      	ldr	r0, [r4, #56]	@ 0x38
 8004aba:	f7fe f83d 	bl	8002b38 <HAL_DMA_Start_IT>
    __HAL_UART_CLEAR_FLAG(huart, UART_FLAG_TC);
 8004abe:	6823      	ldr	r3, [r4, #0]
 8004ac0:	f06f 0240 	mvn.w	r2, #64	@ 0x40
 8004ac4:	601a      	str	r2, [r3, #0]
    ATOMIC_SET_BIT(huart->Instance->CR3, USART_CR3_DMAT);
 8004ac6:	6822      	ldr	r2, [r4, #0]
   __ASM volatile ("ldrex %0, %1" : "=r" (result) : "Q" (*addr) );
 8004ac8:	f102 0314 	add.w	r3, r2, #20
 8004acc:	e853 3f00 	ldrex	r3, [r3]
 8004ad0:	f043 0380 	orr.w	r3, r3, #128	@ 0x80
   __ASM volatile ("strex %0, %2, %1" : "=&r" (result), "=Q" (*addr) : "r" (value) );
 8004ad4:	3214      	adds	r2, #20
 8004ad6:	e842 3100 	strex	r1, r3, [r2]
 8004ada:	2900      	cmp	r1, #0
 8004adc:	d1f3      	bne.n	8004ac6 <HAL_UART_Transmit_DMA+0x52>
    return HAL_OK;
 8004ade:	2000      	movs	r0, #0
 8004ae0:	e7d4      	b.n	8004a8c <HAL_UART_Transmit_DMA+0x18>
    return HAL_BUSY;
 8004ae2:	2002      	movs	r0, #2
 8004ae4:	e7d2      	b.n	8004a8c <HAL_UART_Transmit_DMA+0x18>
      return HAL_ERROR;
 8004ae6:	2001      	movs	r0, #1
 8004ae8:	e7d0      	b.n	8004a8c <HAL_UART_Transmit_DMA+0x18>
 8004aea:	bf00      	nop
 8004aec:	08004af9 	.word	0x08004af9
 8004af0:	08004b61 	.word	0x08004b61
 8004af4:	08004b6f 	.word	0x08004b6f

08004af8 <UART_DMATransmitCplt>:
{
 8004af8:	b508      	push	{r3, lr}
 8004afa:	4603      	mov	r3, r0
  UART_HandleTypeDef *huart = (UART_HandleTypeDef *)((DMA_HandleTypeDef *)hdma)->Parent;
 8004afc:	6a40      	ldr	r0, [r0, #36]	@ 0x24
  if ((hdma->Instance->CCR & DMA_CCR_CIRC) == 0U)
 8004afe:	681b      	ldr	r3, [r3, #0]
 8004b00:	681b      	ldr	r3, [r3, #0]
 8004b02:	f013 0f20 	tst.w	r3, #32
 8004b06:	d11a      	bne.n	8004b3e <UART_DMATransmitCplt+0x46>
    huart->TxXferCount = 0x00U;
 8004b08:	2300      	movs	r3, #0
 8004b0a:	84c3      	strh	r3, [r0, #38]	@ 0x26
    ATOMIC_CLEAR_BIT(huart->Instance->CR3, USART_CR3_DMAT);
 8004b0c:	6802      	ldr	r2, [r0, #0]
   __ASM volatile ("ldrex %0, %1" : "=r" (result) : "Q" (*addr) );
 8004b0e:	f102 0314 	add.w	r3, r2, #20
 8004b12:	e853 3f00 	ldrex	r3, [r3]
 8004b16:	f023 0380 	bic.w	r3, r3, #128	@ 0x80
   __ASM volatile ("strex %0, %2, %1" : "=&r" (result), "=Q" (*addr) : "r" (value) );
 8004b1a:	3214      	adds	r2, #20
 8004b1c:	e842 3100 	strex	r1, r3, [r2]
 8004b20:	2900      	cmp	r1, #0
 8004b22:	d1f3      	bne.n	8004b0c <UART_DMATransmitCplt+0x14>
    ATOMIC_SET_BIT(huart->Instance->CR1, USART_CR1_TCIE);
 8004b24:	6802      	ldr	r2, [r0, #0]
   __ASM volatile ("ldrex %0, %1" : "=r" (result) : "Q" (*addr) );
 8004b26:	f102 030c 	add.w	r3, r2, #12
 8004b2a:	e853 3f00 	ldrex	r3, [r3]
 8004b2e:	f043 0340 	orr.w	r3, r3, #64	@ 0x40
   __ASM volatile ("strex %0, %2, %1" : "=&r" (result), "=Q" (*addr) : "r" (value) );
 8004b32:	320c      	adds	r2, #12
 8004b34:	e842 3100 	strex	r1, r3, [r2]
 8004b38:	2900      	cmp	r1, #0
 8004b3a:	d1f3      	bne.n	8004b24 <UART_DMATransmitCplt+0x2c>
}
 8004b3c:	bd08      	pop	{r3, pc}
    HAL_UART_TxCpltCallback(huart);
 8004b3e:	f7fc fd37 	bl	80015b0 <HAL_UART_TxCpltCallback>
}
 8004b42:	e7fb      	b.n	8004b3c <UART_DMATransmitCplt+0x44>

08004b44 <UART_EndTransmit_IT>:
{
 8004b44:	b508      	push	{r3, lr}
  __HAL_UART_DISABLE_IT(huart, UART_IT_TC);
 8004b46:	6801      	ldr	r1, [r0, #0]
 8004b48:	68ca      	ldr	r2, [r1, #12]
 8004b4a:	f022 0240 	bic.w	r2, r2, #64	@ 0x40
 8004b4e:	60ca      	str	r2, [r1, #12]
  huart->gState = HAL_UART_STATE_READY;
 8004b50:	2220      	movs	r2, #32
 8004b52:	f880 2041 	strb.w	r2, [r0, #65]	@ 0x41
  HAL_UART_TxCpltCallback(huart);
 8004b56:	f7fc fd2b 	bl	80015b0 <HAL_UART_TxCpltCallback>
}
 8004b5a:	2000      	movs	r0, #0
 8004b5c:	bd08      	pop	{r3, pc}

08004b5e <HAL_UART_TxHalfCpltCallback>:
}
 8004b5e:	4770      	bx	lr

08004b60 <UART_DMATxHalfCplt>:
{
 8004b60:	b508      	push	{r3, lr}
  HAL_UART_TxHalfCpltCallback(huart);
 8004b62:	6a40      	ldr	r0, [r0, #36]	@ 0x24
 8004b64:	f7ff fffb 	bl	8004b5e <HAL_UART_TxHalfCpltCallback>
}
 8004b68:	bd08      	pop	{r3, pc}

08004b6a <HAL_UART_RxHalfCpltCallback>:
}
 8004b6a:	4770      	bx	lr

08004b6c <HAL_UART_ErrorCallback>:
}
 8004b6c:	4770      	bx	lr

08004b6e <UART_DMAError>:
{
 8004b6e:	b510      	push	{r4, lr}
  UART_HandleTypeDef *huart = (UART_HandleTypeDef *)((DMA_HandleTypeDef *)hdma)->Parent;
 8004b70:	6a44      	ldr	r4, [r0, #36]	@ 0x24
  dmarequest = HAL_IS_BIT_SET(huart->Instance->CR3, USART_CR3_DMAT);
 8004b72:	6823      	ldr	r3, [r4, #0]
 8004b74:	695a      	ldr	r2, [r3, #20]
  if ((huart->gState == HAL_UART_STATE_BUSY_TX) && dmarequest)
 8004b76:	f894 3041 	ldrb.w	r3, [r4, #65]	@ 0x41
 8004b7a:	b2db      	uxtb	r3, r3
 8004b7c:	2b21      	cmp	r3, #33	@ 0x21
 8004b7e:	d010      	beq.n	8004ba2 <UART_DMAError+0x34>
  dmarequest = HAL_IS_BIT_SET(huart->Instance->CR3, USART_CR3_DMAR);
 8004b80:	6823      	ldr	r3, [r4, #0]
 8004b82:	695a      	ldr	r2, [r3, #20]
 8004b84:	f002 0240 	and.w	r2, r2, #64	@ 0x40
  if ((huart->RxState == HAL_UART_STATE_BUSY_RX) && dmarequest)
 8004b88:	f894 3042 	ldrb.w	r3, [r4, #66]	@ 0x42
 8004b8c:	b2db      	uxtb	r3, r3
 8004b8e:	2b22      	cmp	r3, #34	@ 0x22
 8004b90:	d011      	beq.n	8004bb6 <UART_DMAError+0x48>
  huart->ErrorCode |= HAL_UART_ERROR_DMA;
 8004b92:	6c63      	ldr	r3, [r4, #68]	@ 0x44
 8004b94:	f043 0310 	orr.w	r3, r3, #16
 8004b98:	6463      	str	r3, [r4, #68]	@ 0x44
  HAL_UART_ErrorCallback(huart);
 8004b9a:	4620      	mov	r0, r4
 8004b9c:	f7ff ffe6 	bl	8004b6c <HAL_UART_ErrorCallback>
}
 8004ba0:	bd10      	pop	{r4, pc}
 8004ba2:	f002 0280 	and.w	r2, r2, #128	@ 0x80
  if ((huart->gState == HAL_UART_STATE_BUSY_TX) && dmarequest)
 8004ba6:	2a00      	cmp	r2, #0
 8004ba8:	d0ea      	beq.n	8004b80 <UART_DMAError+0x12>
    huart->TxXferCount = 0x00U;
 8004baa:	2300      	movs	r3, #0
 8004bac:	84e3      	strh	r3, [r4, #38]	@ 0x26
    UART_EndTxTransfer(huart);
 8004bae:	4620      	mov	r0, r4
 8004bb0:	f7ff fe78 	bl	80048a4 <UART_EndTxTransfer>
 8004bb4:	e7e4      	b.n	8004b80 <UART_DMAError+0x12>
  if ((huart->RxState == HAL_UART_STATE_BUSY_RX) && dmarequest)
 8004bb6:	2a00      	cmp	r2, #0
 8004bb8:	d0eb      	beq.n	8004b92 <UART_DMAError+0x24>
    huart->RxXferCount = 0x00U;
 8004bba:	2300      	movs	r3, #0
 8004bbc:	85e3      	strh	r3, [r4, #46]	@ 0x2e
    UART_EndRxTransfer(huart);
 8004bbe:	4620      	mov	r0, r4
 8004bc0:	f7ff fe80 	bl	80048c4 <UART_EndRxTransfer>
 8004bc4:	e7e5      	b.n	8004b92 <UART_DMAError+0x24>

08004bc6 <UART_DMAAbortOnError>:
{
 8004bc6:	b508      	push	{r3, lr}
  UART_HandleTypeDef *huart = (UART_HandleTypeDef *)((DMA_HandleTypeDef *)hdma)->Parent;
 8004bc8:	6a40      	ldr	r0, [r0, #36]	@ 0x24
  huart->RxXferCount = 0x00U;
 8004bca:	2300      	movs	r3, #0
 8004bcc:	85c3      	strh	r3, [r0, #46]	@ 0x2e
  huart->TxXferCount = 0x00U;
 8004bce:	84c3      	strh	r3, [r0, #38]	@ 0x26
  HAL_UART_ErrorCallback(huart);
 8004bd0:	f7ff ffcc 	bl	8004b6c <HAL_UART_ErrorCallback>
}
 8004bd4:	bd08      	pop	{r3, pc}

08004bd6 <HAL_UARTEx_RxEventCallback>:
}
 8004bd6:	4770      	bx	lr

08004bd8 <UART_Receive_IT>:
  if (huart->RxState == HAL_UART_STATE_BUSY_RX)
 8004bd8:	f890 3042 	ldrb.w	r3, [r0, #66]	@ 0x42
 8004bdc:	b2db      	uxtb	r3, r3
 8004bde:	2b22      	cmp	r3, #34	@ 0x22
 8004be0:	d169      	bne.n	8004cb6 <UART_Receive_IT+0xde>
    if ((huart->Init.WordLength == UART_WORDLENGTH_9B) && (huart->Init.Parity == UART_PARITY_NONE))
 8004be2:	6883      	ldr	r3, [r0, #8]
 8004be4:	f5b3 5f80 	cmp.w	r3, #4096	@ 0x1000
 8004be8:	d04f      	beq.n	8004c8a <UART_Receive_IT+0xb2>
      pdata8bits = (uint8_t *) huart->pRxBuffPtr;
 8004bea:	6a82      	ldr	r2, [r0, #40]	@ 0x28
      if ((huart->Init.WordLength == UART_WORDLENGTH_9B) || ((huart->Init.WordLength == UART_WORDLENGTH_8B) && (huart->Init.Parity == UART_PARITY_NONE)))
 8004bec:	f5b3 5f80 	cmp.w	r3, #4096	@ 0x1000
 8004bf0:	d004      	beq.n	8004bfc <UART_Receive_IT+0x24>
 8004bf2:	2b00      	cmp	r3, #0
 8004bf4:	d156      	bne.n	8004ca4 <UART_Receive_IT+0xcc>
 8004bf6:	6903      	ldr	r3, [r0, #16]
 8004bf8:	2b00      	cmp	r3, #0
 8004bfa:	d153      	bne.n	8004ca4 <UART_Receive_IT+0xcc>
        *pdata8bits = (uint8_t)(huart->Instance->DR & (uint8_t)0x00FF);
 8004bfc:	6803      	ldr	r3, [r0, #0]
 8004bfe:	685b      	ldr	r3, [r3, #4]
 8004c00:	7013      	strb	r3, [r2, #0]
      huart->pRxBuffPtr += 1U;
 8004c02:	6a83      	ldr	r3, [r0, #40]	@ 0x28
 8004c04:	3301      	adds	r3, #1
 8004c06:	6283      	str	r3, [r0, #40]	@ 0x28
    if (--huart->RxXferCount == 0U)
 8004c08:	8dc3      	ldrh	r3, [r0, #46]	@ 0x2e
 8004c0a:	b29b      	uxth	r3, r3
 8004c0c:	3b01      	subs	r3, #1
 8004c0e:	b29b      	uxth	r3, r3
 8004c10:	85c3      	strh	r3, [r0, #46]	@ 0x2e
 8004c12:	2b00      	cmp	r3, #0
 8004c14:	d151      	bne.n	8004cba <UART_Receive_IT+0xe2>
{
 8004c16:	b500      	push	{lr}
 8004c18:	b083      	sub	sp, #12
      __HAL_UART_DISABLE_IT(huart, UART_IT_RXNE);
 8004c1a:	6802      	ldr	r2, [r0, #0]
 8004c1c:	68d3      	ldr	r3, [r2, #12]
 8004c1e:	f023 0320 	bic.w	r3, r3, #32
 8004c22:	60d3      	str	r3, [r2, #12]
      __HAL_UART_DISABLE_IT(huart, UART_IT_PE);
 8004c24:	6802      	ldr	r2, [r0, #0]
 8004c26:	68d3      	ldr	r3, [r2, #12]
 8004c28:	f423 7380 	bic.w	r3, r3, #256	@ 0x100
 8004c2c:	60d3      	str	r3, [r2, #12]
      __HAL_UART_DISABLE_IT(huart, UART_IT_ERR);
 8004c2e:	6802      	ldr	r2, [r0, #0]
 8004c30:	6953      	ldr	r3, [r2, #20]
 8004c32:	f023 0301 	bic.w	r3, r3, #1
 8004c36:	6153      	str	r3, [r2, #20]
      huart->RxState = HAL_UART_STATE_READY;
 8004c38:	2320      	movs	r3, #32
 8004c3a:	f880 3042 	strb.w	r3, [r0, #66]	@ 0x42
      huart->RxEventType = HAL_UART_RXEVENT_TC;
 8004c3e:	2300      	movs	r3, #0
 8004c40:	6343      	str	r3, [r0, #52]	@ 0x34
      if (huart->ReceptionType == HAL_UART_RECEPTION_TOIDLE)
 8004c42:	6b03      	ldr	r3, [r0, #48]	@ 0x30
 8004c44:	2b01      	cmp	r3, #1
 8004c46:	d133      	bne.n	8004cb0 <UART_Receive_IT+0xd8>
        huart->ReceptionType = HAL_UART_RECEPTION_STANDARD;
 8004c48:	2300      	movs	r3, #0
 8004c4a:	6303      	str	r3, [r0, #48]	@ 0x30
        ATOMIC_CLEAR_BIT(huart->Instance->CR1, USART_CR1_IDLEIE);
 8004c4c:	6802      	ldr	r2, [r0, #0]
   __ASM volatile ("ldrex %0, %1" : "=r" (result) : "Q" (*addr) );
 8004c4e:	f102 030c 	add.w	r3, r2, #12
 8004c52:	e853 3f00 	ldrex	r3, [r3]
 8004c56:	f023 0310 	bic.w	r3, r3, #16
   __ASM volatile ("strex %0, %2, %1" : "=&r" (result), "=Q" (*addr) : "r" (value) );
 8004c5a:	320c      	adds	r2, #12
 8004c5c:	e842 3100 	strex	r1, r3, [r2]
 8004c60:	2900      	cmp	r1, #0
 8004c62:	d1f3      	bne.n	8004c4c <UART_Receive_IT+0x74>
        if (__HAL_UART_GET_FLAG(huart, UART_FLAG_IDLE))
 8004c64:	6803      	ldr	r3, [r0, #0]
 8004c66:	681a      	ldr	r2, [r3, #0]
 8004c68:	f012 0f10 	tst.w	r2, #16
 8004c6c:	d006      	beq.n	8004c7c <UART_Receive_IT+0xa4>
          __HAL_UART_CLEAR_IDLEFLAG(huart);
 8004c6e:	2200      	movs	r2, #0
 8004c70:	9201      	str	r2, [sp, #4]
 8004c72:	681a      	ldr	r2, [r3, #0]
 8004c74:	9201      	str	r2, [sp, #4]
 8004c76:	685b      	ldr	r3, [r3, #4]
 8004c78:	9301      	str	r3, [sp, #4]
 8004c7a:	9b01      	ldr	r3, [sp, #4]
        HAL_UARTEx_RxEventCallback(huart, huart->RxXferSize);
 8004c7c:	8d81      	ldrh	r1, [r0, #44]	@ 0x2c
 8004c7e:	f7ff ffaa 	bl	8004bd6 <HAL_UARTEx_RxEventCallback>
      return HAL_OK;
 8004c82:	2000      	movs	r0, #0
}
 8004c84:	b003      	add	sp, #12
 8004c86:	f85d fb04 	ldr.w	pc, [sp], #4
    if ((huart->Init.WordLength == UART_WORDLENGTH_9B) && (huart->Init.Parity == UART_PARITY_NONE))
 8004c8a:	6902      	ldr	r2, [r0, #16]
 8004c8c:	2a00      	cmp	r2, #0
 8004c8e:	d1ac      	bne.n	8004bea <UART_Receive_IT+0x12>
      pdata16bits = (uint16_t *) huart->pRxBuffPtr;
 8004c90:	6a82      	ldr	r2, [r0, #40]	@ 0x28
      *pdata16bits = (uint16_t)(huart->Instance->DR & (uint16_t)0x01FF);
 8004c92:	6803      	ldr	r3, [r0, #0]
 8004c94:	685b      	ldr	r3, [r3, #4]
 8004c96:	f3c3 0308 	ubfx	r3, r3, #0, #9
 8004c9a:	8013      	strh	r3, [r2, #0]
      huart->pRxBuffPtr += 2U;
 8004c9c:	6a83      	ldr	r3, [r0, #40]	@ 0x28
 8004c9e:	3302      	adds	r3, #2
 8004ca0:	6283      	str	r3, [r0, #40]	@ 0x28
 8004ca2:	e7b1      	b.n	8004c08 <UART_Receive_IT+0x30>
        *pdata8bits = (uint8_t)(huart->Instance->DR & (uint8_t)0x007F);
 8004ca4:	6803      	ldr	r3, [r0, #0]
 8004ca6:	685b      	ldr	r3, [r3, #4]
 8004ca8:	f003 037f 	and.w	r3, r3, #127	@ 0x7f
 8004cac:	7013      	strb	r3, [r2, #0]
 8004cae:	e7a8      	b.n	8004c02 <UART_Receive_IT+0x2a>
        HAL_UART_RxCpltCallback(huart);
 8004cb0:	f7fc fbf2 	bl	8001498 <HAL_UART_RxCpltCallback>
 8004cb4:	e7e5      	b.n	8004c82 <UART_Receive_IT+0xaa>
    return HAL_BUSY;
 8004cb6:	2002      	movs	r0, #2
 8004cb8:	4770      	bx	lr
    return HAL_OK;
 8004cba:	2000      	movs	r0, #0
}
 8004cbc:	4770      	bx	lr
	...

08004cc0 <HAL_UART_IRQHandler>:
{
 8004cc0:	b510      	push	{r4, lr}
 8004cc2:	b082      	sub	sp, #8
 8004cc4:	4604      	mov	r4, r0
  uint32_t isrflags   = READ_REG(huart->Instance->SR);
 8004cc6:	6802      	ldr	r2, [r0, #0]
 8004cc8:	6813      	ldr	r3, [r2, #0]
  uint32_t cr1its     = READ_REG(huart->Instance->CR1);
 8004cca:	68d0      	ldr	r0, [r2, #12]
  uint32_t cr3its     = READ_REG(huart->Instance->CR3);
 8004ccc:	6951      	ldr	r1, [r2, #20]
  if (errorflags == RESET)
 8004cce:	f013 0f0f 	tst.w	r3, #15
 8004cd2:	d109      	bne.n	8004ce8 <HAL_UART_IRQHandler+0x28>
    if (((isrflags & USART_SR_RXNE) != RESET) && ((cr1its & USART_CR1_RXNEIE) != RESET))
 8004cd4:	f013 0f20 	tst.w	r3, #32
 8004cd8:	d00c      	beq.n	8004cf4 <HAL_UART_IRQHandler+0x34>
 8004cda:	f010 0f20 	tst.w	r0, #32
 8004cde:	d009      	beq.n	8004cf4 <HAL_UART_IRQHandler+0x34>
      UART_Receive_IT(huart);
 8004ce0:	4620      	mov	r0, r4
 8004ce2:	f7ff ff79 	bl	8004bd8 <UART_Receive_IT>
      return;
 8004ce6:	e016      	b.n	8004d16 <HAL_UART_IRQHandler+0x56>
  if ((errorflags != RESET) && (((cr3its & USART_CR3_EIE) != RESET)
 8004ce8:	f011 0101 	ands.w	r1, r1, #1
 8004cec:	d115      	bne.n	8004d1a <HAL_UART_IRQHandler+0x5a>
                                || ((cr1its & (USART_CR1_RXNEIE | USART_CR1_PEIE)) != RESET)))
 8004cee:	f410 7f90 	tst.w	r0, #288	@ 0x120
 8004cf2:	d112      	bne.n	8004d1a <HAL_UART_IRQHandler+0x5a>
  if ((huart->ReceptionType == HAL_UART_RECEPTION_TOIDLE)
 8004cf4:	6b21      	ldr	r1, [r4, #48]	@ 0x30
 8004cf6:	2901      	cmp	r1, #1
 8004cf8:	d079      	beq.n	8004dee <HAL_UART_IRQHandler+0x12e>
  if (((isrflags & USART_SR_TXE) != RESET) && ((cr1its & USART_CR1_TXEIE) != RESET))
 8004cfa:	f013 0f80 	tst.w	r3, #128	@ 0x80
 8004cfe:	d003      	beq.n	8004d08 <HAL_UART_IRQHandler+0x48>
 8004d00:	f010 0f80 	tst.w	r0, #128	@ 0x80
 8004d04:	f040 8113 	bne.w	8004f2e <HAL_UART_IRQHandler+0x26e>
  if (((isrflags & USART_SR_TC) != RESET) && ((cr1its & USART_CR1_TCIE) != RESET))
 8004d08:	f013 0f40 	tst.w	r3, #64	@ 0x40
 8004d0c:	d003      	beq.n	8004d16 <HAL_UART_IRQHandler+0x56>
 8004d0e:	f010 0f40 	tst.w	r0, #64	@ 0x40
 8004d12:	f040 8110 	bne.w	8004f36 <HAL_UART_IRQHandler+0x276>
}
 8004d16:	b002      	add	sp, #8
 8004d18:	bd10      	pop	{r4, pc}
    if (((isrflags & USART_SR_PE) != RESET) && ((cr1its & USART_CR1_PEIE) != RESET))
 8004d1a:	f013 0f01 	tst.w	r3, #1
 8004d1e:	d006      	beq.n	8004d2e <HAL_UART_IRQHandler+0x6e>
 8004d20:	f410 7f80 	tst.w	r0, #256	@ 0x100
 8004d24:	d003      	beq.n	8004d2e <HAL_UART_IRQHandler+0x6e>
      huart->ErrorCode |= HAL_UART_ERROR_PE;
 8004d26:	6c62      	ldr	r2, [r4, #68]	@ 0x44
 8004d28:	f042 0201 	orr.w	r2, r2, #1
 8004d2c:	6462      	str	r2, [r4, #68]	@ 0x44
    if (((isrflags & USART_SR_NE) != RESET) && ((cr3its & USART_CR3_EIE) != RESET))
 8004d2e:	f013 0f04 	tst.w	r3, #4
 8004d32:	d004      	beq.n	8004d3e <HAL_UART_IRQHandler+0x7e>
 8004d34:	b119      	cbz	r1, 8004d3e <HAL_UART_IRQHandler+0x7e>
      huart->ErrorCode |= HAL_UART_ERROR_NE;
 8004d36:	6c62      	ldr	r2, [r4, #68]	@ 0x44
 8004d38:	f042 0202 	orr.w	r2, r2, #2
 8004d3c:	6462      	str	r2, [r4, #68]	@ 0x44
    if (((isrflags & USART_SR_FE) != RESET) && ((cr3its & USART_CR3_EIE) != RESET))
 8004d3e:	f013 0f02 	tst.w	r3, #2
 8004d42:	d004      	beq.n	8004d4e <HAL_UART_IRQHandler+0x8e>
 8004d44:	b119      	cbz	r1, 8004d4e <HAL_UART_IRQHandler+0x8e>
      huart->ErrorCode |= HAL_UART_ERROR_FE;
 8004d46:	6c62      	ldr	r2, [r4, #68]	@ 0x44
 8004d48:	f042 0204 	orr.w	r2, r2, #4
 8004d4c:	6462      	str	r2, [r4, #68]	@ 0x44
    if (((isrflags & USART_SR_ORE) != RESET) && (((cr1its & USART_CR1_RXNEIE) != RESET)
 8004d4e:	f013 0f08 	tst.w	r3, #8
 8004d52:	d007      	beq.n	8004d64 <HAL_UART_IRQHandler+0xa4>
 8004d54:	f010 0f20 	tst.w	r0, #32
 8004d58:	d100      	bne.n	8004d5c <HAL_UART_IRQHandler+0x9c>
                                                 || ((cr3its & USART_CR3_EIE) != RESET)))
 8004d5a:	b119      	cbz	r1, 8004d64 <HAL_UART_IRQHandler+0xa4>
      huart->ErrorCode |= HAL_UART_ERROR_ORE;
 8004d5c:	6c62      	ldr	r2, [r4, #68]	@ 0x44
 8004d5e:	f042 0208 	orr.w	r2, r2, #8
 8004d62:	6462      	str	r2, [r4, #68]	@ 0x44
    if (huart->ErrorCode != HAL_UART_ERROR_NONE)
 8004d64:	6c62      	ldr	r2, [r4, #68]	@ 0x44
 8004d66:	2a00      	cmp	r2, #0
 8004d68:	d0d5      	beq.n	8004d16 <HAL_UART_IRQHandler+0x56>
      if (((isrflags & USART_SR_RXNE) != RESET) && ((cr1its & USART_CR1_RXNEIE) != RESET))
 8004d6a:	f013 0f20 	tst.w	r3, #32
 8004d6e:	d002      	beq.n	8004d76 <HAL_UART_IRQHandler+0xb6>
 8004d70:	f010 0f20 	tst.w	r0, #32
 8004d74:	d129      	bne.n	8004dca <HAL_UART_IRQHandler+0x10a>
      dmarequest = HAL_IS_BIT_SET(huart->Instance->CR3, USART_CR3_DMAR);
 8004d76:	6823      	ldr	r3, [r4, #0]
 8004d78:	695b      	ldr	r3, [r3, #20]
 8004d7a:	f003 0340 	and.w	r3, r3, #64	@ 0x40
      if (((huart->ErrorCode & HAL_UART_ERROR_ORE) != RESET) || dmarequest)
 8004d7e:	6c62      	ldr	r2, [r4, #68]	@ 0x44
 8004d80:	f012 0f08 	tst.w	r2, #8
 8004d84:	d100      	bne.n	8004d88 <HAL_UART_IRQHandler+0xc8>
 8004d86:	b363      	cbz	r3, 8004de2 <HAL_UART_IRQHandler+0x122>
        UART_EndRxTransfer(huart);
 8004d88:	4620      	mov	r0, r4
 8004d8a:	f7ff fd9b 	bl	80048c4 <UART_EndRxTransfer>
        if (HAL_IS_BIT_SET(huart->Instance->CR3, USART_CR3_DMAR))
 8004d8e:	6823      	ldr	r3, [r4, #0]
 8004d90:	695b      	ldr	r3, [r3, #20]
 8004d92:	f013 0f40 	tst.w	r3, #64	@ 0x40
 8004d96:	d020      	beq.n	8004dda <HAL_UART_IRQHandler+0x11a>
          ATOMIC_CLEAR_BIT(huart->Instance->CR3, USART_CR3_DMAR);
 8004d98:	6822      	ldr	r2, [r4, #0]
   __ASM volatile ("ldrex %0, %1" : "=r" (result) : "Q" (*addr) );
 8004d9a:	f102 0314 	add.w	r3, r2, #20
 8004d9e:	e853 3f00 	ldrex	r3, [r3]
 8004da2:	f023 0340 	bic.w	r3, r3, #64	@ 0x40
   __ASM volatile ("strex %0, %2, %1" : "=&r" (result), "=Q" (*addr) : "r" (value) );
 8004da6:	3214      	adds	r2, #20
 8004da8:	e842 3100 	strex	r1, r3, [r2]
 8004dac:	2900      	cmp	r1, #0
 8004dae:	d1f3      	bne.n	8004d98 <HAL_UART_IRQHandler+0xd8>
          if (huart->hdmarx != NULL)
 8004db0:	6be3      	ldr	r3, [r4, #60]	@ 0x3c
 8004db2:	b173      	cbz	r3, 8004dd2 <HAL_UART_IRQHandler+0x112>
            huart->hdmarx->XferAbortCallback = UART_DMAAbortOnError;
 8004db4:	4a62      	ldr	r2, [pc, #392]	@ (8004f40 <HAL_UART_IRQHandler+0x280>)
 8004db6:	635a      	str	r2, [r3, #52]	@ 0x34
            if (HAL_DMA_Abort_IT(huart->hdmarx) != HAL_OK)
 8004db8:	6be0      	ldr	r0, [r4, #60]	@ 0x3c
 8004dba:	f7fd ff1b 	bl	8002bf4 <HAL_DMA_Abort_IT>
 8004dbe:	2800      	cmp	r0, #0
 8004dc0:	d0a9      	beq.n	8004d16 <HAL_UART_IRQHandler+0x56>
              huart->hdmarx->XferAbortCallback(huart->hdmarx);
 8004dc2:	6be0      	ldr	r0, [r4, #60]	@ 0x3c
 8004dc4:	6b43      	ldr	r3, [r0, #52]	@ 0x34
 8004dc6:	4798      	blx	r3
 8004dc8:	e7a5      	b.n	8004d16 <HAL_UART_IRQHandler+0x56>
        UART_Receive_IT(huart);
 8004dca:	4620      	mov	r0, r4
 8004dcc:	f7ff ff04 	bl	8004bd8 <UART_Receive_IT>
 8004dd0:	e7d1      	b.n	8004d76 <HAL_UART_IRQHandler+0xb6>
            HAL_UART_ErrorCallback(huart);
 8004dd2:	4620      	mov	r0, r4
 8004dd4:	f7ff feca 	bl	8004b6c <HAL_UART_ErrorCallback>
 8004dd8:	e79d      	b.n	8004d16 <HAL_UART_IRQHandler+0x56>
          HAL_UART_ErrorCallback(huart);
 8004dda:	4620      	mov	r0, r4
 8004ddc:	f7ff fec6 	bl	8004b6c <HAL_UART_ErrorCallback>
 8004de0:	e799      	b.n	8004d16 <HAL_UART_IRQHandler+0x56>
        HAL_UART_ErrorCallback(huart);
 8004de2:	4620      	mov	r0, r4
 8004de4:	f7ff fec2 	bl	8004b6c <HAL_UART_ErrorCallback>
        huart->ErrorCode = HAL_UART_ERROR_NONE;
 8004de8:	2300      	movs	r3, #0
 8004dea:	6463      	str	r3, [r4, #68]	@ 0x44
    return;
 8004dec:	e793      	b.n	8004d16 <HAL_UART_IRQHandler+0x56>
      && ((isrflags & USART_SR_IDLE) != 0U)
 8004dee:	f013 0f10 	tst.w	r3, #16
 8004df2:	d082      	beq.n	8004cfa <HAL_UART_IRQHandler+0x3a>
      && ((cr1its & USART_SR_IDLE) != 0U))
 8004df4:	f010 0f10 	tst.w	r0, #16
 8004df8:	f43f af7f 	beq.w	8004cfa <HAL_UART_IRQHandler+0x3a>
    __HAL_UART_CLEAR_IDLEFLAG(huart);
 8004dfc:	2300      	movs	r3, #0
 8004dfe:	9301      	str	r3, [sp, #4]
 8004e00:	6813      	ldr	r3, [r2, #0]
 8004e02:	9301      	str	r3, [sp, #4]
 8004e04:	6853      	ldr	r3, [r2, #4]
 8004e06:	9301      	str	r3, [sp, #4]
 8004e08:	9b01      	ldr	r3, [sp, #4]
    if (HAL_IS_BIT_SET(huart->Instance->CR3, USART_CR3_DMAR))
 8004e0a:	6953      	ldr	r3, [r2, #20]
 8004e0c:	f013 0f40 	tst.w	r3, #64	@ 0x40
 8004e10:	d051      	beq.n	8004eb6 <HAL_UART_IRQHandler+0x1f6>
      uint16_t nb_remaining_rx_data = (uint16_t) __HAL_DMA_GET_COUNTER(huart->hdmarx);
 8004e12:	6be2      	ldr	r2, [r4, #60]	@ 0x3c
 8004e14:	6813      	ldr	r3, [r2, #0]
 8004e16:	685b      	ldr	r3, [r3, #4]
 8004e18:	b29b      	uxth	r3, r3
      if ((nb_remaining_rx_data > 0U)
 8004e1a:	2b00      	cmp	r3, #0
 8004e1c:	f43f af7b 	beq.w	8004d16 <HAL_UART_IRQHandler+0x56>
          && (nb_remaining_rx_data < huart->RxXferSize))
 8004e20:	8da1      	ldrh	r1, [r4, #44]	@ 0x2c
 8004e22:	4299      	cmp	r1, r3
 8004e24:	f67f af77 	bls.w	8004d16 <HAL_UART_IRQHandler+0x56>
        huart->RxXferCount = nb_remaining_rx_data;
 8004e28:	85e3      	strh	r3, [r4, #46]	@ 0x2e
        if (huart->hdmarx->Init.Mode != DMA_CIRCULAR)
 8004e2a:	6993      	ldr	r3, [r2, #24]
 8004e2c:	2b20      	cmp	r3, #32
 8004e2e:	d037      	beq.n	8004ea0 <HAL_UART_IRQHandler+0x1e0>
          ATOMIC_CLEAR_BIT(huart->Instance->CR1, USART_CR1_PEIE);
 8004e30:	6822      	ldr	r2, [r4, #0]
   __ASM volatile ("ldrex %0, %1" : "=r" (result) : "Q" (*addr) );
 8004e32:	f102 030c 	add.w	r3, r2, #12
 8004e36:	e853 3f00 	ldrex	r3, [r3]
 8004e3a:	f423 7380 	bic.w	r3, r3, #256	@ 0x100
   __ASM volatile ("strex %0, %2, %1" : "=&r" (result), "=Q" (*addr) : "r" (value) );
 8004e3e:	320c      	adds	r2, #12
 8004e40:	e842 3100 	strex	r1, r3, [r2]
 8004e44:	2900      	cmp	r1, #0
 8004e46:	d1f3      	bne.n	8004e30 <HAL_UART_IRQHandler+0x170>
          ATOMIC_CLEAR_BIT(huart->Instance->CR3, USART_CR3_EIE);
 8004e48:	6822      	ldr	r2, [r4, #0]
   __ASM volatile ("ldrex %0, %1" : "=r" (result) : "Q" (*addr) );
 8004e4a:	f102 0314 	add.w	r3, r2, #20
 8004e4e:	e853 3f00 	ldrex	r3, [r3]
 8004e52:	f023 0301 	bic.w	r3, r3, #1
   __ASM volatile ("strex %0, %2, %1" : "=&r" (result), "=Q" (*addr) : "r" (value) );
 8004e56:	3214      	adds	r2, #20
 8004e58:	e842 3100 	strex	r1, r3, [r2]
 8004e5c:	2900      	cmp	r1, #0
 8004e5e:	d1f3      	bne.n	8004e48 <HAL_UART_IRQHandler+0x188>
          ATOMIC_CLEAR_BIT(huart->Instance->CR3, USART_CR3_DMAR);
 8004e60:	6822      	ldr	r2, [r4, #0]
   __ASM volatile ("ldrex %0, %1" : "=r" (result) : "Q" (*addr) );
 8004e62:	f102 0314 	add.w	r3, r2, #20
 8004e66:	e853 3f00 	ldrex	r3, [r3]
 8004e6a:	f023 0340 	bic.w	r3, r3, #64	@ 0x40
   __ASM volatile ("strex %0, %2, %1" : "=&r" (result), "=Q" (*addr) : "r" (value) );
 8004e6e:	3214      	adds	r2, #20
 8004e70:	e842 3100 	strex	r1, r3, [r2]
 8004e74:	2900      	cmp	r1, #0
 8004e76:	d1f3      	bne.n	8004e60 <HAL_UART_IRQHandler+0x1a0>
          huart->RxState = HAL_UART_STATE_READY;
 8004e78:	2320      	movs	r3, #32
 8004e7a:	f884 3042 	strb.w	r3, [r4, #66]	@ 0x42
          huart->ReceptionType = HAL_UART_RECEPTION_STANDARD;
 8004e7e:	2300      	movs	r3, #0
 8004e80:	6323      	str	r3, [r4, #48]	@ 0x30
          ATOMIC_CLEAR_BIT(huart->Instance->CR1, USART_CR1_IDLEIE);
 8004e82:	6822      	ldr	r2, [r4, #0]
   __ASM volatile ("ldrex %0, %1" : "=r" (result) : "Q" (*addr) );
 8004e84:	f102 030c 	add.w	r3, r2, #12
 8004e88:	e853 3f00 	ldrex	r3, [r3]
 8004e8c:	f023 0310 	bic.w	r3, r3, #16
   __ASM volatile ("strex %0, %2, %1" : "=&r" (result), "=Q" (*addr) : "r" (value) );
 8004e90:	320c      	adds	r2, #12
 8004e92:	e842 3100 	strex	r1, r3, [r2]
 8004e96:	2900      	cmp	r1, #0
 8004e98:	d1f3      	bne.n	8004e82 <HAL_UART_IRQHandler+0x1c2>
          (void)HAL_DMA_Abort(huart->hdmarx);
 8004e9a:	6be0      	ldr	r0, [r4, #60]	@ 0x3c
 8004e9c:	f7fd fe87 	bl	8002bae <HAL_DMA_Abort>
        huart->RxEventType = HAL_UART_RXEVENT_IDLE;
 8004ea0:	2302      	movs	r3, #2
 8004ea2:	6363      	str	r3, [r4, #52]	@ 0x34
        HAL_UARTEx_RxEventCallback(huart, (huart->RxXferSize - huart->RxXferCount));
 8004ea4:	8da1      	ldrh	r1, [r4, #44]	@ 0x2c
 8004ea6:	8de3      	ldrh	r3, [r4, #46]	@ 0x2e
 8004ea8:	b29b      	uxth	r3, r3
 8004eaa:	1ac9      	subs	r1, r1, r3
 8004eac:	b289      	uxth	r1, r1
 8004eae:	4620      	mov	r0, r4
 8004eb0:	f7ff fe91 	bl	8004bd6 <HAL_UARTEx_RxEventCallback>
      return;
 8004eb4:	e72f      	b.n	8004d16 <HAL_UART_IRQHandler+0x56>
      uint16_t nb_rx_data = huart->RxXferSize - huart->RxXferCount;
 8004eb6:	8da1      	ldrh	r1, [r4, #44]	@ 0x2c
 8004eb8:	8de3      	ldrh	r3, [r4, #46]	@ 0x2e
 8004eba:	b29b      	uxth	r3, r3
 8004ebc:	1ac9      	subs	r1, r1, r3
 8004ebe:	b289      	uxth	r1, r1
      if ((huart->RxXferCount > 0U)
 8004ec0:	8de3      	ldrh	r3, [r4, #46]	@ 0x2e
 8004ec2:	b29b      	uxth	r3, r3
 8004ec4:	2b00      	cmp	r3, #0
 8004ec6:	f43f af26 	beq.w	8004d16 <HAL_UART_IRQHandler+0x56>
          && (nb_rx_data > 0U))
 8004eca:	2900      	cmp	r1, #0
 8004ecc:	f43f af23 	beq.w	8004d16 <HAL_UART_IRQHandler+0x56>
        ATOMIC_CLEAR_BIT(huart->Instance->CR1, (USART_CR1_RXNEIE | USART_CR1_PEIE));
 8004ed0:	6822      	ldr	r2, [r4, #0]
   __ASM volatile ("ldrex %0, %1" : "=r" (result) : "Q" (*addr) );
 8004ed2:	f102 030c 	add.w	r3, r2, #12
 8004ed6:	e853 3f00 	ldrex	r3, [r3]
 8004eda:	f423 7390 	bic.w	r3, r3, #288	@ 0x120
   __ASM volatile ("strex %0, %2, %1" : "=&r" (result), "=Q" (*addr) : "r" (value) );
 8004ede:	320c      	adds	r2, #12
 8004ee0:	e842 3000 	strex	r0, r3, [r2]
 8004ee4:	2800      	cmp	r0, #0
 8004ee6:	d1f3      	bne.n	8004ed0 <HAL_UART_IRQHandler+0x210>
        ATOMIC_CLEAR_BIT(huart->Instance->CR3, USART_CR3_EIE);
 8004ee8:	6822      	ldr	r2, [r4, #0]
   __ASM volatile ("ldrex %0, %1" : "=r" (result) : "Q" (*addr) );
 8004eea:	f102 0314 	add.w	r3, r2, #20
 8004eee:	e853 3f00 	ldrex	r3, [r3]
 8004ef2:	f023 0301 	bic.w	r3, r3, #1
   __ASM volatile ("strex %0, %2, %1" : "=&r" (result), "=Q" (*addr) : "r" (value) );
 8004ef6:	3214      	adds	r2, #20
 8004ef8:	e842 3000 	strex	r0, r3, [r2]
 8004efc:	2800      	cmp	r0, #0
 8004efe:	d1f3      	bne.n	8004ee8 <HAL_UART_IRQHandler+0x228>
        huart->RxState = HAL_UART_STATE_READY;
 8004f00:	2320      	movs	r3, #32
 8004f02:	f884 3042 	strb.w	r3, [r4, #66]	@ 0x42
        huart->ReceptionType = HAL_UART_RECEPTION_STANDARD;
 8004f06:	2300      	movs	r3, #0
 8004f08:	6323      	str	r3, [r4, #48]	@ 0x30
        ATOMIC_CLEAR_BIT(huart->Instance->CR1, USART_CR1_IDLEIE);
 8004f0a:	6822      	ldr	r2, [r4, #0]
   __ASM volatile ("ldrex %0, %1" : "=r" (result) : "Q" (*addr) );
 8004f0c:	f102 030c 	add.w	r3, r2, #12
 8004f10:	e853 3f00 	ldrex	r3, [r3]
 8004f14:	f023 0310 	bic.w	r3, r3, #16
   __ASM volatile ("strex %0, %2, %1" : "=&r" (result), "=Q" (*addr) : "r" (value) );
 8004f18:	320c      	adds	r2, #12
 8004f1a:	e842 3000 	strex	r0, r3, [r2]
 8004f1e:	2800      	cmp	r0, #0
 8004f20:	d1f3      	bne.n	8004f0a <HAL_UART_IRQHandler+0x24a>
        huart->RxEventType = HAL_UART_RXEVENT_IDLE;
 8004f22:	2302      	movs	r3, #2
 8004f24:	6363      	str	r3, [r4, #52]	@ 0x34
        HAL_UARTEx_RxEventCallback(huart, nb_rx_data);
 8004f26:	4620      	mov	r0, r4
 8004f28:	f7ff fe55 	bl	8004bd6 <HAL_UARTEx_RxEventCallback>
      return;
 8004f2c:	e6f3      	b.n	8004d16 <HAL_UART_IRQHandler+0x56>
    UART_Transmit_IT(huart);
 8004f2e:	4620      	mov	r0, r4
 8004f30:	f7ff fcf6 	bl	8004920 <UART_Transmit_IT>
    return;
 8004f34:	e6ef      	b.n	8004d16 <HAL_UART_IRQHandler+0x56>
    UART_EndTransmit_IT(huart);
 8004f36:	4620      	mov	r0, r4
 8004f38:	f7ff fe04 	bl	8004b44 <UART_EndTransmit_IT>
    return;
 8004f3c:	e6eb      	b.n	8004d16 <HAL_UART_IRQHandler+0x56>
 8004f3e:	bf00      	nop
 8004f40:	08004bc7 	.word	0x08004bc7

08004f44 <UART_DMARxHalfCplt>:
{
 8004f44:	b508      	push	{r3, lr}
  UART_HandleTypeDef *huart = (UART_HandleTypeDef *)((DMA_HandleTypeDef *)hdma)->Parent;
 8004f46:	6a40      	ldr	r0, [r0, #36]	@ 0x24
  huart->RxEventType = HAL_UART_RXEVENT_HT;
 8004f48:	2301      	movs	r3, #1
 8004f4a:	6343      	str	r3, [r0, #52]	@ 0x34
  if (huart->ReceptionType == HAL_UART_RECEPTION_TOIDLE)
 8004f4c:	6b03      	ldr	r3, [r0, #48]	@ 0x30
 8004f4e:	2b01      	cmp	r3, #1
 8004f50:	d002      	beq.n	8004f58 <UART_DMARxHalfCplt+0x14>
    HAL_UART_RxHalfCpltCallback(huart);
 8004f52:	f7ff fe0a 	bl	8004b6a <HAL_UART_RxHalfCpltCallback>
}
 8004f56:	bd08      	pop	{r3, pc}
    HAL_UARTEx_RxEventCallback(huart, huart->RxXferSize / 2U);
 8004f58:	8d81      	ldrh	r1, [r0, #44]	@ 0x2c
 8004f5a:	0849      	lsrs	r1, r1, #1
 8004f5c:	f7ff fe3b 	bl	8004bd6 <HAL_UARTEx_RxEventCallback>
 8004f60:	e7f9      	b.n	8004f56 <UART_DMARxHalfCplt+0x12>

08004f62 <UART_DMAReceiveCplt>:
{
 8004f62:	b508      	push	{r3, lr}
 8004f64:	4603      	mov	r3, r0
  UART_HandleTypeDef *huart = (UART_HandleTypeDef *)((DMA_HandleTypeDef *)hdma)->Parent;
 8004f66:	6a40      	ldr	r0, [r0, #36]	@ 0x24
  if ((hdma->Instance->CCR & DMA_CCR_CIRC) == 0U)
 8004f68:	681b      	ldr	r3, [r3, #0]
 8004f6a:	681b      	ldr	r3, [r3, #0]
 8004f6c:	f013 0f20 	tst.w	r3, #32
 8004f70:	d12b      	bne.n	8004fca <UART_DMAReceiveCplt+0x68>
    huart->RxXferCount = 0U;
 8004f72:	2300      	movs	r3, #0
 8004f74:	85c3      	strh	r3, [r0, #46]	@ 0x2e
    ATOMIC_CLEAR_BIT(huart->Instance->CR1, USART_CR1_PEIE);
 8004f76:	6802      	ldr	r2, [r0, #0]
   __ASM volatile ("ldrex %0, %1" : "=r" (result) : "Q" (*addr) );
 8004f78:	f102 030c 	add.w	r3, r2, #12
 8004f7c:	e853 3f00 	ldrex	r3, [r3]
 8004f80:	f423 7380 	bic.w	r3, r3, #256	@ 0x100
   __ASM volatile ("strex %0, %2, %1" : "=&r" (result), "=Q" (*addr) : "r" (value) );
 8004f84:	320c      	adds	r2, #12
 8004f86:	e842 3100 	strex	r1, r3, [r2]
 8004f8a:	2900      	cmp	r1, #0
 8004f8c:	d1f3      	bne.n	8004f76 <UART_DMAReceiveCplt+0x14>
    ATOMIC_CLEAR_BIT(huart->Instance->CR3, USART_CR3_EIE);
 8004f8e:	6802      	ldr	r2, [r0, #0]
   __ASM volatile ("ldrex %0, %1" : "=r" (result) : "Q" (*addr) );
 8004f90:	f102 0314 	add.w	r3, r2, #20
 8004f94:	e853 3f00 	ldrex	r3, [r3]
 8004f98:	f023 0301 	bic.w	r3, r3, #1
   __ASM volatile ("strex %0, %2, %1" : "=&r" (result), "=Q" (*addr) : "r" (value) );
 8004f9c:	3214      	adds	r2, #20
 8004f9e:	e842 3100 	strex	r1, r3, [r2]
 8004fa2:	2900      	cmp	r1, #0
 8004fa4:	d1f3      	bne.n	8004f8e <UART_DMAReceiveCplt+0x2c>
    ATOMIC_CLEAR_BIT(huart->Instance->CR3, USART_CR3_DMAR);
 8004fa6:	6802      	ldr	r2, [r0, #0]
   __ASM volatile ("ldrex %0, %1" : "=r" (result) : "Q" (*addr) );
 8004fa8:	f102 0314 	add.w	r3, r2, #20
 8004fac:	e853 3f00 	ldrex	r3, [r3]
 8004fb0:	f023 0340 	bic.w	r3, r3, #64	@ 0x40
   __ASM volatile ("strex %0, %2, %1" : "=&r" (result), "=Q" (*addr) : "r" (value) );
 8004fb4:	3214      	adds	r2, #20
 8004fb6:	e842 3100 	strex	r1, r3, [r2]
 8004fba:	2900      	cmp	r1, #0
 8004fbc:	d1f3      	bne.n	8004fa6 <UART_DMAReceiveCplt+0x44>
    huart->RxState = HAL_UART_STATE_READY;
 8004fbe:	2320      	movs	r3, #32
 8004fc0:	f880 3042 	strb.w	r3, [r0, #66]	@ 0x42
    if (huart->ReceptionType == HAL_UART_RECEPTION_TOIDLE)
 8004fc4:	6b03      	ldr	r3, [r0, #48]	@ 0x30
 8004fc6:	2b01      	cmp	r3, #1
 8004fc8:	d007      	beq.n	8004fda <UART_DMAReceiveCplt+0x78>
  huart->RxEventType = HAL_UART_RXEVENT_TC;
 8004fca:	2300      	movs	r3, #0
 8004fcc:	6343      	str	r3, [r0, #52]	@ 0x34
  if (huart->ReceptionType == HAL_UART_RECEPTION_TOIDLE)
 8004fce:	6b03      	ldr	r3, [r0, #48]	@ 0x30
 8004fd0:	2b01      	cmp	r3, #1
 8004fd2:	d00f      	beq.n	8004ff4 <UART_DMAReceiveCplt+0x92>
    HAL_UART_RxCpltCallback(huart);
 8004fd4:	f7fc fa60 	bl	8001498 <HAL_UART_RxCpltCallback>
}
 8004fd8:	bd08      	pop	{r3, pc}
      ATOMIC_CLEAR_BIT(huart->Instance->CR1, USART_CR1_IDLEIE);
 8004fda:	6802      	ldr	r2, [r0, #0]
   __ASM volatile ("ldrex %0, %1" : "=r" (result) : "Q" (*addr) );
 8004fdc:	f102 030c 	add.w	r3, r2, #12
 8004fe0:	e853 3f00 	ldrex	r3, [r3]
 8004fe4:	f023 0310 	bic.w	r3, r3, #16
   __ASM volatile ("strex %0, %2, %1" : "=&r" (result), "=Q" (*addr) : "r" (value) );
 8004fe8:	320c      	adds	r2, #12
 8004fea:	e842 3100 	strex	r1, r3, [r2]
 8004fee:	2900      	cmp	r1, #0
 8004ff0:	d1f3      	bne.n	8004fda <UART_DMAReceiveCplt+0x78>
 8004ff2:	e7ea      	b.n	8004fca <UART_DMAReceiveCplt+0x68>
    HAL_UARTEx_RxEventCallback(huart, huart->RxXferSize);
 8004ff4:	8d81      	ldrh	r1, [r0, #44]	@ 0x2c
 8004ff6:	f7ff fdee 	bl	8004bd6 <HAL_UARTEx_RxEventCallback>
 8004ffa:	e7ed      	b.n	8004fd8 <UART_DMAReceiveCplt+0x76>

08004ffc <UART_Start_Receive_DMA>:
{
 8004ffc:	b530      	push	{r4, r5, lr}
 8004ffe:	b083      	sub	sp, #12
 8005000:	4604      	mov	r4, r0
 8005002:	4613      	mov	r3, r2
  huart->pRxBuffPtr = pData;
 8005004:	6281      	str	r1, [r0, #40]	@ 0x28
  huart->RxXferSize = Size;
 8005006:	8582      	strh	r2, [r0, #44]	@ 0x2c
  huart->ErrorCode = HAL_UART_ERROR_NONE;
 8005008:	2500      	movs	r5, #0
 800500a:	6445      	str	r5, [r0, #68]	@ 0x44
  huart->RxState = HAL_UART_STATE_BUSY_RX;
 800500c:	2222      	movs	r2, #34	@ 0x22
 800500e:	f880 2042 	strb.w	r2, [r0, #66]	@ 0x42
  huart->hdmarx->XferCpltCallback = UART_DMAReceiveCplt;
 8005012:	6bc2      	ldr	r2, [r0, #60]	@ 0x3c
 8005014:	481f      	ldr	r0, [pc, #124]	@ (8005094 <UART_Start_Receive_DMA+0x98>)
 8005016:	6290      	str	r0, [r2, #40]	@ 0x28
  huart->hdmarx->XferHalfCpltCallback = UART_DMARxHalfCplt;
 8005018:	6be2      	ldr	r2, [r4, #60]	@ 0x3c
 800501a:	481f      	ldr	r0, [pc, #124]	@ (8005098 <UART_Start_Receive_DMA+0x9c>)
 800501c:	62d0      	str	r0, [r2, #44]	@ 0x2c
  huart->hdmarx->XferErrorCallback = UART_DMAError;
 800501e:	6be2      	ldr	r2, [r4, #60]	@ 0x3c
 8005020:	481e      	ldr	r0, [pc, #120]	@ (800509c <UART_Start_Receive_DMA+0xa0>)
 8005022:	6310      	str	r0, [r2, #48]	@ 0x30
  huart->hdmarx->XferAbortCallback = NULL;
 8005024:	6be2      	ldr	r2, [r4, #60]	@ 0x3c
 8005026:	6355      	str	r5, [r2, #52]	@ 0x34
  HAL_DMA_Start_IT(huart->hdmarx, (uint32_t)&huart->Instance->DR, *(uint32_t *)tmp, Size);
 8005028:	6820      	ldr	r0, [r4, #0]
 800502a:	460a      	mov	r2, r1
 800502c:	1d01      	adds	r1, r0, #4
 800502e:	6be0      	ldr	r0, [r4, #60]	@ 0x3c
 8005030:	f7fd fd82 	bl	8002b38 <HAL_DMA_Start_IT>
  __HAL_UART_CLEAR_OREFLAG(huart);
 8005034:	9501      	str	r5, [sp, #4]
 8005036:	6823      	ldr	r3, [r4, #0]
 8005038:	681a      	ldr	r2, [r3, #0]
 800503a:	9201      	str	r2, [sp, #4]
 800503c:	685b      	ldr	r3, [r3, #4]
 800503e:	9301      	str	r3, [sp, #4]
 8005040:	9b01      	ldr	r3, [sp, #4]
  if (huart->Init.Parity != UART_PARITY_NONE)
 8005042:	6923      	ldr	r3, [r4, #16]
 8005044:	b15b      	cbz	r3, 800505e <UART_Start_Receive_DMA+0x62>
    ATOMIC_SET_BIT(huart->Instance->CR1, USART_CR1_PEIE);
 8005046:	6822      	ldr	r2, [r4, #0]
   __ASM volatile ("ldrex %0, %1" : "=r" (result) : "Q" (*addr) );
 8005048:	f102 030c 	add.w	r3, r2, #12
 800504c:	e853 3f00 	ldrex	r3, [r3]
 8005050:	f443 7380 	orr.w	r3, r3, #256	@ 0x100
   __ASM volatile ("strex %0, %2, %1" : "=&r" (result), "=Q" (*addr) : "r" (value) );
 8005054:	320c      	adds	r2, #12
 8005056:	e842 3100 	strex	r1, r3, [r2]
 800505a:	2900      	cmp	r1, #0
 800505c:	d1f3      	bne.n	8005046 <UART_Start_Receive_DMA+0x4a>
  ATOMIC_SET_BIT(huart->Instance->CR3, USART_CR3_EIE);
 800505e:	6822      	ldr	r2, [r4, #0]
   __ASM volatile ("ldrex %0, %1" : "=r" (result) : "Q" (*addr) );
 8005060:	f102 0314 	add.w	r3, r2, #20
 8005064:	e853 3f00 	ldrex	r3, [r3]
 8005068:	f043 0301 	orr.w	r3, r3, #1
   __ASM volatile ("strex %0, %2, %1" : "=&r" (result), "=Q" (*addr) : "r" (value) );
 800506c:	3214      	adds	r2, #20
 800506e:	e842 3100 	strex	r1, r3, [r2]
 8005072:	2900      	cmp	r1, #0
 8005074:	d1f3      	bne.n	800505e <UART_Start_Receive_DMA+0x62>
  ATOMIC_SET_BIT(huart->Instance->CR3, USART_CR3_DMAR);
 8005076:	6822      	ldr	r2, [r4, #0]
   __ASM volatile ("ldrex %0, %1" : "=r" (result) : "Q" (*addr) );
 8005078:	f102 0314 	add.w	r3, r2, #20
 800507c:	e853 3f00 	ldrex	r3, [r3]
 8005080:	f043 0340 	orr.w	r3, r3, #64	@ 0x40
   __ASM volatile ("strex %0, %2, %1" : "=&r" (result), "=Q" (*addr) : "r" (value) );
 8005084:	3214      	adds	r2, #20
 8005086:	e842 3100 	strex	r1, r3, [r2]
 800508a:	2900      	cmp	r1, #0
 800508c:	d1f3      	bne.n	8005076 <UART_Start_Receive_DMA+0x7a>
}
 800508e:	2000      	movs	r0, #0
 8005090:	b003      	add	sp, #12
 8005092:	bd30      	pop	{r4, r5, pc}
 8005094:	08004f63 	.word	0x08004f63
 8005098:	08004f45 	.word	0x08004f45
 800509c:	08004b6f 	.word	0x08004b6f

080050a0 <HAL_UART_Receive_DMA>:
{
 80050a0:	b508      	push	{r3, lr}
  if (huart->RxState == HAL_UART_STATE_READY)
 80050a2:	f890 3042 	ldrb.w	r3, [r0, #66]	@ 0x42
 80050a6:	b2db      	uxtb	r3, r3
 80050a8:	2b20      	cmp	r3, #32
 80050aa:	d108      	bne.n	80050be <HAL_UART_Receive_DMA+0x1e>
    if ((pData == NULL) || (Size == 0U))
 80050ac:	b149      	cbz	r1, 80050c2 <HAL_UART_Receive_DMA+0x22>
 80050ae:	b90a      	cbnz	r2, 80050b4 <HAL_UART_Receive_DMA+0x14>
      return HAL_ERROR;
 80050b0:	2001      	movs	r0, #1
}
 80050b2:	bd08      	pop	{r3, pc}
    huart->ReceptionType = HAL_UART_RECEPTION_STANDARD;
 80050b4:	2300      	movs	r3, #0
 80050b6:	6303      	str	r3, [r0, #48]	@ 0x30
    return (UART_Start_Receive_DMA(huart, pData, Size));
 80050b8:	f7ff ffa0 	bl	8004ffc <UART_Start_Receive_DMA>
 80050bc:	e7f9      	b.n	80050b2 <HAL_UART_Receive_DMA+0x12>
    return HAL_BUSY;
 80050be:	2002      	movs	r0, #2
 80050c0:	e7f7      	b.n	80050b2 <HAL_UART_Receive_DMA+0x12>
      return HAL_ERROR;
 80050c2:	2001      	movs	r0, #1
 80050c4:	e7f5      	b.n	80050b2 <HAL_UART_Receive_DMA+0x12>
	...

080050c8 <Reset_Handler>:
  .weak Reset_Handler
  .type Reset_Handler, %function
Reset_Handler:

/* Call the clock system initialization function.*/
    bl  SystemInit
 80050c8:	f7fc fea6 	bl	8001e18 <SystemInit>

/* Copy the data segment initializers from flash to SRAM */
  ldr r0, =_sdata
 80050cc:	480b      	ldr	r0, [pc, #44]	@ (80050fc <LoopFillZerobss+0xe>)
  ldr r1, =_edata
 80050ce:	490c      	ldr	r1, [pc, #48]	@ (8005100 <LoopFillZerobss+0x12>)
  ldr r2, =_sidata
 80050d0:	4a0c      	ldr	r2, [pc, #48]	@ (8005104 <LoopFillZerobss+0x16>)
  movs r3, #0
 80050d2:	2300      	movs	r3, #0
  b LoopCopyDataInit
 80050d4:	e002      	b.n	80050dc <LoopCopyDataInit>

080050d6 <CopyDataInit>:

CopyDataInit:
  ldr r4, [r2, r3]
 80050d6:	58d4      	ldr	r4, [r2, r3]
  str r4, [r0, r3]
 80050d8:	50c4      	str	r4, [r0, r3]
  adds r3, r3, #4
 80050da:	3304      	adds	r3, #4

080050dc <LoopCopyDataInit>:

LoopCopyDataInit:
  adds r4, r0, r3
 80050dc:	18c4      	adds	r4, r0, r3
  cmp r4, r1
 80050de:	428c      	cmp	r4, r1
  bcc CopyDataInit
 80050e0:	d3f9      	bcc.n	80050d6 <CopyDataInit>
  
/* Zero fill the bss segment. */
  ldr r2, =_sbss
 80050e2:	4a09      	ldr	r2, [pc, #36]	@ (8005108 <LoopFillZerobss+0x1a>)
  ldr r4, =_ebss
 80050e4:	4c09      	ldr	r4, [pc, #36]	@ (800510c <LoopFillZerobss+0x1e>)
  movs r3, #0
 80050e6:	2300      	movs	r3, #0
  b LoopFillZerobss
 80050e8:	e001      	b.n	80050ee <LoopFillZerobss>

080050ea <FillZerobss>:

FillZerobss:
  str  r3, [r2]
 80050ea:	6013      	str	r3, [r2, #0]
  adds r2, r2, #4
 80050ec:	3204      	adds	r2, #4

080050ee <LoopFillZerobss>:

LoopFillZerobss:
  cmp r2, r4
 80050ee:	42a2      	cmp	r2, r4
  bcc FillZerobss
 80050f0:	d3fb      	bcc.n	80050ea <FillZerobss>

/* Call static constructors */
    bl __libc_init_array
 80050f2:	f000 f867 	bl	80051c4 <__libc_init_array>
/* Call the application's entry point.*/
  bl main
 80050f6:	f7fb ff43 	bl	8000f80 <main>
  bx lr
 80050fa:	4770      	bx	lr
  ldr r0, =_sdata
 80050fc:	20000000 	.word	0x20000000
  ldr r1, =_edata
 8005100:	200000ac 	.word	0x200000ac
  ldr r2, =_sidata
 8005104:	08005294 	.word	0x08005294
  ldr r2, =_sbss
 8005108:	200000ac 	.word	0x200000ac
  ldr r4, =_ebss
 800510c:	200006f0 	.word	0x200006f0

08005110 <ADC1_2_IRQHandler>:
 * @retval : None
*/
    .section .text.Default_Handler,"ax",%progbits
Default_Handler:
Infinite_Loop:
  b Infinite_Loop
 8005110:	e7fe      	b.n	8005110 <ADC1_2_IRQHandler>
	...

08005114 <_IQ18div>:
 8005114:	f091 0f00 	teq	r1, #0
 8005118:	bf04      	itt	eq
 800511a:	f06f 4000 	mvneq.w	r0, #2147483648	@ 0x80000000
 800511e:	4770      	bxeq	lr
 8005120:	b510      	push	{r4, lr}
 8005122:	f04f 0e01 	mov.w	lr, #1
 8005126:	ea90 0f01 	teq	r0, r1
 800512a:	bf48      	it	mi
 800512c:	f04f 0e00 	movmi.w	lr, #0
 8005130:	2800      	cmp	r0, #0
 8005132:	bf48      	it	mi
 8005134:	4240      	negmi	r0, r0
 8005136:	2900      	cmp	r1, #0
 8005138:	bf48      	it	mi
 800513a:	4249      	negmi	r1, r1
 800513c:	fab0 f480 	clz	r4, r0
 8005140:	2c12      	cmp	r4, #18
 8005142:	bfa8      	it	ge
 8005144:	2412      	movge	r4, #18
 8005146:	fa00 f204 	lsl.w	r2, r0, r4
 800514a:	f1c4 0c12 	rsb	ip, r4, #18
 800514e:	fbb2 f0f1 	udiv	r0, r2, r1
 8005152:	fab0 f380 	clz	r3, r0
 8005156:	459c      	cmp	ip, r3
 8005158:	bfa4      	itt	ge
 800515a:	f1ce 4000 	rsbge	r0, lr, #2147483648	@ 0x80000000
 800515e:	bd10      	popge	{r4, pc}
 8005160:	fb01 2210 	mls	r2, r1, r0, r2
 8005164:	fab2 f482 	clz	r4, r2
 8005168:	4564      	cmp	r4, ip
 800516a:	da0e      	bge.n	800518a <divfinished18>

0800516c <divmore18>:
 800516c:	ebac 0c04 	sub.w	ip, ip, r4
 8005170:	fa02 f204 	lsl.w	r2, r2, r4
 8005174:	fa00 f004 	lsl.w	r0, r0, r4
 8005178:	fbb2 f3f1 	udiv	r3, r2, r1
 800517c:	fb01 2213 	mls	r2, r1, r3, r2
 8005180:	4418      	add	r0, r3
 8005182:	fab2 f482 	clz	r4, r2
 8005186:	4564      	cmp	r4, ip
 8005188:	ddf0      	ble.n	800516c <divmore18>

0800518a <divfinished18>:
 800518a:	fa02 f20c 	lsl.w	r2, r2, ip
 800518e:	fa00 f00c 	lsl.w	r0, r0, ip
 8005192:	fbb2 f3f1 	udiv	r3, r2, r1
 8005196:	4418      	add	r0, r3
 8005198:	f09e 0f00 	teq	lr, #0
 800519c:	bf08      	it	eq
 800519e:	4240      	negeq	r0, r0
 80051a0:	bd10      	pop	{r4, pc}
 80051a2:	bf00      	nop

080051a4 <_IQ18mpy>:
 80051a4:	fb80 0101 	smull	r0, r1, r0, r1
 80051a8:	ea4f 4090 	mov.w	r0, r0, lsr #18
 80051ac:	eb00 3081 	add.w	r0, r0, r1, lsl #14
 80051b0:	4770      	bx	lr
 80051b2:	bf00      	nop

080051b4 <memset>:
 80051b4:	4603      	mov	r3, r0
 80051b6:	4402      	add	r2, r0
 80051b8:	4293      	cmp	r3, r2
 80051ba:	d100      	bne.n	80051be <memset+0xa>
 80051bc:	4770      	bx	lr
 80051be:	f803 1b01 	strb.w	r1, [r3], #1
 80051c2:	e7f9      	b.n	80051b8 <memset+0x4>

080051c4 <__libc_init_array>:
 80051c4:	b570      	push	{r4, r5, r6, lr}
 80051c6:	2600      	movs	r6, #0
 80051c8:	4d0c      	ldr	r5, [pc, #48]	@ (80051fc <__libc_init_array+0x38>)
 80051ca:	4c0d      	ldr	r4, [pc, #52]	@ (8005200 <__libc_init_array+0x3c>)
 80051cc:	1b64      	subs	r4, r4, r5
 80051ce:	10a4      	asrs	r4, r4, #2
 80051d0:	42a6      	cmp	r6, r4
 80051d2:	d109      	bne.n	80051e8 <__libc_init_array+0x24>
 80051d4:	f000 f82e 	bl	8005234 <_init>
 80051d8:	2600      	movs	r6, #0
 80051da:	4d0a      	ldr	r5, [pc, #40]	@ (8005204 <__libc_init_array+0x40>)
 80051dc:	4c0a      	ldr	r4, [pc, #40]	@ (8005208 <__libc_init_array+0x44>)
 80051de:	1b64      	subs	r4, r4, r5
 80051e0:	10a4      	asrs	r4, r4, #2
 80051e2:	42a6      	cmp	r6, r4
 80051e4:	d105      	bne.n	80051f2 <__libc_init_array+0x2e>
 80051e6:	bd70      	pop	{r4, r5, r6, pc}
 80051e8:	f855 3b04 	ldr.w	r3, [r5], #4
 80051ec:	4798      	blx	r3
 80051ee:	3601      	adds	r6, #1
 80051f0:	e7ee      	b.n	80051d0 <__libc_init_array+0xc>
 80051f2:	f855 3b04 	ldr.w	r3, [r5], #4
 80051f6:	4798      	blx	r3
 80051f8:	3601      	adds	r6, #1
 80051fa:	e7f2      	b.n	80051e2 <__libc_init_array+0x1e>
 80051fc:	0800528c 	.word	0x0800528c
 8005200:	0800528c 	.word	0x0800528c
 8005204:	0800528c 	.word	0x0800528c
 8005208:	08005290 	.word	0x08005290

0800520c <__popcountsi2>:
 800520c:	0843      	lsrs	r3, r0, #1
 800520e:	f003 3355 	and.w	r3, r3, #1431655765	@ 0x55555555
 8005212:	1ac0      	subs	r0, r0, r3
 8005214:	0883      	lsrs	r3, r0, #2
 8005216:	f003 3333 	and.w	r3, r3, #858993459	@ 0x33333333
 800521a:	f000 3033 	and.w	r0, r0, #858993459	@ 0x33333333
 800521e:	4418      	add	r0, r3
 8005220:	eb00 1010 	add.w	r0, r0, r0, lsr #4
 8005224:	f000 300f 	and.w	r0, r0, #252645135	@ 0xf0f0f0f
 8005228:	eb00 2000 	add.w	r0, r0, r0, lsl #8
 800522c:	eb00 4000 	add.w	r0, r0, r0, lsl #16
 8005230:	0e00      	lsrs	r0, r0, #24
 8005232:	4770      	bx	lr

08005234 <_init>:
 8005234:	b5f8      	push	{r3, r4, r5, r6, r7, lr}
 8005236:	bf00      	nop
 8005238:	bcf8      	pop	{r3, r4, r5, r6, r7}
 800523a:	bc08      	pop	{r3}
 800523c:	469e      	mov	lr, r3
 800523e:	4770      	bx	lr

08005240 <_fini>:
 8005240:	b5f8      	push	{r3, r4, r5, r6, r7, lr}
 8005242:	bf00      	nop
 8005244:	bcf8      	pop	{r3, r4, r5, r6, r7}
 8005246:	bc08      	pop	{r3}
 8005248:	469e      	mov	lr, r3
 800524a:	4770      	bx	lr
