
build/ovcharka-firmware.elf:     file format elf32-littlearm

Sections:
Idx Name          Size      VMA       LMA       File off  Algn
  0 .isr_vector   0000010c  08000000  08000000  00001000  2**0
                  CONTENTS, ALLOC, LOAD, READONLY, DATA
  1 .text         0000384c  0800010c  0800010c  0000110c  2**2
                  CONTENTS, ALLOC, LOAD, READONLY, CODE
  2 .rodata       00000040  08003958  08003958  00004958  2**2
                  CONTENTS, ALLOC, LOAD, READONLY, DATA
  3 .init_array   00000004  08003998  08003998  00004998  2**2
                  CONTENTS, ALLOC, LOAD, DATA
  4 .fini_array   00000004  0800399c  0800399c  0000499c  2**2
                  CONTENTS, ALLOC, LOAD, DATA
  5 .data         00000088  20000000  080039a0  00005000  2**2
                  CONTENTS, ALLOC, LOAD, DATA
  6 .bss          00000394  20000088  08003a28  00005088  2**2
                  ALLOC
  7 ._user_heap_stack 00000604  2000041c  08003a28  0000541c  2**0
                  ALLOC
  8 .ARM.attributes 00000029  00000000  00000000  00005088  2**0
                  CONTENTS, READONLY
  9 .comment      00000039  00000000  00000000  000050b1  2**0
                  CONTENTS, READONLY
 10 .debug_info   00017300  00000000  00000000  000050ea  2**0
                  CONTENTS, READONLY, DEBUGGING, OCTETS
 11 .debug_abbrev 0000355e  00000000  00000000  0001c3ea  2**0
                  CONTENTS, READONLY, DEBUGGING, OCTETS
 12 .debug_loclists 0000c02e  00000000  00000000  0001f948  2**0
                  CONTENTS, READONLY, DEBUGGING, OCTETS
 13 .debug_aranges 00001200  00000000  00000000  0002b978  2**3
                  CONTENTS, READONLY, DEBUGGING, OCTETS
 14 .debug_rnglists 00000d8f  00000000  00000000  0002cb78  2**0
                  CONTENTS, READONLY, DEBUGGING, OCTETS
 15 .debug_line   0001423e  00000000  00000000  0002d907  2**0
                  CONTENTS, READONLY, DEBUGGING, OCTETS
 16 .debug_str    00004e5d  00000000  00000000  00041b45  2**0
                  CONTENTS, READONLY, DEBUGGING, OCTETS
 17 .debug_frame  00002fec  00000000  00000000  000469a4  2**2
                  CONTENTS, READONLY, DEBUGGING, OCTETS
 18 .debug_line_str 0000016d  00000000  00000000  00049990  2**0
                  CONTENTS, READONLY, DEBUGGING, OCTETS

Disassembly of section .text:

0800010c <__aeabi_fmul>:
 800010c:	f04f 0cff 	mov.w	ip, #255	@ 0xff
 8000110:	ea1c 52d0 	ands.w	r2, ip, r0, lsr #23
 8000114:	bf1e      	ittt	ne
 8000116:	ea1c 53d1 	andsne.w	r3, ip, r1, lsr #23
 800011a:	ea92 0f0c 	teqne	r2, ip
 800011e:	ea93 0f0c 	teqne	r3, ip
 8000122:	d06f      	beq.n	8000204 <__aeabi_fmul+0xf8>
 8000124:	441a      	add	r2, r3
 8000126:	ea80 0c01 	eor.w	ip, r0, r1
 800012a:	0240      	lsls	r0, r0, #9
 800012c:	bf18      	it	ne
 800012e:	ea5f 2141 	movsne.w	r1, r1, lsl #9
 8000132:	d01e      	beq.n	8000172 <__aeabi_fmul+0x66>
 8000134:	f04f 6300 	mov.w	r3, #134217728	@ 0x8000000
 8000138:	ea43 1050 	orr.w	r0, r3, r0, lsr #5
 800013c:	ea43 1151 	orr.w	r1, r3, r1, lsr #5
 8000140:	fba0 3101 	umull	r3, r1, r0, r1
 8000144:	f00c 4000 	and.w	r0, ip, #2147483648	@ 0x80000000
 8000148:	f5b1 0f00 	cmp.w	r1, #8388608	@ 0x800000
 800014c:	bf3e      	ittt	cc
 800014e:	0049      	lslcc	r1, r1, #1
 8000150:	ea41 71d3 	orrcc.w	r1, r1, r3, lsr #31
 8000154:	005b      	lslcc	r3, r3, #1
 8000156:	ea40 0001 	orr.w	r0, r0, r1
 800015a:	f162 027f 	sbc.w	r2, r2, #127	@ 0x7f
 800015e:	2afd      	cmp	r2, #253	@ 0xfd
 8000160:	d81d      	bhi.n	800019e <__aeabi_fmul+0x92>
 8000162:	f1b3 4f00 	cmp.w	r3, #2147483648	@ 0x80000000
 8000166:	eb40 50c2 	adc.w	r0, r0, r2, lsl #23
 800016a:	bf08      	it	eq
 800016c:	f020 0001 	biceq.w	r0, r0, #1
 8000170:	4770      	bx	lr
 8000172:	f090 0f00 	teq	r0, #0
 8000176:	f00c 4c00 	and.w	ip, ip, #2147483648	@ 0x80000000
 800017a:	bf08      	it	eq
 800017c:	0249      	lsleq	r1, r1, #9
 800017e:	ea4c 2050 	orr.w	r0, ip, r0, lsr #9
 8000182:	ea40 2051 	orr.w	r0, r0, r1, lsr #9
 8000186:	3a7f      	subs	r2, #127	@ 0x7f
 8000188:	bfc2      	ittt	gt
 800018a:	f1d2 03ff 	rsbsgt	r3, r2, #255	@ 0xff
 800018e:	ea40 50c2 	orrgt.w	r0, r0, r2, lsl #23
 8000192:	4770      	bxgt	lr
 8000194:	f440 0000 	orr.w	r0, r0, #8388608	@ 0x800000
 8000198:	f04f 0300 	mov.w	r3, #0
 800019c:	3a01      	subs	r2, #1
 800019e:	dc5d      	bgt.n	800025c <__aeabi_fmul+0x150>
 80001a0:	f112 0f19 	cmn.w	r2, #25
 80001a4:	bfdc      	itt	le
 80001a6:	f000 4000 	andle.w	r0, r0, #2147483648	@ 0x80000000
 80001aa:	4770      	bxle	lr
 80001ac:	f1c2 0200 	rsb	r2, r2, #0
 80001b0:	0041      	lsls	r1, r0, #1
 80001b2:	fa21 f102 	lsr.w	r1, r1, r2
 80001b6:	f1c2 0220 	rsb	r2, r2, #32
 80001ba:	fa00 fc02 	lsl.w	ip, r0, r2
 80001be:	ea5f 0031 	movs.w	r0, r1, rrx
 80001c2:	f140 0000 	adc.w	r0, r0, #0
 80001c6:	ea53 034c 	orrs.w	r3, r3, ip, lsl #1
 80001ca:	bf08      	it	eq
 80001cc:	ea20 70dc 	biceq.w	r0, r0, ip, lsr #31
 80001d0:	4770      	bx	lr
 80001d2:	f092 0f00 	teq	r2, #0
 80001d6:	f000 4c00 	and.w	ip, r0, #2147483648	@ 0x80000000
 80001da:	bf02      	ittt	eq
 80001dc:	0040      	lsleq	r0, r0, #1
 80001de:	f410 0f00 	tsteq.w	r0, #8388608	@ 0x800000
 80001e2:	3a01      	subeq	r2, #1
 80001e4:	d0f9      	beq.n	80001da <__aeabi_fmul+0xce>
 80001e6:	ea40 000c 	orr.w	r0, r0, ip
 80001ea:	f093 0f00 	teq	r3, #0
 80001ee:	f001 4c00 	and.w	ip, r1, #2147483648	@ 0x80000000
 80001f2:	bf02      	ittt	eq
 80001f4:	0049      	lsleq	r1, r1, #1
 80001f6:	f411 0f00 	tsteq.w	r1, #8388608	@ 0x800000
 80001fa:	3b01      	subeq	r3, #1
 80001fc:	d0f9      	beq.n	80001f2 <__aeabi_fmul+0xe6>
 80001fe:	ea41 010c 	orr.w	r1, r1, ip
 8000202:	e78f      	b.n	8000124 <__aeabi_fmul+0x18>
 8000204:	ea0c 53d1 	and.w	r3, ip, r1, lsr #23
 8000208:	ea92 0f0c 	teq	r2, ip
 800020c:	bf18      	it	ne
 800020e:	ea93 0f0c 	teqne	r3, ip
 8000212:	d00a      	beq.n	800022a <__aeabi_fmul+0x11e>
 8000214:	f030 4c00 	bics.w	ip, r0, #2147483648	@ 0x80000000
 8000218:	bf18      	it	ne
 800021a:	f031 4c00 	bicsne.w	ip, r1, #2147483648	@ 0x80000000
 800021e:	d1d8      	bne.n	80001d2 <__aeabi_fmul+0xc6>
 8000220:	ea80 0001 	eor.w	r0, r0, r1
 8000224:	f000 4000 	and.w	r0, r0, #2147483648	@ 0x80000000
 8000228:	4770      	bx	lr
 800022a:	f090 0f00 	teq	r0, #0
 800022e:	bf17      	itett	ne
 8000230:	f090 4f00 	teqne	r0, #2147483648	@ 0x80000000
 8000234:	4608      	moveq	r0, r1
 8000236:	f091 0f00 	teqne	r1, #0
 800023a:	f091 4f00 	teqne	r1, #2147483648	@ 0x80000000
 800023e:	d014      	beq.n	800026a <__aeabi_fmul+0x15e>
 8000240:	ea92 0f0c 	teq	r2, ip
 8000244:	d101      	bne.n	800024a <__aeabi_fmul+0x13e>
 8000246:	0242      	lsls	r2, r0, #9
 8000248:	d10f      	bne.n	800026a <__aeabi_fmul+0x15e>
 800024a:	ea93 0f0c 	teq	r3, ip
 800024e:	d103      	bne.n	8000258 <__aeabi_fmul+0x14c>
 8000250:	024b      	lsls	r3, r1, #9
 8000252:	bf18      	it	ne
 8000254:	4608      	movne	r0, r1
 8000256:	d108      	bne.n	800026a <__aeabi_fmul+0x15e>
 8000258:	ea80 0001 	eor.w	r0, r0, r1
 800025c:	f000 4000 	and.w	r0, r0, #2147483648	@ 0x80000000
 8000260:	f040 40fe 	orr.w	r0, r0, #2130706432	@ 0x7f000000
 8000264:	f440 0000 	orr.w	r0, r0, #8388608	@ 0x800000
 8000268:	4770      	bx	lr
 800026a:	f040 40fe 	orr.w	r0, r0, #2130706432	@ 0x7f000000
 800026e:	f440 0040 	orr.w	r0, r0, #12582912	@ 0xc00000
 8000272:	4770      	bx	lr

08000274 <__aeabi_frsub>:
 8000274:	f080 4000 	eor.w	r0, r0, #2147483648	@ 0x80000000
 8000278:	e002      	b.n	8000280 <__addsf3>
 800027a:	bf00      	nop

0800027c <__aeabi_fsub>:
 800027c:	f081 4100 	eor.w	r1, r1, #2147483648	@ 0x80000000

08000280 <__addsf3>:
 8000280:	0042      	lsls	r2, r0, #1
 8000282:	bf1f      	itttt	ne
 8000284:	ea5f 0341 	movsne.w	r3, r1, lsl #1
 8000288:	ea92 0f03 	teqne	r2, r3
 800028c:	ea7f 6c22 	mvnsne.w	ip, r2, asr #24
 8000290:	ea7f 6c23 	mvnsne.w	ip, r3, asr #24
 8000294:	d06a      	beq.n	800036c <__addsf3+0xec>
 8000296:	ea4f 6212 	mov.w	r2, r2, lsr #24
 800029a:	ebd2 6313 	rsbs	r3, r2, r3, lsr #24
 800029e:	bfc1      	itttt	gt
 80002a0:	18d2      	addgt	r2, r2, r3
 80002a2:	4041      	eorgt	r1, r0
 80002a4:	4048      	eorgt	r0, r1
 80002a6:	4041      	eorgt	r1, r0
 80002a8:	bfb8      	it	lt
 80002aa:	425b      	neglt	r3, r3
 80002ac:	2b19      	cmp	r3, #25
 80002ae:	bf88      	it	hi
 80002b0:	4770      	bxhi	lr
 80002b2:	f010 4f00 	tst.w	r0, #2147483648	@ 0x80000000
 80002b6:	f440 0000 	orr.w	r0, r0, #8388608	@ 0x800000
 80002ba:	f020 407f 	bic.w	r0, r0, #4278190080	@ 0xff000000
 80002be:	bf18      	it	ne
 80002c0:	4240      	negne	r0, r0
 80002c2:	f011 4f00 	tst.w	r1, #2147483648	@ 0x80000000
 80002c6:	f441 0100 	orr.w	r1, r1, #8388608	@ 0x800000
 80002ca:	f021 417f 	bic.w	r1, r1, #4278190080	@ 0xff000000
 80002ce:	bf18      	it	ne
 80002d0:	4249      	negne	r1, r1
 80002d2:	ea92 0f03 	teq	r2, r3
 80002d6:	d03f      	beq.n	8000358 <__addsf3+0xd8>
 80002d8:	f1a2 0201 	sub.w	r2, r2, #1
 80002dc:	fa41 fc03 	asr.w	ip, r1, r3
 80002e0:	eb10 000c 	adds.w	r0, r0, ip
 80002e4:	f1c3 0320 	rsb	r3, r3, #32
 80002e8:	fa01 f103 	lsl.w	r1, r1, r3
 80002ec:	f000 4300 	and.w	r3, r0, #2147483648	@ 0x80000000
 80002f0:	d502      	bpl.n	80002f8 <__addsf3+0x78>
 80002f2:	4249      	negs	r1, r1
 80002f4:	eb60 0040 	sbc.w	r0, r0, r0, lsl #1
 80002f8:	f5b0 0f00 	cmp.w	r0, #8388608	@ 0x800000
 80002fc:	d313      	bcc.n	8000326 <__addsf3+0xa6>
 80002fe:	f1b0 7f80 	cmp.w	r0, #16777216	@ 0x1000000
 8000302:	d306      	bcc.n	8000312 <__addsf3+0x92>
 8000304:	0840      	lsrs	r0, r0, #1
 8000306:	ea4f 0131 	mov.w	r1, r1, rrx
 800030a:	f102 0201 	add.w	r2, r2, #1
 800030e:	2afe      	cmp	r2, #254	@ 0xfe
 8000310:	d251      	bcs.n	80003b6 <__addsf3+0x136>
 8000312:	f1b1 4f00 	cmp.w	r1, #2147483648	@ 0x80000000
 8000316:	eb40 50c2 	adc.w	r0, r0, r2, lsl #23
 800031a:	bf08      	it	eq
 800031c:	f020 0001 	biceq.w	r0, r0, #1
 8000320:	ea40 0003 	orr.w	r0, r0, r3
 8000324:	4770      	bx	lr
 8000326:	0049      	lsls	r1, r1, #1
 8000328:	eb40 0000 	adc.w	r0, r0, r0
 800032c:	3a01      	subs	r2, #1
 800032e:	bf28      	it	cs
 8000330:	f5b0 0f00 	cmpcs.w	r0, #8388608	@ 0x800000
 8000334:	d2ed      	bcs.n	8000312 <__addsf3+0x92>
 8000336:	fab0 fc80 	clz	ip, r0
 800033a:	f1ac 0c08 	sub.w	ip, ip, #8
 800033e:	ebb2 020c 	subs.w	r2, r2, ip
 8000342:	fa00 f00c 	lsl.w	r0, r0, ip
 8000346:	bfaa      	itet	ge
 8000348:	eb00 50c2 	addge.w	r0, r0, r2, lsl #23
 800034c:	4252      	neglt	r2, r2
 800034e:	4318      	orrge	r0, r3
 8000350:	bfbc      	itt	lt
 8000352:	40d0      	lsrlt	r0, r2
 8000354:	4318      	orrlt	r0, r3
 8000356:	4770      	bx	lr
 8000358:	f092 0f00 	teq	r2, #0
 800035c:	f481 0100 	eor.w	r1, r1, #8388608	@ 0x800000
 8000360:	bf06      	itte	eq
 8000362:	f480 0000 	eoreq.w	r0, r0, #8388608	@ 0x800000
 8000366:	3201      	addeq	r2, #1
 8000368:	3b01      	subne	r3, #1
 800036a:	e7b5      	b.n	80002d8 <__addsf3+0x58>
 800036c:	ea4f 0341 	mov.w	r3, r1, lsl #1
 8000370:	ea7f 6c22 	mvns.w	ip, r2, asr #24
 8000374:	bf18      	it	ne
 8000376:	ea7f 6c23 	mvnsne.w	ip, r3, asr #24
 800037a:	d021      	beq.n	80003c0 <__addsf3+0x140>
 800037c:	ea92 0f03 	teq	r2, r3
 8000380:	d004      	beq.n	800038c <__addsf3+0x10c>
 8000382:	f092 0f00 	teq	r2, #0
 8000386:	bf08      	it	eq
 8000388:	4608      	moveq	r0, r1
 800038a:	4770      	bx	lr
 800038c:	ea90 0f01 	teq	r0, r1
 8000390:	bf1c      	itt	ne
 8000392:	2000      	movne	r0, #0
 8000394:	4770      	bxne	lr
 8000396:	f012 4f7f 	tst.w	r2, #4278190080	@ 0xff000000
 800039a:	d104      	bne.n	80003a6 <__addsf3+0x126>
 800039c:	0040      	lsls	r0, r0, #1
 800039e:	bf28      	it	cs
 80003a0:	f040 4000 	orrcs.w	r0, r0, #2147483648	@ 0x80000000
 80003a4:	4770      	bx	lr
 80003a6:	f112 7200 	adds.w	r2, r2, #33554432	@ 0x2000000
 80003aa:	bf3c      	itt	cc
 80003ac:	f500 0000 	addcc.w	r0, r0, #8388608	@ 0x800000
 80003b0:	4770      	bxcc	lr
 80003b2:	f000 4300 	and.w	r3, r0, #2147483648	@ 0x80000000
 80003b6:	f043 40fe 	orr.w	r0, r3, #2130706432	@ 0x7f000000
 80003ba:	f440 0000 	orr.w	r0, r0, #8388608	@ 0x800000
 80003be:	4770      	bx	lr
 80003c0:	ea7f 6222 	mvns.w	r2, r2, asr #24
 80003c4:	bf16      	itet	ne
 80003c6:	4608      	movne	r0, r1
 80003c8:	ea7f 6323 	mvnseq.w	r3, r3, asr #24
 80003cc:	4601      	movne	r1, r0
 80003ce:	0242      	lsls	r2, r0, #9
 80003d0:	bf06      	itte	eq
 80003d2:	ea5f 2341 	movseq.w	r3, r1, lsl #9
 80003d6:	ea90 0f01 	teqeq	r0, r1
 80003da:	f440 0080 	orrne.w	r0, r0, #4194304	@ 0x400000
 80003de:	4770      	bx	lr

080003e0 <__aeabi_ui2f>:
 80003e0:	f04f 0300 	mov.w	r3, #0
 80003e4:	e004      	b.n	80003f0 <__aeabi_i2f+0x8>
 80003e6:	bf00      	nop

080003e8 <__aeabi_i2f>:
 80003e8:	f010 4300 	ands.w	r3, r0, #2147483648	@ 0x80000000
 80003ec:	bf48      	it	mi
 80003ee:	4240      	negmi	r0, r0
 80003f0:	ea5f 0c00 	movs.w	ip, r0
 80003f4:	bf08      	it	eq
 80003f6:	4770      	bxeq	lr
 80003f8:	f043 4396 	orr.w	r3, r3, #1258291200	@ 0x4b000000
 80003fc:	4601      	mov	r1, r0
 80003fe:	f04f 0000 	mov.w	r0, #0
 8000402:	e01c      	b.n	800043e <__aeabi_l2f+0x2a>

08000404 <__aeabi_ul2f>:
 8000404:	ea50 0201 	orrs.w	r2, r0, r1
 8000408:	bf08      	it	eq
 800040a:	4770      	bxeq	lr
 800040c:	f04f 0300 	mov.w	r3, #0
 8000410:	e00a      	b.n	8000428 <__aeabi_l2f+0x14>
 8000412:	bf00      	nop

08000414 <__aeabi_l2f>:
 8000414:	ea50 0201 	orrs.w	r2, r0, r1
 8000418:	bf08      	it	eq
 800041a:	4770      	bxeq	lr
 800041c:	f011 4300 	ands.w	r3, r1, #2147483648	@ 0x80000000
 8000420:	d502      	bpl.n	8000428 <__aeabi_l2f+0x14>
 8000422:	4240      	negs	r0, r0
 8000424:	eb61 0141 	sbc.w	r1, r1, r1, lsl #1
 8000428:	ea5f 0c01 	movs.w	ip, r1
 800042c:	bf02      	ittt	eq
 800042e:	4684      	moveq	ip, r0
 8000430:	4601      	moveq	r1, r0
 8000432:	2000      	moveq	r0, #0
 8000434:	f043 43b6 	orr.w	r3, r3, #1526726656	@ 0x5b000000
 8000438:	bf08      	it	eq
 800043a:	f1a3 5380 	subeq.w	r3, r3, #268435456	@ 0x10000000
 800043e:	f5a3 0300 	sub.w	r3, r3, #8388608	@ 0x800000
 8000442:	fabc f28c 	clz	r2, ip
 8000446:	3a08      	subs	r2, #8
 8000448:	eba3 53c2 	sub.w	r3, r3, r2, lsl #23
 800044c:	db10      	blt.n	8000470 <__aeabi_l2f+0x5c>
 800044e:	fa01 fc02 	lsl.w	ip, r1, r2
 8000452:	4463      	add	r3, ip
 8000454:	fa00 fc02 	lsl.w	ip, r0, r2
 8000458:	f1c2 0220 	rsb	r2, r2, #32
 800045c:	f1bc 4f00 	cmp.w	ip, #2147483648	@ 0x80000000
 8000460:	fa20 f202 	lsr.w	r2, r0, r2
 8000464:	eb43 0002 	adc.w	r0, r3, r2
 8000468:	bf08      	it	eq
 800046a:	f020 0001 	biceq.w	r0, r0, #1
 800046e:	4770      	bx	lr
 8000470:	f102 0220 	add.w	r2, r2, #32
 8000474:	fa01 fc02 	lsl.w	ip, r1, r2
 8000478:	f1c2 0220 	rsb	r2, r2, #32
 800047c:	ea50 004c 	orrs.w	r0, r0, ip, lsl #1
 8000480:	fa21 f202 	lsr.w	r2, r1, r2
 8000484:	eb43 0002 	adc.w	r0, r3, r2
 8000488:	bf08      	it	eq
 800048a:	ea20 70dc 	biceq.w	r0, r0, ip, lsr #31
 800048e:	4770      	bx	lr

08000490 <__do_global_dtors_aux>:
 8000490:	b510      	push	{r4, lr}
 8000492:	4c05      	ldr	r4, [pc, #20]	@ (80004a8 <__do_global_dtors_aux+0x18>)
 8000494:	7823      	ldrb	r3, [r4, #0]
 8000496:	b933      	cbnz	r3, 80004a6 <__do_global_dtors_aux+0x16>
 8000498:	4b04      	ldr	r3, [pc, #16]	@ (80004ac <__do_global_dtors_aux+0x1c>)
 800049a:	b113      	cbz	r3, 80004a2 <__do_global_dtors_aux+0x12>
 800049c:	4804      	ldr	r0, [pc, #16]	@ (80004b0 <__do_global_dtors_aux+0x20>)
 800049e:	f3af 8000 	nop.w
 80004a2:	2301      	movs	r3, #1
 80004a4:	7023      	strb	r3, [r4, #0]
 80004a6:	bd10      	pop	{r4, pc}
 80004a8:	20000088 	.word	0x20000088
 80004ac:	00000000 	.word	0x00000000
 80004b0:	08003940 	.word	0x08003940

080004b4 <frame_dummy>:
 80004b4:	b508      	push	{r3, lr}
 80004b6:	4b03      	ldr	r3, [pc, #12]	@ (80004c4 <frame_dummy+0x10>)
 80004b8:	b11b      	cbz	r3, 80004c2 <frame_dummy+0xe>
 80004ba:	4903      	ldr	r1, [pc, #12]	@ (80004c8 <frame_dummy+0x14>)
 80004bc:	4803      	ldr	r0, [pc, #12]	@ (80004cc <frame_dummy+0x18>)
 80004be:	f3af 8000 	nop.w
 80004c2:	bd08      	pop	{r3, pc}
 80004c4:	00000000 	.word	0x00000000
 80004c8:	2000008c 	.word	0x2000008c
 80004cc:	08003940 	.word	0x08003940

080004d0 <MX_ADC1_Init>:
ADC_HandleTypeDef hadc1;
DMA_HandleTypeDef hdma_adc1;

/* ADC1 init function */
void MX_ADC1_Init(void)
{
 80004d0:	b500      	push	{lr}
 80004d2:	b085      	sub	sp, #20

  /* USER CODE BEGIN ADC1_Init 0 */

  /* USER CODE END ADC1_Init 0 */

  ADC_ChannelConfTypeDef sConfig = {0};
 80004d4:	2300      	movs	r3, #0
 80004d6:	9301      	str	r3, [sp, #4]
 80004d8:	9302      	str	r3, [sp, #8]
 80004da:	9303      	str	r3, [sp, #12]

  /* USER CODE END ADC1_Init 1 */

  /** Common config
  */
  hadc1.Instance = ADC1;
 80004dc:	4817      	ldr	r0, [pc, #92]	@ (800053c <MX_ADC1_Init+0x6c>)
 80004de:	4a18      	ldr	r2, [pc, #96]	@ (8000540 <MX_ADC1_Init+0x70>)
 80004e0:	6002      	str	r2, [r0, #0]
  hadc1.Init.ScanConvMode = ADC_SCAN_ENABLE;
 80004e2:	f44f 7280 	mov.w	r2, #256	@ 0x100
 80004e6:	6082      	str	r2, [r0, #8]
  hadc1.Init.ContinuousConvMode = DISABLE;
 80004e8:	7303      	strb	r3, [r0, #12]
  hadc1.Init.DiscontinuousConvMode = DISABLE;
 80004ea:	7503      	strb	r3, [r0, #20]
  hadc1.Init.ExternalTrigConv = ADC_EXTERNALTRIGCONV_T3_TRGO;
 80004ec:	f44f 2200 	mov.w	r2, #524288	@ 0x80000
 80004f0:	61c2      	str	r2, [r0, #28]
  hadc1.Init.DataAlign = ADC_DATAALIGN_RIGHT;
 80004f2:	6043      	str	r3, [r0, #4]
  hadc1.Init.NbrOfConversion = 2;
 80004f4:	2302      	movs	r3, #2
 80004f6:	6103      	str	r3, [r0, #16]
  if (HAL_ADC_Init(&hadc1) != HAL_OK)
 80004f8:	f001 f944 	bl	8001784 <HAL_ADC_Init>
 80004fc:	b9a0      	cbnz	r0, 8000528 <MX_ADC1_Init+0x58>
    Error_Handler();
  }

  /** Configure Regular Channel
  */
  sConfig.Channel = ADC_CHANNEL_3;
 80004fe:	2303      	movs	r3, #3
 8000500:	9301      	str	r3, [sp, #4]
  sConfig.Rank = ADC_REGULAR_RANK_1;
 8000502:	2201      	movs	r2, #1
 8000504:	9202      	str	r2, [sp, #8]
  sConfig.SamplingTime = ADC_SAMPLETIME_28CYCLES_5;
 8000506:	9303      	str	r3, [sp, #12]
  if (HAL_ADC_ConfigChannel(&hadc1, &sConfig) != HAL_OK)
 8000508:	a901      	add	r1, sp, #4
 800050a:	480c      	ldr	r0, [pc, #48]	@ (800053c <MX_ADC1_Init+0x6c>)
 800050c:	f000 ff92 	bl	8001434 <HAL_ADC_ConfigChannel>
 8000510:	b968      	cbnz	r0, 800052e <MX_ADC1_Init+0x5e>
    Error_Handler();
  }

  /** Configure Regular Channel
  */
  sConfig.Channel = ADC_CHANNEL_2;
 8000512:	2302      	movs	r3, #2
 8000514:	9301      	str	r3, [sp, #4]
  sConfig.Rank = ADC_REGULAR_RANK_2;
 8000516:	9302      	str	r3, [sp, #8]
  if (HAL_ADC_ConfigChannel(&hadc1, &sConfig) != HAL_OK)
 8000518:	a901      	add	r1, sp, #4
 800051a:	4808      	ldr	r0, [pc, #32]	@ (800053c <MX_ADC1_Init+0x6c>)
 800051c:	f000 ff8a 	bl	8001434 <HAL_ADC_ConfigChannel>
 8000520:	b940      	cbnz	r0, 8000534 <MX_ADC1_Init+0x64>
  }
  /* USER CODE BEGIN ADC1_Init 2 */

  /* USER CODE END ADC1_Init 2 */

}
 8000522:	b005      	add	sp, #20
 8000524:	f85d fb04 	ldr.w	pc, [sp], #4
    Error_Handler();
 8000528:	f000 fa12 	bl	8000950 <Error_Handler>
 800052c:	e7e7      	b.n	80004fe <MX_ADC1_Init+0x2e>
    Error_Handler();
 800052e:	f000 fa0f 	bl	8000950 <Error_Handler>
 8000532:	e7ee      	b.n	8000512 <MX_ADC1_Init+0x42>
    Error_Handler();
 8000534:	f000 fa0c 	bl	8000950 <Error_Handler>
}
 8000538:	e7f3      	b.n	8000522 <MX_ADC1_Init+0x52>
 800053a:	bf00      	nop
 800053c:	200000e8 	.word	0x200000e8
 8000540:	40012400 	.word	0x40012400

08000544 <HAL_ADC_MspInit>:

void HAL_ADC_MspInit(ADC_HandleTypeDef* adcHandle)
{
 8000544:	b510      	push	{r4, lr}
 8000546:	b086      	sub	sp, #24

  GPIO_InitTypeDef GPIO_InitStruct = {0};
 8000548:	2300      	movs	r3, #0
 800054a:	9302      	str	r3, [sp, #8]
 800054c:	9303      	str	r3, [sp, #12]
 800054e:	9304      	str	r3, [sp, #16]
 8000550:	9305      	str	r3, [sp, #20]
  if(adcHandle->Instance==ADC1)
 8000552:	6802      	ldr	r2, [r0, #0]
 8000554:	4b1f      	ldr	r3, [pc, #124]	@ (80005d4 <HAL_ADC_MspInit+0x90>)
 8000556:	429a      	cmp	r2, r3
 8000558:	d001      	beq.n	800055e <HAL_ADC_MspInit+0x1a>

  /* USER CODE BEGIN ADC1_MspInit 1 */

  /* USER CODE END ADC1_MspInit 1 */
  }
}
 800055a:	b006      	add	sp, #24
 800055c:	bd10      	pop	{r4, pc}
 800055e:	4604      	mov	r4, r0
    __HAL_RCC_ADC1_CLK_ENABLE();
 8000560:	f503 436c 	add.w	r3, r3, #60416	@ 0xec00
 8000564:	699a      	ldr	r2, [r3, #24]
 8000566:	f442 7200 	orr.w	r2, r2, #512	@ 0x200
 800056a:	619a      	str	r2, [r3, #24]
 800056c:	699a      	ldr	r2, [r3, #24]
 800056e:	f402 7200 	and.w	r2, r2, #512	@ 0x200
 8000572:	9200      	str	r2, [sp, #0]
 8000574:	9a00      	ldr	r2, [sp, #0]
    __HAL_RCC_GPIOA_CLK_ENABLE();
 8000576:	699a      	ldr	r2, [r3, #24]
 8000578:	f042 0204 	orr.w	r2, r2, #4
 800057c:	619a      	str	r2, [r3, #24]
 800057e:	699b      	ldr	r3, [r3, #24]
 8000580:	f003 0304 	and.w	r3, r3, #4
 8000584:	9301      	str	r3, [sp, #4]
 8000586:	9b01      	ldr	r3, [sp, #4]
    GPIO_InitStruct.Pin = CS2_Pin|CS1_Pin;
 8000588:	230c      	movs	r3, #12
 800058a:	9302      	str	r3, [sp, #8]
    GPIO_InitStruct.Mode = GPIO_MODE_ANALOG;
 800058c:	2303      	movs	r3, #3
 800058e:	9303      	str	r3, [sp, #12]
    HAL_GPIO_Init(GPIOA, &GPIO_InitStruct);
 8000590:	a902      	add	r1, sp, #8
 8000592:	4811      	ldr	r0, [pc, #68]	@ (80005d8 <HAL_ADC_MspInit+0x94>)
 8000594:	f001 fb1a 	bl	8001bcc <HAL_GPIO_Init>
    hdma_adc1.Instance = DMA1_Channel1;
 8000598:	4810      	ldr	r0, [pc, #64]	@ (80005dc <HAL_ADC_MspInit+0x98>)
 800059a:	4b11      	ldr	r3, [pc, #68]	@ (80005e0 <HAL_ADC_MspInit+0x9c>)
 800059c:	6003      	str	r3, [r0, #0]
    hdma_adc1.Init.Direction = DMA_PERIPH_TO_MEMORY;
 800059e:	2300      	movs	r3, #0
 80005a0:	6043      	str	r3, [r0, #4]
    hdma_adc1.Init.PeriphInc = DMA_PINC_DISABLE;
 80005a2:	6083      	str	r3, [r0, #8]
    hdma_adc1.Init.MemInc = DMA_MINC_ENABLE;
 80005a4:	2380      	movs	r3, #128	@ 0x80
 80005a6:	60c3      	str	r3, [r0, #12]
    hdma_adc1.Init.PeriphDataAlignment = DMA_PDATAALIGN_HALFWORD;
 80005a8:	f44f 7380 	mov.w	r3, #256	@ 0x100
 80005ac:	6103      	str	r3, [r0, #16]
    hdma_adc1.Init.MemDataAlignment = DMA_MDATAALIGN_HALFWORD;
 80005ae:	f44f 6380 	mov.w	r3, #1024	@ 0x400
 80005b2:	6143      	str	r3, [r0, #20]
    hdma_adc1.Init.Mode = DMA_CIRCULAR;
 80005b4:	2320      	movs	r3, #32
 80005b6:	6183      	str	r3, [r0, #24]
    hdma_adc1.Init.Priority = DMA_PRIORITY_MEDIUM;
 80005b8:	f44f 5380 	mov.w	r3, #4096	@ 0x1000
 80005bc:	61c3      	str	r3, [r0, #28]
    if (HAL_DMA_Init(&hdma_adc1) != HAL_OK)
 80005be:	f001 f9f3 	bl	80019a8 <HAL_DMA_Init>
 80005c2:	b918      	cbnz	r0, 80005cc <HAL_ADC_MspInit+0x88>
    __HAL_LINKDMA(adcHandle,DMA_Handle,hdma_adc1);
 80005c4:	4b05      	ldr	r3, [pc, #20]	@ (80005dc <HAL_ADC_MspInit+0x98>)
 80005c6:	6223      	str	r3, [r4, #32]
 80005c8:	625c      	str	r4, [r3, #36]	@ 0x24
}
 80005ca:	e7c6      	b.n	800055a <HAL_ADC_MspInit+0x16>
      Error_Handler();
 80005cc:	f000 f9c0 	bl	8000950 <Error_Handler>
 80005d0:	e7f8      	b.n	80005c4 <HAL_ADC_MspInit+0x80>
 80005d2:	bf00      	nop
 80005d4:	40012400 	.word	0x40012400
 80005d8:	40010800 	.word	0x40010800
 80005dc:	200000a4 	.word	0x200000a4
 80005e0:	40020008 	.word	0x40020008

080005e4 <MX_DMA_Init>:

/**
  * Enable DMA controller clock
  */
void MX_DMA_Init(void)
{
 80005e4:	b500      	push	{lr}
 80005e6:	b083      	sub	sp, #12

  /* DMA controller clock enable */
  __HAL_RCC_DMA1_CLK_ENABLE();
 80005e8:	4b1a      	ldr	r3, [pc, #104]	@ (8000654 <MX_DMA_Init+0x70>)
 80005ea:	695a      	ldr	r2, [r3, #20]
 80005ec:	f042 0201 	orr.w	r2, r2, #1
 80005f0:	615a      	str	r2, [r3, #20]
 80005f2:	695b      	ldr	r3, [r3, #20]
 80005f4:	f003 0301 	and.w	r3, r3, #1
 80005f8:	9301      	str	r3, [sp, #4]
 80005fa:	9b01      	ldr	r3, [sp, #4]

  /* DMA interrupt init */
  /* DMA1_Channel1_IRQn interrupt configuration */
  HAL_NVIC_SetPriority(DMA1_Channel1_IRQn, 0, 0);
 80005fc:	2200      	movs	r2, #0
 80005fe:	4611      	mov	r1, r2
 8000600:	200b      	movs	r0, #11
 8000602:	f001 f989 	bl	8001918 <HAL_NVIC_SetPriority>
  HAL_NVIC_EnableIRQ(DMA1_Channel1_IRQn);
 8000606:	200b      	movs	r0, #11
 8000608:	f001 f996 	bl	8001938 <HAL_NVIC_EnableIRQ>
  /* DMA1_Channel2_IRQn interrupt configuration */
  HAL_NVIC_SetPriority(DMA1_Channel2_IRQn, 0, 0);
 800060c:	2200      	movs	r2, #0
 800060e:	4611      	mov	r1, r2
 8000610:	200c      	movs	r0, #12
 8000612:	f001 f981 	bl	8001918 <HAL_NVIC_SetPriority>
  HAL_NVIC_EnableIRQ(DMA1_Channel2_IRQn);
 8000616:	200c      	movs	r0, #12
 8000618:	f001 f98e 	bl	8001938 <HAL_NVIC_EnableIRQ>
  /* DMA1_Channel3_IRQn interrupt configuration */
  HAL_NVIC_SetPriority(DMA1_Channel3_IRQn, 0, 0);
 800061c:	2200      	movs	r2, #0
 800061e:	4611      	mov	r1, r2
 8000620:	200d      	movs	r0, #13
 8000622:	f001 f979 	bl	8001918 <HAL_NVIC_SetPriority>
  HAL_NVIC_EnableIRQ(DMA1_Channel3_IRQn);
 8000626:	200d      	movs	r0, #13
 8000628:	f001 f986 	bl	8001938 <HAL_NVIC_EnableIRQ>
  /* DMA1_Channel4_IRQn interrupt configuration */
  HAL_NVIC_SetPriority(DMA1_Channel4_IRQn, 0, 0);
 800062c:	2200      	movs	r2, #0
 800062e:	4611      	mov	r1, r2
 8000630:	200e      	movs	r0, #14
 8000632:	f001 f971 	bl	8001918 <HAL_NVIC_SetPriority>
  HAL_NVIC_EnableIRQ(DMA1_Channel4_IRQn);
 8000636:	200e      	movs	r0, #14
 8000638:	f001 f97e 	bl	8001938 <HAL_NVIC_EnableIRQ>
  /* DMA1_Channel5_IRQn interrupt configuration */
  HAL_NVIC_SetPriority(DMA1_Channel5_IRQn, 0, 0);
 800063c:	2200      	movs	r2, #0
 800063e:	4611      	mov	r1, r2
 8000640:	200f      	movs	r0, #15
 8000642:	f001 f969 	bl	8001918 <HAL_NVIC_SetPriority>
  HAL_NVIC_EnableIRQ(DMA1_Channel5_IRQn);
 8000646:	200f      	movs	r0, #15
 8000648:	f001 f976 	bl	8001938 <HAL_NVIC_EnableIRQ>

}
 800064c:	b003      	add	sp, #12
 800064e:	f85d fb04 	ldr.w	pc, [sp], #4
 8000652:	bf00      	nop
 8000654:	40021000 	.word	0x40021000

08000658 <drv8106_read_reg_blocking>:
#include "drv8106.h"

void drv8106_read_reg_blocking(drv8106_spi* spi_inst, uint8_t reg_addr)
{
 8000658:	b510      	push	{r4, lr}
 800065a:	b084      	sub	sp, #16
 800065c:	4604      	mov	r4, r0
    uint16_t tx = (reg_addr | DRV8106_READ_MASK) << 8;
 800065e:	f041 0140 	orr.w	r1, r1, #64	@ 0x40
 8000662:	0209      	lsls	r1, r1, #8
 8000664:	f8ad 100e 	strh.w	r1, [sp, #14]

    HAL_GPIO_WritePin(spi_inst->CS_PORT, spi_inst->CS_PIN, GPIO_PIN_RESET);
 8000668:	2200      	movs	r2, #0
 800066a:	8901      	ldrh	r1, [r0, #8]
 800066c:	6840      	ldr	r0, [r0, #4]
 800066e:	f001 fbc2 	bl	8001df6 <HAL_GPIO_WritePin>
    HAL_SPI_TransmitReceive(spi_inst->spi_handler_ptr, (uint8_t*)&tx, (uint8_t*)&spi_inst->rxbuff, 1, HAL_MAX_DELAY);
 8000672:	4622      	mov	r2, r4
 8000674:	f852 0b0a 	ldr.w	r0, [r2], #10
 8000678:	f04f 33ff 	mov.w	r3, #4294967295
 800067c:	9300      	str	r3, [sp, #0]
 800067e:	2301      	movs	r3, #1
 8000680:	f10d 010e 	add.w	r1, sp, #14
 8000684:	f002 fad5 	bl	8002c32 <HAL_SPI_TransmitReceive>
    HAL_GPIO_WritePin(spi_inst->CS_PORT, spi_inst->CS_PIN, GPIO_PIN_SET);
 8000688:	2201      	movs	r2, #1
 800068a:	8921      	ldrh	r1, [r4, #8]
 800068c:	6860      	ldr	r0, [r4, #4]
 800068e:	f001 fbb2 	bl	8001df6 <HAL_GPIO_WritePin>
    // HAL_Delay(1); // in case it doesnt manage to flip CS
}
 8000692:	b004      	add	sp, #16
 8000694:	bd10      	pop	{r4, pc}

08000696 <drv8106_write_reg_blocking>:

void drv8106_write_reg_blocking(drv8106_spi* spi_inst, uint8_t reg_addr, uint8_t data){
 8000696:	b510      	push	{r4, lr}
 8000698:	b084      	sub	sp, #16
 800069a:	4604      	mov	r4, r0
    uint16_t tx;
    tx = (reg_addr << 8) | data;
 800069c:	ea42 2201 	orr.w	r2, r2, r1, lsl #8
 80006a0:	f8ad 200e 	strh.w	r2, [sp, #14]

    HAL_GPIO_WritePin(spi_inst->CS_PORT, spi_inst->CS_PIN, GPIO_PIN_RESET);
 80006a4:	2200      	movs	r2, #0
 80006a6:	8901      	ldrh	r1, [r0, #8]
 80006a8:	6840      	ldr	r0, [r0, #4]
 80006aa:	f001 fba4 	bl	8001df6 <HAL_GPIO_WritePin>
    HAL_SPI_TransmitReceive(spi_inst->spi_handler_ptr, (uint8_t*)&tx, (uint8_t*)&spi_inst->rxbuff, 1, HAL_MAX_DELAY);
 80006ae:	4622      	mov	r2, r4
 80006b0:	f852 0b0a 	ldr.w	r0, [r2], #10
 80006b4:	f04f 33ff 	mov.w	r3, #4294967295
 80006b8:	9300      	str	r3, [sp, #0]
 80006ba:	2301      	movs	r3, #1
 80006bc:	f10d 010e 	add.w	r1, sp, #14
 80006c0:	f002 fab7 	bl	8002c32 <HAL_SPI_TransmitReceive>
    HAL_GPIO_WritePin(spi_inst->CS_PORT, spi_inst->CS_PIN, GPIO_PIN_SET);
 80006c4:	2201      	movs	r2, #1
 80006c6:	8921      	ldrh	r1, [r4, #8]
 80006c8:	6860      	ldr	r0, [r4, #4]
 80006ca:	f001 fb94 	bl	8001df6 <HAL_GPIO_WritePin>
    // HAL_Delay(1); // in case it doesnt manage to flip CS
}
 80006ce:	b004      	add	sp, #16
 80006d0:	bd10      	pop	{r4, pc}

080006d2 <drv8106_read_all_blocking>:


void drv8106_read_all_blocking(drv8106_spi* spi_inst){
 80006d2:	b510      	push	{r4, lr}
 80006d4:	4604      	mov	r4, r0
    drv8106_read_reg_blocking(spi_inst, DRV8106_IC_STAT_1);
 80006d6:	2100      	movs	r1, #0
 80006d8:	f7ff ffbe 	bl	8000658 <drv8106_read_reg_blocking>
    spi_inst->register_map.IC_STAT_1 = (uint8_t)(spi_inst->rxbuff & 0xFF);
 80006dc:	7aa3      	ldrb	r3, [r4, #10]
 80006de:	73a3      	strb	r3, [r4, #14]

    //TODO:
}
 80006e0:	bd10      	pop	{r4, pc}
	...

080006e4 <MX_GPIO_Init>:
        * Output
        * EVENT_OUT
        * EXTI
*/
void MX_GPIO_Init(void)
{
 80006e4:	e92d 47f0 	stmdb	sp!, {r4, r5, r6, r7, r8, r9, sl, lr}
 80006e8:	b088      	sub	sp, #32

  GPIO_InitTypeDef GPIO_InitStruct = {0};
 80006ea:	2400      	movs	r4, #0
 80006ec:	9404      	str	r4, [sp, #16]
 80006ee:	9405      	str	r4, [sp, #20]
 80006f0:	9406      	str	r4, [sp, #24]
 80006f2:	9407      	str	r4, [sp, #28]

  /* GPIO Ports Clock Enable */
  __HAL_RCC_GPIOC_CLK_ENABLE();
 80006f4:	4b4c      	ldr	r3, [pc, #304]	@ (8000828 <MX_GPIO_Init+0x144>)
 80006f6:	699a      	ldr	r2, [r3, #24]
 80006f8:	f042 0210 	orr.w	r2, r2, #16
 80006fc:	619a      	str	r2, [r3, #24]
 80006fe:	699a      	ldr	r2, [r3, #24]
 8000700:	f002 0210 	and.w	r2, r2, #16
 8000704:	9200      	str	r2, [sp, #0]
 8000706:	9a00      	ldr	r2, [sp, #0]
  __HAL_RCC_GPIOD_CLK_ENABLE();
 8000708:	699a      	ldr	r2, [r3, #24]
 800070a:	f042 0220 	orr.w	r2, r2, #32
 800070e:	619a      	str	r2, [r3, #24]
 8000710:	699a      	ldr	r2, [r3, #24]
 8000712:	f002 0220 	and.w	r2, r2, #32
 8000716:	9201      	str	r2, [sp, #4]
 8000718:	9a01      	ldr	r2, [sp, #4]
  __HAL_RCC_GPIOA_CLK_ENABLE();
 800071a:	699a      	ldr	r2, [r3, #24]
 800071c:	f042 0204 	orr.w	r2, r2, #4
 8000720:	619a      	str	r2, [r3, #24]
 8000722:	699a      	ldr	r2, [r3, #24]
 8000724:	f002 0204 	and.w	r2, r2, #4
 8000728:	9202      	str	r2, [sp, #8]
 800072a:	9a02      	ldr	r2, [sp, #8]
  __HAL_RCC_GPIOB_CLK_ENABLE();
 800072c:	699a      	ldr	r2, [r3, #24]
 800072e:	f042 0208 	orr.w	r2, r2, #8
 8000732:	619a      	str	r2, [r3, #24]
 8000734:	699b      	ldr	r3, [r3, #24]
 8000736:	f003 0308 	and.w	r3, r3, #8
 800073a:	9303      	str	r3, [sp, #12]
 800073c:	9b03      	ldr	r3, [sp, #12]

  /*Configure GPIO pin Output Level */
  HAL_GPIO_WritePin(GPIOC, BRIDGESLEEP1_Pin|DRVOFF2_Pin|SPI1_SS2_Pin|SPI1_SS3_Pin, GPIO_PIN_RESET);
 800073e:	f8df 90ec 	ldr.w	r9, [pc, #236]	@ 800082c <MX_GPIO_Init+0x148>
 8000742:	4622      	mov	r2, r4
 8000744:	213c      	movs	r1, #60	@ 0x3c
 8000746:	4648      	mov	r0, r9
 8000748:	f001 fb55 	bl	8001df6 <HAL_GPIO_WritePin>

  /*Configure GPIO pin Output Level */
  HAL_GPIO_WritePin(GPIOA, DIR2_1_Pin|SPI1_SS1_Pin, GPIO_PIN_RESET);
 800074c:	4e38      	ldr	r6, [pc, #224]	@ (8000830 <MX_GPIO_Init+0x14c>)
 800074e:	4622      	mov	r2, r4
 8000750:	2112      	movs	r1, #18
 8000752:	4630      	mov	r0, r6
 8000754:	f001 fb4f 	bl	8001df6 <HAL_GPIO_WritePin>

  /*Configure GPIO pin Output Level */
  HAL_GPIO_WritePin(GPIOB, SPI1_SS4_Pin|DIR1_1_Pin|HIZ1_Pin|HIZ2_Pin
 8000758:	4f36      	ldr	r7, [pc, #216]	@ (8000834 <MX_GPIO_Init+0x150>)
 800075a:	4622      	mov	r2, r4
 800075c:	f643 0117 	movw	r1, #14359	@ 0x3817
 8000760:	4638      	mov	r0, r7
 8000762:	f001 fb48 	bl	8001df6 <HAL_GPIO_WritePin>
                          |DRVOFF1_Pin|BRIDGESLEEP2_Pin|IND_LED_Pin, GPIO_PIN_RESET);

  /*Configure GPIO pins : nFAULT_L2_Pin nFAULT_R2_Pin ENC1_Z_Pin ENC2_Z_Pin */
  GPIO_InitStruct.Pin = nFAULT_L2_Pin|nFAULT_R2_Pin|ENC1_Z_Pin|ENC2_Z_Pin;
 8000766:	f240 3303 	movw	r3, #771	@ 0x303
 800076a:	9304      	str	r3, [sp, #16]
  GPIO_InitStruct.Mode = GPIO_MODE_INPUT;
 800076c:	9405      	str	r4, [sp, #20]
  GPIO_InitStruct.Pull = GPIO_NOPULL;
 800076e:	9406      	str	r4, [sp, #24]
  HAL_GPIO_Init(GPIOC, &GPIO_InitStruct);
 8000770:	a904      	add	r1, sp, #16
 8000772:	4648      	mov	r0, r9
 8000774:	f001 fa2a 	bl	8001bcc <HAL_GPIO_Init>

  /*Configure GPIO pins : BRIDGESLEEP1_Pin DRVOFF2_Pin */
  GPIO_InitStruct.Pin = BRIDGESLEEP1_Pin|DRVOFF2_Pin;
 8000778:	230c      	movs	r3, #12
 800077a:	9304      	str	r3, [sp, #16]
  GPIO_InitStruct.Mode = GPIO_MODE_OUTPUT_PP;
 800077c:	2501      	movs	r5, #1
 800077e:	9505      	str	r5, [sp, #20]
  GPIO_InitStruct.Pull = GPIO_NOPULL;
 8000780:	9406      	str	r4, [sp, #24]
  GPIO_InitStruct.Speed = GPIO_SPEED_FREQ_LOW;
 8000782:	f04f 0802 	mov.w	r8, #2
 8000786:	f8cd 801c 	str.w	r8, [sp, #28]
  HAL_GPIO_Init(GPIOC, &GPIO_InitStruct);
 800078a:	a904      	add	r1, sp, #16
 800078c:	4648      	mov	r0, r9
 800078e:	f001 fa1d 	bl	8001bcc <HAL_GPIO_Init>

  /*Configure GPIO pin : DIR2_1_Pin */
  GPIO_InitStruct.Pin = DIR2_1_Pin;
 8000792:	f8cd 8010 	str.w	r8, [sp, #16]
  GPIO_InitStruct.Mode = GPIO_MODE_OUTPUT_PP;
 8000796:	9505      	str	r5, [sp, #20]
  GPIO_InitStruct.Pull = GPIO_NOPULL;
 8000798:	9406      	str	r4, [sp, #24]
  GPIO_InitStruct.Speed = GPIO_SPEED_FREQ_LOW;
 800079a:	f8cd 801c 	str.w	r8, [sp, #28]
  HAL_GPIO_Init(DIR2_1_GPIO_Port, &GPIO_InitStruct);
 800079e:	a904      	add	r1, sp, #16
 80007a0:	4630      	mov	r0, r6
 80007a2:	f001 fa13 	bl	8001bcc <HAL_GPIO_Init>

  /*Configure GPIO pin : SPI1_SS1_Pin */
  GPIO_InitStruct.Pin = SPI1_SS1_Pin;
 80007a6:	2310      	movs	r3, #16
 80007a8:	9304      	str	r3, [sp, #16]
  GPIO_InitStruct.Mode = GPIO_MODE_OUTPUT_PP;
 80007aa:	9505      	str	r5, [sp, #20]
  GPIO_InitStruct.Pull = GPIO_NOPULL;
 80007ac:	9406      	str	r4, [sp, #24]
  GPIO_InitStruct.Speed = GPIO_SPEED_FREQ_HIGH;
 80007ae:	f04f 0a03 	mov.w	sl, #3
 80007b2:	f8cd a01c 	str.w	sl, [sp, #28]
  HAL_GPIO_Init(SPI1_SS1_GPIO_Port, &GPIO_InitStruct);
 80007b6:	eb0d 0103 	add.w	r1, sp, r3
 80007ba:	4630      	mov	r0, r6
 80007bc:	f001 fa06 	bl	8001bcc <HAL_GPIO_Init>

  /*Configure GPIO pins : SPI1_SS2_Pin SPI1_SS3_Pin */
  GPIO_InitStruct.Pin = SPI1_SS2_Pin|SPI1_SS3_Pin;
 80007c0:	2330      	movs	r3, #48	@ 0x30
 80007c2:	9304      	str	r3, [sp, #16]
  GPIO_InitStruct.Mode = GPIO_MODE_OUTPUT_PP;
 80007c4:	9505      	str	r5, [sp, #20]
  GPIO_InitStruct.Pull = GPIO_NOPULL;
 80007c6:	9406      	str	r4, [sp, #24]
  GPIO_InitStruct.Speed = GPIO_SPEED_FREQ_HIGH;
 80007c8:	f8cd a01c 	str.w	sl, [sp, #28]
  HAL_GPIO_Init(GPIOC, &GPIO_InitStruct);
 80007cc:	a904      	add	r1, sp, #16
 80007ce:	4648      	mov	r0, r9
 80007d0:	f001 f9fc 	bl	8001bcc <HAL_GPIO_Init>

  /*Configure GPIO pin : SPI1_SS4_Pin */
  GPIO_InitStruct.Pin = SPI1_SS4_Pin;
 80007d4:	9504      	str	r5, [sp, #16]
  GPIO_InitStruct.Mode = GPIO_MODE_OUTPUT_PP;
 80007d6:	9505      	str	r5, [sp, #20]
  GPIO_InitStruct.Pull = GPIO_NOPULL;
 80007d8:	9406      	str	r4, [sp, #24]
  GPIO_InitStruct.Speed = GPIO_SPEED_FREQ_HIGH;
 80007da:	f8cd a01c 	str.w	sl, [sp, #28]
  HAL_GPIO_Init(SPI1_SS4_GPIO_Port, &GPIO_InitStruct);
 80007de:	a904      	add	r1, sp, #16
 80007e0:	4638      	mov	r0, r7
 80007e2:	f001 f9f3 	bl	8001bcc <HAL_GPIO_Init>

  /*Configure GPIO pins : DIR1_1_Pin HIZ1_Pin HIZ2_Pin DRVOFF1_Pin
                           BRIDGESLEEP2_Pin IND_LED_Pin */
  GPIO_InitStruct.Pin = DIR1_1_Pin|HIZ1_Pin|HIZ2_Pin|DRVOFF1_Pin
 80007e6:	f643 0316 	movw	r3, #14358	@ 0x3816
 80007ea:	9304      	str	r3, [sp, #16]
                          |BRIDGESLEEP2_Pin|IND_LED_Pin;
  GPIO_InitStruct.Mode = GPIO_MODE_OUTPUT_PP;
 80007ec:	9505      	str	r5, [sp, #20]
  GPIO_InitStruct.Pull = GPIO_NOPULL;
 80007ee:	9406      	str	r4, [sp, #24]
  GPIO_InitStruct.Speed = GPIO_SPEED_FREQ_LOW;
 80007f0:	f8cd 801c 	str.w	r8, [sp, #28]
  HAL_GPIO_Init(GPIOB, &GPIO_InitStruct);
 80007f4:	a904      	add	r1, sp, #16
 80007f6:	4638      	mov	r0, r7
 80007f8:	f001 f9e8 	bl	8001bcc <HAL_GPIO_Init>

  /*Configure GPIO pins : nFAULT_R1_Pin nFAULT_L1_Pin RS485_CTRL_Pin */
  GPIO_InitStruct.Pin = nFAULT_R1_Pin|nFAULT_L1_Pin|RS485_CTRL_Pin;
 80007fc:	f24c 0320 	movw	r3, #49184	@ 0xc020
 8000800:	9304      	str	r3, [sp, #16]
  GPIO_InitStruct.Mode = GPIO_MODE_INPUT;
 8000802:	9405      	str	r4, [sp, #20]
  GPIO_InitStruct.Pull = GPIO_NOPULL;
 8000804:	9406      	str	r4, [sp, #24]
  HAL_GPIO_Init(GPIOB, &GPIO_InitStruct);
 8000806:	a904      	add	r1, sp, #16
 8000808:	4638      	mov	r0, r7
 800080a:	f001 f9df 	bl	8001bcc <HAL_GPIO_Init>

  /*Configure GPIO pin : USB_ID_Pin */
  GPIO_InitStruct.Pin = USB_ID_Pin;
 800080e:	f44f 6380 	mov.w	r3, #1024	@ 0x400
 8000812:	9304      	str	r3, [sp, #16]
  GPIO_InitStruct.Mode = GPIO_MODE_INPUT;
 8000814:	9405      	str	r4, [sp, #20]
  GPIO_InitStruct.Pull = GPIO_NOPULL;
 8000816:	9406      	str	r4, [sp, #24]
  HAL_GPIO_Init(USB_ID_GPIO_Port, &GPIO_InitStruct);
 8000818:	a904      	add	r1, sp, #16
 800081a:	4630      	mov	r0, r6
 800081c:	f001 f9d6 	bl	8001bcc <HAL_GPIO_Init>

}
 8000820:	b008      	add	sp, #32
 8000822:	e8bd 87f0 	ldmia.w	sp!, {r4, r5, r6, r7, r8, r9, sl, pc}
 8000826:	bf00      	nop
 8000828:	40021000 	.word	0x40021000
 800082c:	40011000 	.word	0x40011000
 8000830:	40010800 	.word	0x40010800
 8000834:	40010c00 	.word	0x40010c00

08000838 <HAL_TIM_PeriodElapsedCallback>:
}

/* USER CODE BEGIN 4 */

void HAL_TIM_PeriodElapsedCallback(TIM_HandleTypeDef *htim)
{
 8000838:	b538      	push	{r3, r4, r5, lr}
  if(htim == &htim3){
 800083a:	4b22      	ldr	r3, [pc, #136]	@ (80008c4 <HAL_TIM_PeriodElapsedCallback+0x8c>)
 800083c:	4283      	cmp	r3, r0
 800083e:	d000      	beq.n	8000842 <HAL_TIM_PeriodElapsedCallback+0xa>
    HAL_GPIO_WritePin(DIR1_1_GPIO_Port, DIR1_1_Pin, dir1);   
    HAL_GPIO_WritePin(DIR2_1_GPIO_Port, DIR2_1_Pin, dir2);   

  }
  
}
 8000840:	bd38      	pop	{r3, r4, r5, pc}
    cntr++;
 8000842:	4a21      	ldr	r2, [pc, #132]	@ (80008c8 <HAL_TIM_PeriodElapsedCallback+0x90>)
 8000844:	8813      	ldrh	r3, [r2, #0]
 8000846:	3301      	adds	r3, #1
 8000848:	b29b      	uxth	r3, r3
 800084a:	8013      	strh	r3, [r2, #0]
    if (cntr >= 3600){
 800084c:	f5b3 6f61 	cmp.w	r3, #3600	@ 0xe10
 8000850:	d22f      	bcs.n	80008b2 <HAL_TIM_PeriodElapsedCallback+0x7a>
    fault1 = HAL_GPIO_ReadPin(nFAULT_L1_GPIO_Port, nFAULT_L1_Pin);
 8000852:	4c1e      	ldr	r4, [pc, #120]	@ (80008cc <HAL_TIM_PeriodElapsedCallback+0x94>)
 8000854:	f44f 4100 	mov.w	r1, #32768	@ 0x8000
 8000858:	4620      	mov	r0, r4
 800085a:	f001 fac5 	bl	8001de8 <HAL_GPIO_ReadPin>
 800085e:	4b1c      	ldr	r3, [pc, #112]	@ (80008d0 <HAL_TIM_PeriodElapsedCallback+0x98>)
 8000860:	7018      	strb	r0, [r3, #0]
    fault2 = HAL_GPIO_ReadPin(nFAULT_R1_GPIO_Port, nFAULT_R1_Pin);
 8000862:	f44f 4180 	mov.w	r1, #16384	@ 0x4000
 8000866:	4620      	mov	r0, r4
 8000868:	f001 fabe 	bl	8001de8 <HAL_GPIO_ReadPin>
 800086c:	4b19      	ldr	r3, [pc, #100]	@ (80008d4 <HAL_TIM_PeriodElapsedCallback+0x9c>)
 800086e:	7018      	strb	r0, [r3, #0]
    fault3 = HAL_GPIO_ReadPin(nFAULT_L2_GPIO_Port, nFAULT_L2_Pin);
 8000870:	4d19      	ldr	r5, [pc, #100]	@ (80008d8 <HAL_TIM_PeriodElapsedCallback+0xa0>)
 8000872:	2101      	movs	r1, #1
 8000874:	4628      	mov	r0, r5
 8000876:	f001 fab7 	bl	8001de8 <HAL_GPIO_ReadPin>
 800087a:	4b18      	ldr	r3, [pc, #96]	@ (80008dc <HAL_TIM_PeriodElapsedCallback+0xa4>)
 800087c:	7018      	strb	r0, [r3, #0]
    fault4 = HAL_GPIO_ReadPin(nFAULT_R2_GPIO_Port, nFAULT_R2_Pin);
 800087e:	2102      	movs	r1, #2
 8000880:	4628      	mov	r0, r5
 8000882:	f001 fab1 	bl	8001de8 <HAL_GPIO_ReadPin>
 8000886:	4b16      	ldr	r3, [pc, #88]	@ (80008e0 <HAL_TIM_PeriodElapsedCallback+0xa8>)
 8000888:	7018      	strb	r0, [r3, #0]
    TIM3->CCR1 = duty1;
 800088a:	4b16      	ldr	r3, [pc, #88]	@ (80008e4 <HAL_TIM_PeriodElapsedCallback+0xac>)
 800088c:	881a      	ldrh	r2, [r3, #0]
 800088e:	4b16      	ldr	r3, [pc, #88]	@ (80008e8 <HAL_TIM_PeriodElapsedCallback+0xb0>)
 8000890:	635a      	str	r2, [r3, #52]	@ 0x34
    TIM3->CCR2 = duty2;
 8000892:	4a16      	ldr	r2, [pc, #88]	@ (80008ec <HAL_TIM_PeriodElapsedCallback+0xb4>)
 8000894:	8812      	ldrh	r2, [r2, #0]
 8000896:	639a      	str	r2, [r3, #56]	@ 0x38
    HAL_GPIO_WritePin(DIR1_1_GPIO_Port, DIR1_1_Pin, dir1);   
 8000898:	4b15      	ldr	r3, [pc, #84]	@ (80008f0 <HAL_TIM_PeriodElapsedCallback+0xb8>)
 800089a:	781a      	ldrb	r2, [r3, #0]
 800089c:	2102      	movs	r1, #2
 800089e:	4620      	mov	r0, r4
 80008a0:	f001 faa9 	bl	8001df6 <HAL_GPIO_WritePin>
    HAL_GPIO_WritePin(DIR2_1_GPIO_Port, DIR2_1_Pin, dir2);   
 80008a4:	4b13      	ldr	r3, [pc, #76]	@ (80008f4 <HAL_TIM_PeriodElapsedCallback+0xbc>)
 80008a6:	781a      	ldrb	r2, [r3, #0]
 80008a8:	2102      	movs	r1, #2
 80008aa:	4813      	ldr	r0, [pc, #76]	@ (80008f8 <HAL_TIM_PeriodElapsedCallback+0xc0>)
 80008ac:	f001 faa3 	bl	8001df6 <HAL_GPIO_WritePin>
}
 80008b0:	e7c6      	b.n	8000840 <HAL_TIM_PeriodElapsedCallback+0x8>
      HAL_GPIO_TogglePin(IND_LED_GPIO_Port, IND_LED_Pin);
 80008b2:	2110      	movs	r1, #16
 80008b4:	4805      	ldr	r0, [pc, #20]	@ (80008cc <HAL_TIM_PeriodElapsedCallback+0x94>)
 80008b6:	f001 faa4 	bl	8001e02 <HAL_GPIO_TogglePin>
      cntr = 0;
 80008ba:	4b03      	ldr	r3, [pc, #12]	@ (80008c8 <HAL_TIM_PeriodElapsedCallback+0x90>)
 80008bc:	2200      	movs	r2, #0
 80008be:	801a      	strh	r2, [r3, #0]
 80008c0:	e7c7      	b.n	8000852 <HAL_TIM_PeriodElapsedCallback+0x1a>
 80008c2:	bf00      	nop
 80008c4:	20000270 	.word	0x20000270
 80008c8:	20000118 	.word	0x20000118
 80008cc:	40010c00 	.word	0x40010c00
 80008d0:	2000011d 	.word	0x2000011d
 80008d4:	2000011c 	.word	0x2000011c
 80008d8:	40011000 	.word	0x40011000
 80008dc:	2000011b 	.word	0x2000011b
 80008e0:	2000011a 	.word	0x2000011a
 80008e4:	20000124 	.word	0x20000124
 80008e8:	40000400 	.word	0x40000400
 80008ec:	20000122 	.word	0x20000122
 80008f0:	20000120 	.word	0x20000120
 80008f4:	2000011e 	.word	0x2000011e
 80008f8:	40010800 	.word	0x40010800

080008fc <HAL_ADC_ConvCpltCallback>:

void HAL_ADC_ConvCpltCallback(ADC_HandleTypeDef* hadc){
 80008fc:	b538      	push	{r3, r4, r5, lr}
  current[0] = (float)((int16_t)adc[0] - CS_ADC_M1_Offset) * CS_ADC_M1_Gain;
 80008fe:	4d0e      	ldr	r5, [pc, #56]	@ (8000938 <HAL_ADC_ConvCpltCallback+0x3c>)
 8000900:	882b      	ldrh	r3, [r5, #0]
 8000902:	b21b      	sxth	r3, r3
 8000904:	4a0d      	ldr	r2, [pc, #52]	@ (800093c <HAL_ADC_ConvCpltCallback+0x40>)
 8000906:	f9b2 0000 	ldrsh.w	r0, [r2]
 800090a:	1a18      	subs	r0, r3, r0
 800090c:	f7ff fd6c 	bl	80003e8 <__aeabi_i2f>
 8000910:	4b0b      	ldr	r3, [pc, #44]	@ (8000940 <HAL_ADC_ConvCpltCallback+0x44>)
 8000912:	6819      	ldr	r1, [r3, #0]
 8000914:	f7ff fbfa 	bl	800010c <__aeabi_fmul>
 8000918:	4c0a      	ldr	r4, [pc, #40]	@ (8000944 <HAL_ADC_ConvCpltCallback+0x48>)
 800091a:	6020      	str	r0, [r4, #0]
  current[1] = (float)((int16_t)adc[1] - CS_ADC_M2_Offset) * CS_ADC_M2_Gain;
 800091c:	886b      	ldrh	r3, [r5, #2]
 800091e:	b21b      	sxth	r3, r3
 8000920:	4a09      	ldr	r2, [pc, #36]	@ (8000948 <HAL_ADC_ConvCpltCallback+0x4c>)
 8000922:	f9b2 0000 	ldrsh.w	r0, [r2]
 8000926:	1a18      	subs	r0, r3, r0
 8000928:	f7ff fd5e 	bl	80003e8 <__aeabi_i2f>
 800092c:	4b07      	ldr	r3, [pc, #28]	@ (800094c <HAL_ADC_ConvCpltCallback+0x50>)
 800092e:	6819      	ldr	r1, [r3, #0]
 8000930:	f7ff fbec 	bl	800010c <__aeabi_fmul>
 8000934:	6060      	str	r0, [r4, #4]
}
 8000936:	bd38      	pop	{r3, r4, r5, pc}
 8000938:	20000130 	.word	0x20000130
 800093c:	2000007a 	.word	0x2000007a
 8000940:	20000074 	.word	0x20000074
 8000944:	20000128 	.word	0x20000128
 8000948:	20000078 	.word	0x20000078
 800094c:	20000070 	.word	0x20000070

08000950 <Error_Handler>:
  \details Disables IRQ interrupts by setting the I-bit in the CPSR.
           Can only be executed in Privileged modes.
 */
__STATIC_FORCEINLINE void __disable_irq(void)
{
  __ASM volatile ("cpsid i" : : : "memory");
 8000950:	b672      	cpsid	i
void Error_Handler(void)
{
  /* USER CODE BEGIN Error_Handler_Debug */
  /* User can add his own implementation to report the HAL error return state */
  __disable_irq();
  while (1)
 8000952:	e7fe      	b.n	8000952 <Error_Handler+0x2>

08000954 <SystemClock_Config>:
{
 8000954:	b500      	push	{lr}
 8000956:	b095      	sub	sp, #84	@ 0x54
  RCC_OscInitTypeDef RCC_OscInitStruct = {0};
 8000958:	2228      	movs	r2, #40	@ 0x28
 800095a:	2100      	movs	r1, #0
 800095c:	eb0d 0002 	add.w	r0, sp, r2
 8000960:	f002 ffc1 	bl	80038e6 <memset>
  RCC_ClkInitTypeDef RCC_ClkInitStruct = {0};
 8000964:	2300      	movs	r3, #0
 8000966:	9305      	str	r3, [sp, #20]
 8000968:	9306      	str	r3, [sp, #24]
 800096a:	9307      	str	r3, [sp, #28]
 800096c:	9308      	str	r3, [sp, #32]
 800096e:	9309      	str	r3, [sp, #36]	@ 0x24
  RCC_PeriphCLKInitTypeDef PeriphClkInit = {0};
 8000970:	9301      	str	r3, [sp, #4]
 8000972:	9302      	str	r3, [sp, #8]
 8000974:	9303      	str	r3, [sp, #12]
 8000976:	9304      	str	r3, [sp, #16]
  RCC_OscInitStruct.OscillatorType = RCC_OSCILLATORTYPE_LSI|RCC_OSCILLATORTYPE_HSE;
 8000978:	2309      	movs	r3, #9
 800097a:	930a      	str	r3, [sp, #40]	@ 0x28
  RCC_OscInitStruct.HSEState = RCC_HSE_ON;
 800097c:	f44f 3380 	mov.w	r3, #65536	@ 0x10000
 8000980:	930b      	str	r3, [sp, #44]	@ 0x2c
  RCC_OscInitStruct.HSIState = RCC_HSI_ON;
 8000982:	2201      	movs	r2, #1
 8000984:	920e      	str	r2, [sp, #56]	@ 0x38
  RCC_OscInitStruct.LSIState = RCC_LSI_ON;
 8000986:	9210      	str	r2, [sp, #64]	@ 0x40
  RCC_OscInitStruct.PLL.PLLState = RCC_PLL_ON;
 8000988:	2202      	movs	r2, #2
 800098a:	9211      	str	r2, [sp, #68]	@ 0x44
  RCC_OscInitStruct.PLL.PLLSource = RCC_PLLSOURCE_HSE;
 800098c:	9312      	str	r3, [sp, #72]	@ 0x48
  RCC_OscInitStruct.PLL.PLLMUL = RCC_PLL_MUL9;
 800098e:	f44f 13e0 	mov.w	r3, #1835008	@ 0x1c0000
 8000992:	9313      	str	r3, [sp, #76]	@ 0x4c
  if (HAL_RCC_OscConfig(&RCC_OscInitStruct) != HAL_OK)
 8000994:	a80a      	add	r0, sp, #40	@ 0x28
 8000996:	f001 fa59 	bl	8001e4c <HAL_RCC_OscConfig>
 800099a:	b9e0      	cbnz	r0, 80009d6 <SystemClock_Config+0x82>
  RCC_ClkInitStruct.ClockType = RCC_CLOCKTYPE_HCLK|RCC_CLOCKTYPE_SYSCLK
 800099c:	230f      	movs	r3, #15
 800099e:	9305      	str	r3, [sp, #20]
  RCC_ClkInitStruct.SYSCLKSource = RCC_SYSCLKSOURCE_PLLCLK;
 80009a0:	2102      	movs	r1, #2
 80009a2:	9106      	str	r1, [sp, #24]
  RCC_ClkInitStruct.AHBCLKDivider = RCC_SYSCLK_DIV1;
 80009a4:	2300      	movs	r3, #0
 80009a6:	9307      	str	r3, [sp, #28]
  RCC_ClkInitStruct.APB1CLKDivider = RCC_HCLK_DIV2;
 80009a8:	f44f 6280 	mov.w	r2, #1024	@ 0x400
 80009ac:	9208      	str	r2, [sp, #32]
  RCC_ClkInitStruct.APB2CLKDivider = RCC_HCLK_DIV1;
 80009ae:	9309      	str	r3, [sp, #36]	@ 0x24
  if (HAL_RCC_ClockConfig(&RCC_ClkInitStruct, FLASH_LATENCY_2) != HAL_OK)
 80009b0:	a805      	add	r0, sp, #20
 80009b2:	f001 fc7d 	bl	80022b0 <HAL_RCC_ClockConfig>
 80009b6:	b980      	cbnz	r0, 80009da <SystemClock_Config+0x86>
  PeriphClkInit.PeriphClockSelection = RCC_PERIPHCLK_RTC|RCC_PERIPHCLK_ADC;
 80009b8:	2303      	movs	r3, #3
 80009ba:	9301      	str	r3, [sp, #4]
  PeriphClkInit.RTCClockSelection = RCC_RTCCLKSOURCE_LSI;
 80009bc:	f44f 7300 	mov.w	r3, #512	@ 0x200
 80009c0:	9302      	str	r3, [sp, #8]
  PeriphClkInit.AdcClockSelection = RCC_ADCPCLK2_DIV6;
 80009c2:	f44f 4300 	mov.w	r3, #32768	@ 0x8000
 80009c6:	9303      	str	r3, [sp, #12]
  if (HAL_RCCEx_PeriphCLKConfig(&PeriphClkInit) != HAL_OK)
 80009c8:	a801      	add	r0, sp, #4
 80009ca:	f001 fd4d 	bl	8002468 <HAL_RCCEx_PeriphCLKConfig>
 80009ce:	b930      	cbnz	r0, 80009de <SystemClock_Config+0x8a>
}
 80009d0:	b015      	add	sp, #84	@ 0x54
 80009d2:	f85d fb04 	ldr.w	pc, [sp], #4
    Error_Handler();
 80009d6:	f7ff ffbb 	bl	8000950 <Error_Handler>
    Error_Handler();
 80009da:	f7ff ffb9 	bl	8000950 <Error_Handler>
    Error_Handler();
 80009de:	f7ff ffb7 	bl	8000950 <Error_Handler>
	...

080009e4 <main>:
{
 80009e4:	b580      	push	{r7, lr}
  HAL_Init();
 80009e6:	f000 fcaf 	bl	8001348 <HAL_Init>
  SystemClock_Config();
 80009ea:	f7ff ffb3 	bl	8000954 <SystemClock_Config>
  MX_GPIO_Init();
 80009ee:	f7ff fe79 	bl	80006e4 <MX_GPIO_Init>
  MX_DMA_Init();
 80009f2:	f7ff fdf7 	bl	80005e4 <MX_DMA_Init>
  MX_ADC1_Init();
 80009f6:	f7ff fd6b 	bl	80004d0 <MX_ADC1_Init>
  MX_SPI1_Init();
 80009fa:	f000 f90f 	bl	8000c1c <MX_SPI1_Init>
  MX_TIM1_Init();
 80009fe:	f000 fa0b 	bl	8000e18 <MX_TIM1_Init>
  MX_TIM2_Init();
 8000a02:	f000 fa3b 	bl	8000e7c <MX_TIM2_Init>
  MX_TIM3_Init();
 8000a06:	f000 fb99 	bl	800113c <MX_TIM3_Init>
  MX_TIM4_Init();
 8000a0a:	f000 fa67 	bl	8000edc <MX_TIM4_Init>
  MX_USART1_UART_Init();
 8000a0e:	f000 fbe1 	bl	80011d4 <MX_USART1_UART_Init>
  MX_RTC_Init();
 8000a12:	f000 f8a1 	bl	8000b58 <MX_RTC_Init>
  HAL_GPIO_WritePin(SPI1_SS1_GPIO_Port, SPI1_SS1_Pin, GPIO_PIN_SET);
 8000a16:	2201      	movs	r2, #1
 8000a18:	2110      	movs	r1, #16
 8000a1a:	4844      	ldr	r0, [pc, #272]	@ (8000b2c <main+0x148>)
 8000a1c:	f001 f9eb 	bl	8001df6 <HAL_GPIO_WritePin>
  HAL_GPIO_WritePin(SPI1_SS2_GPIO_Port, SPI1_SS2_Pin, GPIO_PIN_SET);
 8000a20:	4c43      	ldr	r4, [pc, #268]	@ (8000b30 <main+0x14c>)
 8000a22:	2201      	movs	r2, #1
 8000a24:	2110      	movs	r1, #16
 8000a26:	4620      	mov	r0, r4
 8000a28:	f001 f9e5 	bl	8001df6 <HAL_GPIO_WritePin>
  HAL_GPIO_WritePin(SPI1_SS3_GPIO_Port, SPI1_SS3_Pin, GPIO_PIN_SET);
 8000a2c:	2201      	movs	r2, #1
 8000a2e:	2120      	movs	r1, #32
 8000a30:	4620      	mov	r0, r4
 8000a32:	f001 f9e0 	bl	8001df6 <HAL_GPIO_WritePin>
  HAL_GPIO_WritePin(SPI1_SS4_GPIO_Port, SPI1_SS4_Pin, GPIO_PIN_SET);
 8000a36:	4e3f      	ldr	r6, [pc, #252]	@ (8000b34 <main+0x150>)
 8000a38:	2201      	movs	r2, #1
 8000a3a:	4611      	mov	r1, r2
 8000a3c:	4630      	mov	r0, r6
 8000a3e:	f001 f9da 	bl	8001df6 <HAL_GPIO_WritePin>
  TIM3->CCR1 = 0;
 8000a42:	4b3d      	ldr	r3, [pc, #244]	@ (8000b38 <main+0x154>)
 8000a44:	2100      	movs	r1, #0
 8000a46:	6359      	str	r1, [r3, #52]	@ 0x34
  TIM3->CCR2 = 0;
 8000a48:	6399      	str	r1, [r3, #56]	@ 0x38
  HAL_TIM_PWM_Start(&htim3, TIM_CHANNEL_1);
 8000a4a:	4d3c      	ldr	r5, [pc, #240]	@ (8000b3c <main+0x158>)
 8000a4c:	4628      	mov	r0, r5
 8000a4e:	f002 fe05 	bl	800365c <HAL_TIM_PWM_Start>
  HAL_TIM_PWM_Start(&htim3, TIM_CHANNEL_2);
 8000a52:	2104      	movs	r1, #4
 8000a54:	4628      	mov	r0, r5
 8000a56:	f002 fe01 	bl	800365c <HAL_TIM_PWM_Start>
  HAL_TIM_Base_Start_IT(&htim3);
 8000a5a:	4628      	mov	r0, r5
 8000a5c:	f002 fae2 	bl	8003024 <HAL_TIM_Base_Start_IT>
  HAL_ADC_Start_DMA(&hadc1, (uint32_t *)&adc, 2);
 8000a60:	2202      	movs	r2, #2
 8000a62:	4937      	ldr	r1, [pc, #220]	@ (8000b40 <main+0x15c>)
 8000a64:	4837      	ldr	r0, [pc, #220]	@ (8000b44 <main+0x160>)
 8000a66:	f000 fdc9 	bl	80015fc <HAL_ADC_Start_DMA>
  HAL_Delay(1);
 8000a6a:	2001      	movs	r0, #1
 8000a6c:	f000 fc90 	bl	8001390 <HAL_Delay>
  HAL_GPIO_WritePin(BRIDGESLEEP1_GPIO_Port, BRIDGESLEEP1_Pin, GPIO_PIN_SET);
 8000a70:	2201      	movs	r2, #1
 8000a72:	2104      	movs	r1, #4
 8000a74:	4620      	mov	r0, r4
 8000a76:	f001 f9be 	bl	8001df6 <HAL_GPIO_WritePin>
  HAL_GPIO_WritePin(BRIDGESLEEP2_GPIO_Port, BRIDGESLEEP2_Pin, GPIO_PIN_SET);
 8000a7a:	2201      	movs	r2, #1
 8000a7c:	f44f 5100 	mov.w	r1, #8192	@ 0x2000
 8000a80:	4630      	mov	r0, r6
 8000a82:	f001 f9b8 	bl	8001df6 <HAL_GPIO_WritePin>
  HAL_Delay(1);
 8000a86:	2001      	movs	r0, #1
 8000a88:	f000 fc82 	bl	8001390 <HAL_Delay>
  drv8106_write_reg_blocking(&drv1, DRV8106_IC_CTRL, DRV8106_CLR_FLT);
 8000a8c:	4d2e      	ldr	r5, [pc, #184]	@ (8000b48 <main+0x164>)
 8000a8e:	2201      	movs	r2, #1
 8000a90:	2104      	movs	r1, #4
 8000a92:	4628      	mov	r0, r5
 8000a94:	f7ff fdff 	bl	8000696 <drv8106_write_reg_blocking>
  drv8106_write_reg_blocking(&drv2, DRV8106_IC_CTRL, DRV8106_CLR_FLT);
 8000a98:	f8df 80b0 	ldr.w	r8, [pc, #176]	@ 8000b4c <main+0x168>
 8000a9c:	2201      	movs	r2, #1
 8000a9e:	2104      	movs	r1, #4
 8000aa0:	4640      	mov	r0, r8
 8000aa2:	f7ff fdf8 	bl	8000696 <drv8106_write_reg_blocking>
  drv8106_write_reg_blocking(&drv3, DRV8106_IC_CTRL, DRV8106_CLR_FLT);
 8000aa6:	4c2a      	ldr	r4, [pc, #168]	@ (8000b50 <main+0x16c>)
 8000aa8:	2201      	movs	r2, #1
 8000aaa:	2104      	movs	r1, #4
 8000aac:	4620      	mov	r0, r4
 8000aae:	f7ff fdf2 	bl	8000696 <drv8106_write_reg_blocking>
  drv8106_write_reg_blocking(&drv4, DRV8106_IC_CTRL, DRV8106_CLR_FLT);
 8000ab2:	4f28      	ldr	r7, [pc, #160]	@ (8000b54 <main+0x170>)
 8000ab4:	2201      	movs	r2, #1
 8000ab6:	2104      	movs	r1, #4
 8000ab8:	4638      	mov	r0, r7
 8000aba:	f7ff fdec 	bl	8000696 <drv8106_write_reg_blocking>
  HAL_GPIO_WritePin(HIZ1_GPIO_Port, HIZ1_Pin, GPIO_PIN_SET);
 8000abe:	2201      	movs	r2, #1
 8000ac0:	2104      	movs	r1, #4
 8000ac2:	4630      	mov	r0, r6
 8000ac4:	f001 f997 	bl	8001df6 <HAL_GPIO_WritePin>
  HAL_GPIO_WritePin(HIZ2_GPIO_Port, HIZ2_Pin, GPIO_PIN_SET);
 8000ac8:	2201      	movs	r2, #1
 8000aca:	f44f 6100 	mov.w	r1, #2048	@ 0x800
 8000ace:	4630      	mov	r0, r6
 8000ad0:	f001 f991 	bl	8001df6 <HAL_GPIO_WritePin>
  drv8106_write_reg_blocking(&drv1, DRV8106_IC_CTRL, DRV8106_EN_DRV);
 8000ad4:	2280      	movs	r2, #128	@ 0x80
 8000ad6:	2104      	movs	r1, #4
 8000ad8:	4628      	mov	r0, r5
 8000ada:	f7ff fddc 	bl	8000696 <drv8106_write_reg_blocking>
  drv8106_write_reg_blocking(&drv2, DRV8106_IC_CTRL, DRV8106_EN_DRV);
 8000ade:	2280      	movs	r2, #128	@ 0x80
 8000ae0:	2104      	movs	r1, #4
 8000ae2:	4640      	mov	r0, r8
 8000ae4:	f7ff fdd7 	bl	8000696 <drv8106_write_reg_blocking>
  drv8106_write_reg_blocking(&drv3, DRV8106_IC_CTRL, DRV8106_EN_DRV);
 8000ae8:	2280      	movs	r2, #128	@ 0x80
 8000aea:	2104      	movs	r1, #4
 8000aec:	4620      	mov	r0, r4
 8000aee:	f7ff fdd2 	bl	8000696 <drv8106_write_reg_blocking>
  drv8106_write_reg_blocking(&drv4, DRV8106_IC_CTRL, DRV8106_EN_DRV);
 8000af2:	2280      	movs	r2, #128	@ 0x80
 8000af4:	2104      	movs	r1, #4
 8000af6:	4638      	mov	r0, r7
 8000af8:	f7ff fdcd 	bl	8000696 <drv8106_write_reg_blocking>
  drv8106_write_reg_blocking(&drv1, DRV8106_CSA_CTRL, DRV8106_CSA_SH_EN | DRV8106_CSA_GAIN_10);
 8000afc:	2280      	movs	r2, #128	@ 0x80
 8000afe:	210d      	movs	r1, #13
 8000b00:	4628      	mov	r0, r5
 8000b02:	f7ff fdc8 	bl	8000696 <drv8106_write_reg_blocking>
  drv8106_write_reg_blocking(&drv3, DRV8106_CSA_CTRL, DRV8106_CSA_SH_EN | DRV8106_CSA_GAIN_10);
 8000b06:	2280      	movs	r2, #128	@ 0x80
 8000b08:	210d      	movs	r1, #13
 8000b0a:	4620      	mov	r0, r4
 8000b0c:	f7ff fdc3 	bl	8000696 <drv8106_write_reg_blocking>
  drv8106_read_all_blocking(&drv1);
 8000b10:	4628      	mov	r0, r5
 8000b12:	f7ff fdde 	bl	80006d2 <drv8106_read_all_blocking>
  drv8106_read_all_blocking(&drv2);
 8000b16:	4640      	mov	r0, r8
 8000b18:	f7ff fddb 	bl	80006d2 <drv8106_read_all_blocking>
  drv8106_read_all_blocking(&drv3);
 8000b1c:	4620      	mov	r0, r4
 8000b1e:	f7ff fdd8 	bl	80006d2 <drv8106_read_all_blocking>
  drv8106_read_all_blocking(&drv4);
 8000b22:	4638      	mov	r0, r7
 8000b24:	f7ff fdd5 	bl	80006d2 <drv8106_read_all_blocking>
  while (1)
 8000b28:	e7fe      	b.n	8000b28 <main+0x144>
 8000b2a:	bf00      	nop
 8000b2c:	40010800 	.word	0x40010800
 8000b30:	40011000 	.word	0x40011000
 8000b34:	40010c00 	.word	0x40010c00
 8000b38:	40000400 	.word	0x40000400
 8000b3c:	20000270 	.word	0x20000270
 8000b40:	20000130 	.word	0x20000130
 8000b44:	200000e8 	.word	0x200000e8
 8000b48:	20000054 	.word	0x20000054
 8000b4c:	20000038 	.word	0x20000038
 8000b50:	2000001c 	.word	0x2000001c
 8000b54:	20000000 	.word	0x20000000

08000b58 <MX_RTC_Init>:

RTC_HandleTypeDef hrtc;

/* RTC init function */
void MX_RTC_Init(void)
{
 8000b58:	b500      	push	{lr}
 8000b5a:	b083      	sub	sp, #12

  /* USER CODE BEGIN RTC_Init 0 */

  /* USER CODE END RTC_Init 0 */

  RTC_TimeTypeDef sTime = {0};
 8000b5c:	2300      	movs	r3, #0
 8000b5e:	f8ad 3004 	strh.w	r3, [sp, #4]
 8000b62:	f88d 3006 	strb.w	r3, [sp, #6]
  RTC_DateTypeDef DateToUpdate = {0};
 8000b66:	9300      	str	r3, [sp, #0]

  /* USER CODE END RTC_Init 1 */

  /** Initialize RTC Only
  */
  hrtc.Instance = RTC;
 8000b68:	481a      	ldr	r0, [pc, #104]	@ (8000bd4 <MX_RTC_Init+0x7c>)
 8000b6a:	4b1b      	ldr	r3, [pc, #108]	@ (8000bd8 <MX_RTC_Init+0x80>)
 8000b6c:	6003      	str	r3, [r0, #0]
  hrtc.Init.AsynchPrediv = RTC_AUTO_1_SECOND;
 8000b6e:	f04f 33ff 	mov.w	r3, #4294967295
 8000b72:	6043      	str	r3, [r0, #4]
  hrtc.Init.OutPut = RTC_OUTPUTSOURCE_ALARM;
 8000b74:	f44f 7380 	mov.w	r3, #256	@ 0x100
 8000b78:	6083      	str	r3, [r0, #8]
  if (HAL_RTC_Init(&hrtc) != HAL_OK)
 8000b7a:	f001 ff21 	bl	80029c0 <HAL_RTC_Init>
 8000b7e:	bb00      	cbnz	r0, 8000bc2 <MX_RTC_Init+0x6a>

  /* USER CODE END Check_RTC_BKUP */

  /** Initialize RTC and set the Time and Date
  */
  sTime.Hours = 0x12;
 8000b80:	2312      	movs	r3, #18
 8000b82:	f88d 3004 	strb.w	r3, [sp, #4]
  sTime.Minutes = 0x12;
 8000b86:	f88d 3005 	strb.w	r3, [sp, #5]
  sTime.Seconds = 0x12;
 8000b8a:	f88d 3006 	strb.w	r3, [sp, #6]

  if (HAL_RTC_SetTime(&hrtc, &sTime, RTC_FORMAT_BCD) != HAL_OK)
 8000b8e:	2201      	movs	r2, #1
 8000b90:	a901      	add	r1, sp, #4
 8000b92:	4810      	ldr	r0, [pc, #64]	@ (8000bd4 <MX_RTC_Init+0x7c>)
 8000b94:	f001 fe2d 	bl	80027f2 <HAL_RTC_SetTime>
 8000b98:	b9b0      	cbnz	r0, 8000bc8 <MX_RTC_Init+0x70>
  {
    Error_Handler();
  }
  DateToUpdate.WeekDay = RTC_WEEKDAY_SATURDAY;
 8000b9a:	2306      	movs	r3, #6
 8000b9c:	f88d 3000 	strb.w	r3, [sp]
  DateToUpdate.Month = RTC_MONTH_MARCH;
 8000ba0:	2303      	movs	r3, #3
 8000ba2:	f88d 3001 	strb.w	r3, [sp, #1]
  DateToUpdate.Date = 0x1;
 8000ba6:	2201      	movs	r2, #1
 8000ba8:	f88d 2002 	strb.w	r2, [sp, #2]
  DateToUpdate.Year = 0x25;
 8000bac:	2325      	movs	r3, #37	@ 0x25
 8000bae:	f88d 3003 	strb.w	r3, [sp, #3]

  if (HAL_RTC_SetDate(&hrtc, &DateToUpdate, RTC_FORMAT_BCD) != HAL_OK)
 8000bb2:	4669      	mov	r1, sp
 8000bb4:	4807      	ldr	r0, [pc, #28]	@ (8000bd4 <MX_RTC_Init+0x7c>)
 8000bb6:	f001 fe7d 	bl	80028b4 <HAL_RTC_SetDate>
 8000bba:	b940      	cbnz	r0, 8000bce <MX_RTC_Init+0x76>
  }
  /* USER CODE BEGIN RTC_Init 2 */

  /* USER CODE END RTC_Init 2 */

}
 8000bbc:	b003      	add	sp, #12
 8000bbe:	f85d fb04 	ldr.w	pc, [sp], #4
    Error_Handler();
 8000bc2:	f7ff fec5 	bl	8000950 <Error_Handler>
 8000bc6:	e7db      	b.n	8000b80 <MX_RTC_Init+0x28>
    Error_Handler();
 8000bc8:	f7ff fec2 	bl	8000950 <Error_Handler>
 8000bcc:	e7e5      	b.n	8000b9a <MX_RTC_Init+0x42>
    Error_Handler();
 8000bce:	f7ff febf 	bl	8000950 <Error_Handler>
}
 8000bd2:	e7f3      	b.n	8000bbc <MX_RTC_Init+0x64>
 8000bd4:	20000134 	.word	0x20000134
 8000bd8:	40002800 	.word	0x40002800

08000bdc <HAL_RTC_MspInit>:

void HAL_RTC_MspInit(RTC_HandleTypeDef* rtcHandle)
{

  if(rtcHandle->Instance==RTC)
 8000bdc:	6802      	ldr	r2, [r0, #0]
 8000bde:	4b0c      	ldr	r3, [pc, #48]	@ (8000c10 <HAL_RTC_MspInit+0x34>)
 8000be0:	429a      	cmp	r2, r3
 8000be2:	d000      	beq.n	8000be6 <HAL_RTC_MspInit+0xa>
 8000be4:	4770      	bx	lr
{
 8000be6:	b500      	push	{lr}
 8000be8:	b083      	sub	sp, #12
  {
  /* USER CODE BEGIN RTC_MspInit 0 */

  /* USER CODE END RTC_MspInit 0 */
    HAL_PWR_EnableBkUpAccess();
 8000bea:	f001 f913 	bl	8001e14 <HAL_PWR_EnableBkUpAccess>
    /* Enable BKP CLK enable for backup registers */
    __HAL_RCC_BKP_CLK_ENABLE();
 8000bee:	4b09      	ldr	r3, [pc, #36]	@ (8000c14 <HAL_RTC_MspInit+0x38>)
 8000bf0:	69da      	ldr	r2, [r3, #28]
 8000bf2:	f042 6200 	orr.w	r2, r2, #134217728	@ 0x8000000
 8000bf6:	61da      	str	r2, [r3, #28]
 8000bf8:	69db      	ldr	r3, [r3, #28]
 8000bfa:	f003 6300 	and.w	r3, r3, #134217728	@ 0x8000000
 8000bfe:	9301      	str	r3, [sp, #4]
 8000c00:	9b01      	ldr	r3, [sp, #4]
    /* RTC clock enable */
    __HAL_RCC_RTC_ENABLE();
 8000c02:	4b05      	ldr	r3, [pc, #20]	@ (8000c18 <HAL_RTC_MspInit+0x3c>)
 8000c04:	2201      	movs	r2, #1
 8000c06:	f8c3 243c 	str.w	r2, [r3, #1084]	@ 0x43c
  /* USER CODE BEGIN RTC_MspInit 1 */

  /* USER CODE END RTC_MspInit 1 */
  }
}
 8000c0a:	b003      	add	sp, #12
 8000c0c:	f85d fb04 	ldr.w	pc, [sp], #4
 8000c10:	40002800 	.word	0x40002800
 8000c14:	40021000 	.word	0x40021000
 8000c18:	42420000 	.word	0x42420000

08000c1c <MX_SPI1_Init>:
DMA_HandleTypeDef hdma_spi1_rx;
DMA_HandleTypeDef hdma_spi1_tx;

/* SPI1 init function */
void MX_SPI1_Init(void)
{
 8000c1c:	b508      	push	{r3, lr}
  /* USER CODE END SPI1_Init 0 */

  /* USER CODE BEGIN SPI1_Init 1 */

  /* USER CODE END SPI1_Init 1 */
  hspi1.Instance = SPI1;
 8000c1e:	480f      	ldr	r0, [pc, #60]	@ (8000c5c <MX_SPI1_Init+0x40>)
 8000c20:	4b0f      	ldr	r3, [pc, #60]	@ (8000c60 <MX_SPI1_Init+0x44>)
 8000c22:	6003      	str	r3, [r0, #0]
  hspi1.Init.Mode = SPI_MODE_MASTER;
 8000c24:	f44f 7382 	mov.w	r3, #260	@ 0x104
 8000c28:	6043      	str	r3, [r0, #4]
  hspi1.Init.Direction = SPI_DIRECTION_2LINES;
 8000c2a:	2300      	movs	r3, #0
 8000c2c:	6083      	str	r3, [r0, #8]
  hspi1.Init.DataSize = SPI_DATASIZE_16BIT;
 8000c2e:	f44f 6200 	mov.w	r2, #2048	@ 0x800
 8000c32:	60c2      	str	r2, [r0, #12]
  hspi1.Init.CLKPolarity = SPI_POLARITY_LOW;
 8000c34:	6103      	str	r3, [r0, #16]
  hspi1.Init.CLKPhase = SPI_PHASE_2EDGE;
 8000c36:	2201      	movs	r2, #1
 8000c38:	6142      	str	r2, [r0, #20]
  hspi1.Init.NSS = SPI_NSS_SOFT;
 8000c3a:	f44f 7200 	mov.w	r2, #512	@ 0x200
 8000c3e:	6182      	str	r2, [r0, #24]
  hspi1.Init.BaudRatePrescaler = SPI_BAUDRATEPRESCALER_64;
 8000c40:	2228      	movs	r2, #40	@ 0x28
 8000c42:	61c2      	str	r2, [r0, #28]
  hspi1.Init.FirstBit = SPI_FIRSTBIT_MSB;
 8000c44:	6203      	str	r3, [r0, #32]
  hspi1.Init.TIMode = SPI_TIMODE_DISABLE;
 8000c46:	6243      	str	r3, [r0, #36]	@ 0x24
  hspi1.Init.CRCCalculation = SPI_CRCCALCULATION_DISABLE;
 8000c48:	6283      	str	r3, [r0, #40]	@ 0x28
  hspi1.Init.CRCPolynomial = 10;
 8000c4a:	230a      	movs	r3, #10
 8000c4c:	62c3      	str	r3, [r0, #44]	@ 0x2c
  if (HAL_SPI_Init(&hspi1) != HAL_OK)
 8000c4e:	f001 ff95 	bl	8002b7c <HAL_SPI_Init>
 8000c52:	b900      	cbnz	r0, 8000c56 <MX_SPI1_Init+0x3a>
  }
  /* USER CODE BEGIN SPI1_Init 2 */

  /* USER CODE END SPI1_Init 2 */

}
 8000c54:	bd08      	pop	{r3, pc}
    Error_Handler();
 8000c56:	f7ff fe7b 	bl	8000950 <Error_Handler>
}
 8000c5a:	e7fb      	b.n	8000c54 <MX_SPI1_Init+0x38>
 8000c5c:	200001d0 	.word	0x200001d0
 8000c60:	40013000 	.word	0x40013000

08000c64 <HAL_SPI_MspInit>:

void HAL_SPI_MspInit(SPI_HandleTypeDef* spiHandle)
{
 8000c64:	b570      	push	{r4, r5, r6, lr}
 8000c66:	b086      	sub	sp, #24

  GPIO_InitTypeDef GPIO_InitStruct = {0};
 8000c68:	2300      	movs	r3, #0
 8000c6a:	9302      	str	r3, [sp, #8]
 8000c6c:	9303      	str	r3, [sp, #12]
 8000c6e:	9304      	str	r3, [sp, #16]
 8000c70:	9305      	str	r3, [sp, #20]
  if(spiHandle->Instance==SPI1)
 8000c72:	6802      	ldr	r2, [r0, #0]
 8000c74:	4b32      	ldr	r3, [pc, #200]	@ (8000d40 <HAL_SPI_MspInit+0xdc>)
 8000c76:	429a      	cmp	r2, r3
 8000c78:	d001      	beq.n	8000c7e <HAL_SPI_MspInit+0x1a>

  /* USER CODE BEGIN SPI1_MspInit 1 */

  /* USER CODE END SPI1_MspInit 1 */
  }
}
 8000c7a:	b006      	add	sp, #24
 8000c7c:	bd70      	pop	{r4, r5, r6, pc}
 8000c7e:	4604      	mov	r4, r0
    __HAL_RCC_SPI1_CLK_ENABLE();
 8000c80:	f503 4360 	add.w	r3, r3, #57344	@ 0xe000
 8000c84:	699a      	ldr	r2, [r3, #24]
 8000c86:	f442 5280 	orr.w	r2, r2, #4096	@ 0x1000
 8000c8a:	619a      	str	r2, [r3, #24]
 8000c8c:	699a      	ldr	r2, [r3, #24]
 8000c8e:	f402 5280 	and.w	r2, r2, #4096	@ 0x1000
 8000c92:	9200      	str	r2, [sp, #0]
 8000c94:	9a00      	ldr	r2, [sp, #0]
    __HAL_RCC_GPIOA_CLK_ENABLE();
 8000c96:	699a      	ldr	r2, [r3, #24]
 8000c98:	f042 0204 	orr.w	r2, r2, #4
 8000c9c:	619a      	str	r2, [r3, #24]
 8000c9e:	699b      	ldr	r3, [r3, #24]
 8000ca0:	f003 0304 	and.w	r3, r3, #4
 8000ca4:	9301      	str	r3, [sp, #4]
 8000ca6:	9b01      	ldr	r3, [sp, #4]
    GPIO_InitStruct.Pin = GPIO_PIN_5|GPIO_PIN_7;
 8000ca8:	23a0      	movs	r3, #160	@ 0xa0
 8000caa:	9302      	str	r3, [sp, #8]
    GPIO_InitStruct.Mode = GPIO_MODE_AF_PP;
 8000cac:	2302      	movs	r3, #2
 8000cae:	9303      	str	r3, [sp, #12]
    GPIO_InitStruct.Speed = GPIO_SPEED_FREQ_HIGH;
 8000cb0:	2303      	movs	r3, #3
 8000cb2:	9305      	str	r3, [sp, #20]
    HAL_GPIO_Init(GPIOA, &GPIO_InitStruct);
 8000cb4:	4e23      	ldr	r6, [pc, #140]	@ (8000d44 <HAL_SPI_MspInit+0xe0>)
 8000cb6:	a902      	add	r1, sp, #8
 8000cb8:	4630      	mov	r0, r6
 8000cba:	f000 ff87 	bl	8001bcc <HAL_GPIO_Init>
    GPIO_InitStruct.Pin = GPIO_PIN_6;
 8000cbe:	2340      	movs	r3, #64	@ 0x40
 8000cc0:	9302      	str	r3, [sp, #8]
    GPIO_InitStruct.Mode = GPIO_MODE_INPUT;
 8000cc2:	2500      	movs	r5, #0
 8000cc4:	9503      	str	r5, [sp, #12]
    GPIO_InitStruct.Pull = GPIO_NOPULL;
 8000cc6:	9504      	str	r5, [sp, #16]
    HAL_GPIO_Init(GPIOA, &GPIO_InitStruct);
 8000cc8:	a902      	add	r1, sp, #8
 8000cca:	4630      	mov	r0, r6
 8000ccc:	f000 ff7e 	bl	8001bcc <HAL_GPIO_Init>
    hdma_spi1_rx.Instance = DMA1_Channel2;
 8000cd0:	481d      	ldr	r0, [pc, #116]	@ (8000d48 <HAL_SPI_MspInit+0xe4>)
 8000cd2:	4b1e      	ldr	r3, [pc, #120]	@ (8000d4c <HAL_SPI_MspInit+0xe8>)
 8000cd4:	6003      	str	r3, [r0, #0]
    hdma_spi1_rx.Init.Direction = DMA_PERIPH_TO_MEMORY;
 8000cd6:	6045      	str	r5, [r0, #4]
    hdma_spi1_rx.Init.PeriphInc = DMA_PINC_DISABLE;
 8000cd8:	6085      	str	r5, [r0, #8]
    hdma_spi1_rx.Init.MemInc = DMA_MINC_ENABLE;
 8000cda:	2380      	movs	r3, #128	@ 0x80
 8000cdc:	60c3      	str	r3, [r0, #12]
    hdma_spi1_rx.Init.PeriphDataAlignment = DMA_PDATAALIGN_HALFWORD;
 8000cde:	f44f 7380 	mov.w	r3, #256	@ 0x100
 8000ce2:	6103      	str	r3, [r0, #16]
    hdma_spi1_rx.Init.MemDataAlignment = DMA_MDATAALIGN_HALFWORD;
 8000ce4:	f44f 6380 	mov.w	r3, #1024	@ 0x400
 8000ce8:	6143      	str	r3, [r0, #20]
    hdma_spi1_rx.Init.Mode = DMA_NORMAL;
 8000cea:	6185      	str	r5, [r0, #24]
    hdma_spi1_rx.Init.Priority = DMA_PRIORITY_MEDIUM;
 8000cec:	f44f 5380 	mov.w	r3, #4096	@ 0x1000
 8000cf0:	61c3      	str	r3, [r0, #28]
    if (HAL_DMA_Init(&hdma_spi1_rx) != HAL_OK)
 8000cf2:	f000 fe59 	bl	80019a8 <HAL_DMA_Init>
 8000cf6:	b9e0      	cbnz	r0, 8000d32 <HAL_SPI_MspInit+0xce>
    __HAL_LINKDMA(spiHandle,hdmarx,hdma_spi1_rx);
 8000cf8:	4b13      	ldr	r3, [pc, #76]	@ (8000d48 <HAL_SPI_MspInit+0xe4>)
 8000cfa:	64e3      	str	r3, [r4, #76]	@ 0x4c
 8000cfc:	625c      	str	r4, [r3, #36]	@ 0x24
    hdma_spi1_tx.Instance = DMA1_Channel3;
 8000cfe:	4814      	ldr	r0, [pc, #80]	@ (8000d50 <HAL_SPI_MspInit+0xec>)
 8000d00:	4b14      	ldr	r3, [pc, #80]	@ (8000d54 <HAL_SPI_MspInit+0xf0>)
 8000d02:	6003      	str	r3, [r0, #0]
    hdma_spi1_tx.Init.Direction = DMA_MEMORY_TO_PERIPH;
 8000d04:	2310      	movs	r3, #16
 8000d06:	6043      	str	r3, [r0, #4]
    hdma_spi1_tx.Init.PeriphInc = DMA_PINC_DISABLE;
 8000d08:	2300      	movs	r3, #0
 8000d0a:	6083      	str	r3, [r0, #8]
    hdma_spi1_tx.Init.MemInc = DMA_MINC_ENABLE;
 8000d0c:	2280      	movs	r2, #128	@ 0x80
 8000d0e:	60c2      	str	r2, [r0, #12]
    hdma_spi1_tx.Init.PeriphDataAlignment = DMA_PDATAALIGN_HALFWORD;
 8000d10:	f44f 7280 	mov.w	r2, #256	@ 0x100
 8000d14:	6102      	str	r2, [r0, #16]
    hdma_spi1_tx.Init.MemDataAlignment = DMA_MDATAALIGN_HALFWORD;
 8000d16:	f44f 6280 	mov.w	r2, #1024	@ 0x400
 8000d1a:	6142      	str	r2, [r0, #20]
    hdma_spi1_tx.Init.Mode = DMA_NORMAL;
 8000d1c:	6183      	str	r3, [r0, #24]
    hdma_spi1_tx.Init.Priority = DMA_PRIORITY_MEDIUM;
 8000d1e:	f44f 5380 	mov.w	r3, #4096	@ 0x1000
 8000d22:	61c3      	str	r3, [r0, #28]
    if (HAL_DMA_Init(&hdma_spi1_tx) != HAL_OK)
 8000d24:	f000 fe40 	bl	80019a8 <HAL_DMA_Init>
 8000d28:	b930      	cbnz	r0, 8000d38 <HAL_SPI_MspInit+0xd4>
    __HAL_LINKDMA(spiHandle,hdmatx,hdma_spi1_tx);
 8000d2a:	4b09      	ldr	r3, [pc, #36]	@ (8000d50 <HAL_SPI_MspInit+0xec>)
 8000d2c:	64a3      	str	r3, [r4, #72]	@ 0x48
 8000d2e:	625c      	str	r4, [r3, #36]	@ 0x24
}
 8000d30:	e7a3      	b.n	8000c7a <HAL_SPI_MspInit+0x16>
      Error_Handler();
 8000d32:	f7ff fe0d 	bl	8000950 <Error_Handler>
 8000d36:	e7df      	b.n	8000cf8 <HAL_SPI_MspInit+0x94>
      Error_Handler();
 8000d38:	f7ff fe0a 	bl	8000950 <Error_Handler>
 8000d3c:	e7f5      	b.n	8000d2a <HAL_SPI_MspInit+0xc6>
 8000d3e:	bf00      	nop
 8000d40:	40013000 	.word	0x40013000
 8000d44:	40010800 	.word	0x40010800
 8000d48:	2000018c 	.word	0x2000018c
 8000d4c:	4002001c 	.word	0x4002001c
 8000d50:	20000148 	.word	0x20000148
 8000d54:	40020030 	.word	0x40020030

08000d58 <HAL_MspInit>:
/* USER CODE END 0 */
/**
  * Initializes the Global MSP.
  */
void HAL_MspInit(void)
{
 8000d58:	b082      	sub	sp, #8

  /* USER CODE BEGIN MspInit 0 */

  /* USER CODE END MspInit 0 */

  __HAL_RCC_AFIO_CLK_ENABLE();
 8000d5a:	4b0e      	ldr	r3, [pc, #56]	@ (8000d94 <HAL_MspInit+0x3c>)
 8000d5c:	699a      	ldr	r2, [r3, #24]
 8000d5e:	f042 0201 	orr.w	r2, r2, #1
 8000d62:	619a      	str	r2, [r3, #24]
 8000d64:	699a      	ldr	r2, [r3, #24]
 8000d66:	f002 0201 	and.w	r2, r2, #1
 8000d6a:	9200      	str	r2, [sp, #0]
 8000d6c:	9a00      	ldr	r2, [sp, #0]
  __HAL_RCC_PWR_CLK_ENABLE();
 8000d6e:	69da      	ldr	r2, [r3, #28]
 8000d70:	f042 5280 	orr.w	r2, r2, #268435456	@ 0x10000000
 8000d74:	61da      	str	r2, [r3, #28]
 8000d76:	69db      	ldr	r3, [r3, #28]
 8000d78:	f003 5380 	and.w	r3, r3, #268435456	@ 0x10000000
 8000d7c:	9301      	str	r3, [sp, #4]
 8000d7e:	9b01      	ldr	r3, [sp, #4]

  /* System interrupt init*/

  /** NOJTAG: JTAG-DP Disabled and SW-DP Enabled
  */
  __HAL_AFIO_REMAP_SWJ_NOJTAG();
 8000d80:	4a05      	ldr	r2, [pc, #20]	@ (8000d98 <HAL_MspInit+0x40>)
 8000d82:	6853      	ldr	r3, [r2, #4]
 8000d84:	f023 63e0 	bic.w	r3, r3, #117440512	@ 0x7000000
 8000d88:	f043 7300 	orr.w	r3, r3, #33554432	@ 0x2000000
 8000d8c:	6053      	str	r3, [r2, #4]

  /* USER CODE BEGIN MspInit 1 */

  /* USER CODE END MspInit 1 */
}
 8000d8e:	b002      	add	sp, #8
 8000d90:	4770      	bx	lr
 8000d92:	bf00      	nop
 8000d94:	40021000 	.word	0x40021000
 8000d98:	40010000 	.word	0x40010000

08000d9c <NMI_Handler>:
{
  /* USER CODE BEGIN NonMaskableInt_IRQn 0 */

  /* USER CODE END NonMaskableInt_IRQn 0 */
  /* USER CODE BEGIN NonMaskableInt_IRQn 1 */
   while (1)
 8000d9c:	e7fe      	b.n	8000d9c <NMI_Handler>

08000d9e <HardFault_Handler>:
void HardFault_Handler(void)
{
  /* USER CODE BEGIN HardFault_IRQn 0 */

  /* USER CODE END HardFault_IRQn 0 */
  while (1)
 8000d9e:	e7fe      	b.n	8000d9e <HardFault_Handler>

08000da0 <MemManage_Handler>:
void MemManage_Handler(void)
{
  /* USER CODE BEGIN MemoryManagement_IRQn 0 */

  /* USER CODE END MemoryManagement_IRQn 0 */
  while (1)
 8000da0:	e7fe      	b.n	8000da0 <MemManage_Handler>

08000da2 <BusFault_Handler>:
void BusFault_Handler(void)
{
  /* USER CODE BEGIN BusFault_IRQn 0 */

  /* USER CODE END BusFault_IRQn 0 */
  while (1)
 8000da2:	e7fe      	b.n	8000da2 <BusFault_Handler>

08000da4 <UsageFault_Handler>:
void UsageFault_Handler(void)
{
  /* USER CODE BEGIN UsageFault_IRQn 0 */

  /* USER CODE END UsageFault_IRQn 0 */
  while (1)
 8000da4:	e7fe      	b.n	8000da4 <UsageFault_Handler>

08000da6 <SVC_Handler>:

  /* USER CODE END SVCall_IRQn 0 */
  /* USER CODE BEGIN SVCall_IRQn 1 */

  /* USER CODE END SVCall_IRQn 1 */
}
 8000da6:	4770      	bx	lr

08000da8 <DebugMon_Handler>:

  /* USER CODE END DebugMonitor_IRQn 0 */
  /* USER CODE BEGIN DebugMonitor_IRQn 1 */

  /* USER CODE END DebugMonitor_IRQn 1 */
}
 8000da8:	4770      	bx	lr

08000daa <PendSV_Handler>:

  /* USER CODE END PendSV_IRQn 0 */
  /* USER CODE BEGIN PendSV_IRQn 1 */

  /* USER CODE END PendSV_IRQn 1 */
}
 8000daa:	4770      	bx	lr

08000dac <SysTick_Handler>:

/**
  * @brief This function handles System tick timer.
  */
void SysTick_Handler(void)
{
 8000dac:	b508      	push	{r3, lr}
  /* USER CODE BEGIN SysTick_IRQn 0 */

  /* USER CODE END SysTick_IRQn 0 */
  HAL_IncTick();
 8000dae:	f000 fadd 	bl	800136c <HAL_IncTick>
  /* USER CODE BEGIN SysTick_IRQn 1 */

  /* USER CODE END SysTick_IRQn 1 */
}
 8000db2:	bd08      	pop	{r3, pc}

08000db4 <DMA1_Channel1_IRQHandler>:

/**
  * @brief This function handles DMA1 channel1 global interrupt.
  */
void DMA1_Channel1_IRQHandler(void)
{
 8000db4:	b508      	push	{r3, lr}
  /* USER CODE BEGIN DMA1_Channel1_IRQn 0 */

  /* USER CODE END DMA1_Channel1_IRQn 0 */
  HAL_DMA_IRQHandler(&hdma_adc1);
 8000db6:	4802      	ldr	r0, [pc, #8]	@ (8000dc0 <DMA1_Channel1_IRQHandler+0xc>)
 8000db8:	f000 fe66 	bl	8001a88 <HAL_DMA_IRQHandler>
  /* USER CODE BEGIN DMA1_Channel1_IRQn 1 */

  /* USER CODE END DMA1_Channel1_IRQn 1 */
}
 8000dbc:	bd08      	pop	{r3, pc}
 8000dbe:	bf00      	nop
 8000dc0:	200000a4 	.word	0x200000a4

08000dc4 <DMA1_Channel2_IRQHandler>:

/**
  * @brief This function handles DMA1 channel2 global interrupt.
  */
void DMA1_Channel2_IRQHandler(void)
{
 8000dc4:	b508      	push	{r3, lr}
  /* USER CODE BEGIN DMA1_Channel2_IRQn 0 */

  /* USER CODE END DMA1_Channel2_IRQn 0 */
  HAL_DMA_IRQHandler(&hdma_spi1_rx);
 8000dc6:	4802      	ldr	r0, [pc, #8]	@ (8000dd0 <DMA1_Channel2_IRQHandler+0xc>)
 8000dc8:	f000 fe5e 	bl	8001a88 <HAL_DMA_IRQHandler>
  /* USER CODE BEGIN DMA1_Channel2_IRQn 1 */

  /* USER CODE END DMA1_Channel2_IRQn 1 */
}
 8000dcc:	bd08      	pop	{r3, pc}
 8000dce:	bf00      	nop
 8000dd0:	2000018c 	.word	0x2000018c

08000dd4 <DMA1_Channel3_IRQHandler>:

/**
  * @brief This function handles DMA1 channel3 global interrupt.
  */
void DMA1_Channel3_IRQHandler(void)
{
 8000dd4:	b508      	push	{r3, lr}
  /* USER CODE BEGIN DMA1_Channel3_IRQn 0 */

  /* USER CODE END DMA1_Channel3_IRQn 0 */
  HAL_DMA_IRQHandler(&hdma_spi1_tx);
 8000dd6:	4802      	ldr	r0, [pc, #8]	@ (8000de0 <DMA1_Channel3_IRQHandler+0xc>)
 8000dd8:	f000 fe56 	bl	8001a88 <HAL_DMA_IRQHandler>
  /* USER CODE BEGIN DMA1_Channel3_IRQn 1 */

  /* USER CODE END DMA1_Channel3_IRQn 1 */
}
 8000ddc:	bd08      	pop	{r3, pc}
 8000dde:	bf00      	nop
 8000de0:	20000148 	.word	0x20000148

08000de4 <DMA1_Channel4_IRQHandler>:

/**
  * @brief This function handles DMA1 channel4 global interrupt.
  */
void DMA1_Channel4_IRQHandler(void)
{
 8000de4:	b508      	push	{r3, lr}
  /* USER CODE BEGIN DMA1_Channel4_IRQn 0 */

  /* USER CODE END DMA1_Channel4_IRQn 0 */
  HAL_DMA_IRQHandler(&hdma_usart1_tx);
 8000de6:	4802      	ldr	r0, [pc, #8]	@ (8000df0 <DMA1_Channel4_IRQHandler+0xc>)
 8000de8:	f000 fe4e 	bl	8001a88 <HAL_DMA_IRQHandler>
  /* USER CODE BEGIN DMA1_Channel4_IRQn 1 */

  /* USER CODE END DMA1_Channel4_IRQn 1 */
}
 8000dec:	bd08      	pop	{r3, pc}
 8000dee:	bf00      	nop
 8000df0:	2000038c 	.word	0x2000038c

08000df4 <DMA1_Channel5_IRQHandler>:

/**
  * @brief This function handles DMA1 channel5 global interrupt.
  */
void DMA1_Channel5_IRQHandler(void)
{
 8000df4:	b508      	push	{r3, lr}
  /* USER CODE BEGIN DMA1_Channel5_IRQn 0 */

  /* USER CODE END DMA1_Channel5_IRQn 0 */
  HAL_DMA_IRQHandler(&hdma_usart1_rx);
 8000df6:	4802      	ldr	r0, [pc, #8]	@ (8000e00 <DMA1_Channel5_IRQHandler+0xc>)
 8000df8:	f000 fe46 	bl	8001a88 <HAL_DMA_IRQHandler>
  /* USER CODE BEGIN DMA1_Channel5_IRQn 1 */

  /* USER CODE END DMA1_Channel5_IRQn 1 */
}
 8000dfc:	bd08      	pop	{r3, pc}
 8000dfe:	bf00      	nop
 8000e00:	20000348 	.word	0x20000348

08000e04 <TIM3_IRQHandler>:

/**
  * @brief This function handles TIM3 global interrupt.
  */
void TIM3_IRQHandler(void)
{
 8000e04:	b508      	push	{r3, lr}
  /* USER CODE BEGIN TIM3_IRQn 0 */

  /* USER CODE END TIM3_IRQn 0 */
  HAL_TIM_IRQHandler(&htim3);
 8000e06:	4802      	ldr	r0, [pc, #8]	@ (8000e10 <TIM3_IRQHandler+0xc>)
 8000e08:	f002 f944 	bl	8003094 <HAL_TIM_IRQHandler>
  /* USER CODE BEGIN TIM3_IRQn 1 */

  /* USER CODE END TIM3_IRQn 1 */
}
 8000e0c:	bd08      	pop	{r3, pc}
 8000e0e:	bf00      	nop
 8000e10:	20000270 	.word	0x20000270

08000e14 <SystemInit>:

  /* Configure the Vector Table location -------------------------------------*/
#if defined(USER_VECT_TAB_ADDRESS)
  SCB->VTOR = VECT_TAB_BASE_ADDRESS | VECT_TAB_OFFSET; /* Vector Table Relocation in Internal SRAM. */
#endif /* USER_VECT_TAB_ADDRESS */
}
 8000e14:	4770      	bx	lr
	...

08000e18 <MX_TIM1_Init>:
TIM_HandleTypeDef htim3;
TIM_HandleTypeDef htim4;

/* TIM1 init function */
void MX_TIM1_Init(void)
{
 8000e18:	b500      	push	{lr}
 8000e1a:	b08d      	sub	sp, #52	@ 0x34

  /* USER CODE BEGIN TIM1_Init 0 */

  /* USER CODE END TIM1_Init 0 */

  TIM_Encoder_InitTypeDef sConfig = {0};
 8000e1c:	2224      	movs	r2, #36	@ 0x24
 8000e1e:	2100      	movs	r1, #0
 8000e20:	a803      	add	r0, sp, #12
 8000e22:	f002 fd60 	bl	80038e6 <memset>
  TIM_MasterConfigTypeDef sMasterConfig = {0};
 8000e26:	2300      	movs	r3, #0
 8000e28:	9301      	str	r3, [sp, #4]
 8000e2a:	9302      	str	r3, [sp, #8]

  /* USER CODE BEGIN TIM1_Init 1 */

  /* USER CODE END TIM1_Init 1 */
  htim1.Instance = TIM1;
 8000e2c:	4811      	ldr	r0, [pc, #68]	@ (8000e74 <MX_TIM1_Init+0x5c>)
 8000e2e:	4a12      	ldr	r2, [pc, #72]	@ (8000e78 <MX_TIM1_Init+0x60>)
 8000e30:	6002      	str	r2, [r0, #0]
  htim1.Init.Prescaler = 0;
 8000e32:	6043      	str	r3, [r0, #4]
  htim1.Init.CounterMode = TIM_COUNTERMODE_UP;
 8000e34:	6083      	str	r3, [r0, #8]
  htim1.Init.Period = 65535;
 8000e36:	f64f 72ff 	movw	r2, #65535	@ 0xffff
 8000e3a:	60c2      	str	r2, [r0, #12]
  htim1.Init.ClockDivision = TIM_CLOCKDIVISION_DIV1;
 8000e3c:	6103      	str	r3, [r0, #16]
  htim1.Init.RepetitionCounter = 0;
 8000e3e:	6143      	str	r3, [r0, #20]
  htim1.Init.AutoReloadPreload = TIM_AUTORELOAD_PRELOAD_DISABLE;
 8000e40:	6183      	str	r3, [r0, #24]
  sConfig.EncoderMode = TIM_ENCODERMODE_TI1;
 8000e42:	2301      	movs	r3, #1
 8000e44:	9303      	str	r3, [sp, #12]
  sConfig.IC1Polarity = TIM_ICPOLARITY_RISING;
  sConfig.IC1Selection = TIM_ICSELECTION_DIRECTTI;
 8000e46:	9305      	str	r3, [sp, #20]
  sConfig.IC1Prescaler = TIM_ICPSC_DIV1;
  sConfig.IC1Filter = 0;
  sConfig.IC2Polarity = TIM_ICPOLARITY_RISING;
  sConfig.IC2Selection = TIM_ICSELECTION_DIRECTTI;
 8000e48:	9309      	str	r3, [sp, #36]	@ 0x24
  sConfig.IC2Prescaler = TIM_ICPSC_DIV1;
  sConfig.IC2Filter = 0;
  if (HAL_TIM_Encoder_Init(&htim1, &sConfig) != HAL_OK)
 8000e4a:	a903      	add	r1, sp, #12
 8000e4c:	f002 fa6c 	bl	8003328 <HAL_TIM_Encoder_Init>
 8000e50:	b950      	cbnz	r0, 8000e68 <MX_TIM1_Init+0x50>
  {
    Error_Handler();
  }
  sMasterConfig.MasterOutputTrigger = TIM_TRGO_RESET;
 8000e52:	2300      	movs	r3, #0
 8000e54:	9301      	str	r3, [sp, #4]
  sMasterConfig.MasterSlaveMode = TIM_MASTERSLAVEMODE_DISABLE;
 8000e56:	9302      	str	r3, [sp, #8]
  if (HAL_TIMEx_MasterConfigSynchronization(&htim1, &sMasterConfig) != HAL_OK)
 8000e58:	a901      	add	r1, sp, #4
 8000e5a:	4806      	ldr	r0, [pc, #24]	@ (8000e74 <MX_TIM1_Init+0x5c>)
 8000e5c:	f002 fc6c 	bl	8003738 <HAL_TIMEx_MasterConfigSynchronization>
 8000e60:	b928      	cbnz	r0, 8000e6e <MX_TIM1_Init+0x56>
  }
  /* USER CODE BEGIN TIM1_Init 2 */

  /* USER CODE END TIM1_Init 2 */

}
 8000e62:	b00d      	add	sp, #52	@ 0x34
 8000e64:	f85d fb04 	ldr.w	pc, [sp], #4
    Error_Handler();
 8000e68:	f7ff fd72 	bl	8000950 <Error_Handler>
 8000e6c:	e7f1      	b.n	8000e52 <MX_TIM1_Init+0x3a>
    Error_Handler();
 8000e6e:	f7ff fd6f 	bl	8000950 <Error_Handler>
}
 8000e72:	e7f6      	b.n	8000e62 <MX_TIM1_Init+0x4a>
 8000e74:	20000300 	.word	0x20000300
 8000e78:	40012c00 	.word	0x40012c00

08000e7c <MX_TIM2_Init>:
/* TIM2 init function */
void MX_TIM2_Init(void)
{
 8000e7c:	b500      	push	{lr}
 8000e7e:	b08d      	sub	sp, #52	@ 0x34

  /* USER CODE BEGIN TIM2_Init 0 */

  /* USER CODE END TIM2_Init 0 */

  TIM_Encoder_InitTypeDef sConfig = {0};
 8000e80:	2224      	movs	r2, #36	@ 0x24
 8000e82:	2100      	movs	r1, #0
 8000e84:	a803      	add	r0, sp, #12
 8000e86:	f002 fd2e 	bl	80038e6 <memset>
  TIM_MasterConfigTypeDef sMasterConfig = {0};
 8000e8a:	2300      	movs	r3, #0
 8000e8c:	9301      	str	r3, [sp, #4]
 8000e8e:	9302      	str	r3, [sp, #8]

  /* USER CODE BEGIN TIM2_Init 1 */

  /* USER CODE END TIM2_Init 1 */
  htim2.Instance = TIM2;
 8000e90:	4811      	ldr	r0, [pc, #68]	@ (8000ed8 <MX_TIM2_Init+0x5c>)
 8000e92:	f04f 4280 	mov.w	r2, #1073741824	@ 0x40000000
 8000e96:	6002      	str	r2, [r0, #0]
  htim2.Init.Prescaler = 0;
 8000e98:	6043      	str	r3, [r0, #4]
  htim2.Init.CounterMode = TIM_COUNTERMODE_UP;
 8000e9a:	6083      	str	r3, [r0, #8]
  htim2.Init.Period = 65535;
 8000e9c:	f64f 72ff 	movw	r2, #65535	@ 0xffff
 8000ea0:	60c2      	str	r2, [r0, #12]
  htim2.Init.ClockDivision = TIM_CLOCKDIVISION_DIV1;
 8000ea2:	6103      	str	r3, [r0, #16]
  htim2.Init.AutoReloadPreload = TIM_AUTORELOAD_PRELOAD_DISABLE;
 8000ea4:	6183      	str	r3, [r0, #24]
  sConfig.EncoderMode = TIM_ENCODERMODE_TI1;
 8000ea6:	2301      	movs	r3, #1
 8000ea8:	9303      	str	r3, [sp, #12]
  sConfig.IC1Polarity = TIM_ICPOLARITY_RISING;
  sConfig.IC1Selection = TIM_ICSELECTION_DIRECTTI;
 8000eaa:	9305      	str	r3, [sp, #20]
  sConfig.IC1Prescaler = TIM_ICPSC_DIV1;
  sConfig.IC1Filter = 0;
  sConfig.IC2Polarity = TIM_ICPOLARITY_RISING;
  sConfig.IC2Selection = TIM_ICSELECTION_DIRECTTI;
 8000eac:	9309      	str	r3, [sp, #36]	@ 0x24
  sConfig.IC2Prescaler = TIM_ICPSC_DIV1;
  sConfig.IC2Filter = 0;
  if (HAL_TIM_Encoder_Init(&htim2, &sConfig) != HAL_OK)
 8000eae:	a903      	add	r1, sp, #12
 8000eb0:	f002 fa3a 	bl	8003328 <HAL_TIM_Encoder_Init>
 8000eb4:	b950      	cbnz	r0, 8000ecc <MX_TIM2_Init+0x50>
  {
    Error_Handler();
  }
  sMasterConfig.MasterOutputTrigger = TIM_TRGO_RESET;
 8000eb6:	2300      	movs	r3, #0
 8000eb8:	9301      	str	r3, [sp, #4]
  sMasterConfig.MasterSlaveMode = TIM_MASTERSLAVEMODE_DISABLE;
 8000eba:	9302      	str	r3, [sp, #8]
  if (HAL_TIMEx_MasterConfigSynchronization(&htim2, &sMasterConfig) != HAL_OK)
 8000ebc:	a901      	add	r1, sp, #4
 8000ebe:	4806      	ldr	r0, [pc, #24]	@ (8000ed8 <MX_TIM2_Init+0x5c>)
 8000ec0:	f002 fc3a 	bl	8003738 <HAL_TIMEx_MasterConfigSynchronization>
 8000ec4:	b928      	cbnz	r0, 8000ed2 <MX_TIM2_Init+0x56>
  }
  /* USER CODE BEGIN TIM2_Init 2 */

  /* USER CODE END TIM2_Init 2 */

}
 8000ec6:	b00d      	add	sp, #52	@ 0x34
 8000ec8:	f85d fb04 	ldr.w	pc, [sp], #4
    Error_Handler();
 8000ecc:	f7ff fd40 	bl	8000950 <Error_Handler>
 8000ed0:	e7f1      	b.n	8000eb6 <MX_TIM2_Init+0x3a>
    Error_Handler();
 8000ed2:	f7ff fd3d 	bl	8000950 <Error_Handler>
}
 8000ed6:	e7f6      	b.n	8000ec6 <MX_TIM2_Init+0x4a>
 8000ed8:	200002b8 	.word	0x200002b8

08000edc <MX_TIM4_Init>:
  HAL_TIM_MspPostInit(&htim3);

}
/* TIM4 init function */
void MX_TIM4_Init(void)
{
 8000edc:	b500      	push	{lr}
 8000ede:	b087      	sub	sp, #28

  /* USER CODE BEGIN TIM4_Init 0 */

  /* USER CODE END TIM4_Init 0 */

  TIM_MasterConfigTypeDef sMasterConfig = {0};
 8000ee0:	2300      	movs	r3, #0
 8000ee2:	9304      	str	r3, [sp, #16]
 8000ee4:	9305      	str	r3, [sp, #20]
  TIM_IC_InitTypeDef sConfigIC = {0};
 8000ee6:	9300      	str	r3, [sp, #0]
 8000ee8:	9301      	str	r3, [sp, #4]
 8000eea:	9302      	str	r3, [sp, #8]
 8000eec:	9303      	str	r3, [sp, #12]

  /* USER CODE BEGIN TIM4_Init 1 */

  /* USER CODE END TIM4_Init 1 */
  htim4.Instance = TIM4;
 8000eee:	481b      	ldr	r0, [pc, #108]	@ (8000f5c <MX_TIM4_Init+0x80>)
 8000ef0:	4a1b      	ldr	r2, [pc, #108]	@ (8000f60 <MX_TIM4_Init+0x84>)
 8000ef2:	6002      	str	r2, [r0, #0]
  htim4.Init.Prescaler = 0;
 8000ef4:	6043      	str	r3, [r0, #4]
  htim4.Init.CounterMode = TIM_COUNTERMODE_UP;
 8000ef6:	6083      	str	r3, [r0, #8]
  htim4.Init.Period = 65535;
 8000ef8:	f64f 72ff 	movw	r2, #65535	@ 0xffff
 8000efc:	60c2      	str	r2, [r0, #12]
  htim4.Init.ClockDivision = TIM_CLOCKDIVISION_DIV1;
 8000efe:	6103      	str	r3, [r0, #16]
  htim4.Init.AutoReloadPreload = TIM_AUTORELOAD_PRELOAD_DISABLE;
 8000f00:	6183      	str	r3, [r0, #24]
  if (HAL_TIM_IC_Init(&htim4) != HAL_OK)
 8000f02:	f002 f9e5 	bl	80032d0 <HAL_TIM_IC_Init>
 8000f06:	b9e0      	cbnz	r0, 8000f42 <MX_TIM4_Init+0x66>
  {
    Error_Handler();
  }
  sMasterConfig.MasterOutputTrigger = TIM_TRGO_RESET;
 8000f08:	2300      	movs	r3, #0
 8000f0a:	9304      	str	r3, [sp, #16]
  sMasterConfig.MasterSlaveMode = TIM_MASTERSLAVEMODE_DISABLE;
 8000f0c:	9305      	str	r3, [sp, #20]
  if (HAL_TIMEx_MasterConfigSynchronization(&htim4, &sMasterConfig) != HAL_OK)
 8000f0e:	a904      	add	r1, sp, #16
 8000f10:	4812      	ldr	r0, [pc, #72]	@ (8000f5c <MX_TIM4_Init+0x80>)
 8000f12:	f002 fc11 	bl	8003738 <HAL_TIMEx_MasterConfigSynchronization>
 8000f16:	b9b8      	cbnz	r0, 8000f48 <MX_TIM4_Init+0x6c>
  {
    Error_Handler();
  }
  sConfigIC.ICPolarity = TIM_INPUTCHANNELPOLARITY_RISING;
 8000f18:	2300      	movs	r3, #0
 8000f1a:	9300      	str	r3, [sp, #0]
  sConfigIC.ICSelection = TIM_ICSELECTION_DIRECTTI;
 8000f1c:	2201      	movs	r2, #1
 8000f1e:	9201      	str	r2, [sp, #4]
  sConfigIC.ICPrescaler = TIM_ICPSC_DIV1;
 8000f20:	9302      	str	r3, [sp, #8]
  sConfigIC.ICFilter = 0;
 8000f22:	9303      	str	r3, [sp, #12]
  if (HAL_TIM_IC_ConfigChannel(&htim4, &sConfigIC, TIM_CHANNEL_3) != HAL_OK)
 8000f24:	2208      	movs	r2, #8
 8000f26:	4669      	mov	r1, sp
 8000f28:	480c      	ldr	r0, [pc, #48]	@ (8000f5c <MX_TIM4_Init+0x80>)
 8000f2a:	f002 fb21 	bl	8003570 <HAL_TIM_IC_ConfigChannel>
 8000f2e:	b970      	cbnz	r0, 8000f4e <MX_TIM4_Init+0x72>
  {
    Error_Handler();
  }
  if (HAL_TIM_IC_ConfigChannel(&htim4, &sConfigIC, TIM_CHANNEL_4) != HAL_OK)
 8000f30:	220c      	movs	r2, #12
 8000f32:	4669      	mov	r1, sp
 8000f34:	4809      	ldr	r0, [pc, #36]	@ (8000f5c <MX_TIM4_Init+0x80>)
 8000f36:	f002 fb1b 	bl	8003570 <HAL_TIM_IC_ConfigChannel>
 8000f3a:	b958      	cbnz	r0, 8000f54 <MX_TIM4_Init+0x78>
  }
  /* USER CODE BEGIN TIM4_Init 2 */

  /* USER CODE END TIM4_Init 2 */

}
 8000f3c:	b007      	add	sp, #28
 8000f3e:	f85d fb04 	ldr.w	pc, [sp], #4
    Error_Handler();
 8000f42:	f7ff fd05 	bl	8000950 <Error_Handler>
 8000f46:	e7df      	b.n	8000f08 <MX_TIM4_Init+0x2c>
    Error_Handler();
 8000f48:	f7ff fd02 	bl	8000950 <Error_Handler>
 8000f4c:	e7e4      	b.n	8000f18 <MX_TIM4_Init+0x3c>
    Error_Handler();
 8000f4e:	f7ff fcff 	bl	8000950 <Error_Handler>
 8000f52:	e7ed      	b.n	8000f30 <MX_TIM4_Init+0x54>
    Error_Handler();
 8000f54:	f7ff fcfc 	bl	8000950 <Error_Handler>
}
 8000f58:	e7f0      	b.n	8000f3c <MX_TIM4_Init+0x60>
 8000f5a:	bf00      	nop
 8000f5c:	20000228 	.word	0x20000228
 8000f60:	40000800 	.word	0x40000800

08000f64 <HAL_TIM_Encoder_MspInit>:

void HAL_TIM_Encoder_MspInit(TIM_HandleTypeDef* tim_encoderHandle)
{
 8000f64:	b500      	push	{lr}
 8000f66:	b08b      	sub	sp, #44	@ 0x2c

  GPIO_InitTypeDef GPIO_InitStruct = {0};
 8000f68:	2300      	movs	r3, #0
 8000f6a:	9306      	str	r3, [sp, #24]
 8000f6c:	9307      	str	r3, [sp, #28]
 8000f6e:	9308      	str	r3, [sp, #32]
 8000f70:	9309      	str	r3, [sp, #36]	@ 0x24
  if(tim_encoderHandle->Instance==TIM1)
 8000f72:	6803      	ldr	r3, [r0, #0]
 8000f74:	4a2d      	ldr	r2, [pc, #180]	@ (800102c <HAL_TIM_Encoder_MspInit+0xc8>)
 8000f76:	4293      	cmp	r3, r2
 8000f78:	d005      	beq.n	8000f86 <HAL_TIM_Encoder_MspInit+0x22>

  /* USER CODE BEGIN TIM1_MspInit 1 */

  /* USER CODE END TIM1_MspInit 1 */
  }
  else if(tim_encoderHandle->Instance==TIM2)
 8000f7a:	f1b3 4f80 	cmp.w	r3, #1073741824	@ 0x40000000
 8000f7e:	d01d      	beq.n	8000fbc <HAL_TIM_Encoder_MspInit+0x58>

  /* USER CODE BEGIN TIM2_MspInit 1 */

  /* USER CODE END TIM2_MspInit 1 */
  }
}
 8000f80:	b00b      	add	sp, #44	@ 0x2c
 8000f82:	f85d fb04 	ldr.w	pc, [sp], #4
    __HAL_RCC_TIM1_CLK_ENABLE();
 8000f86:	4b2a      	ldr	r3, [pc, #168]	@ (8001030 <HAL_TIM_Encoder_MspInit+0xcc>)
 8000f88:	699a      	ldr	r2, [r3, #24]
 8000f8a:	f442 6200 	orr.w	r2, r2, #2048	@ 0x800
 8000f8e:	619a      	str	r2, [r3, #24]
 8000f90:	699a      	ldr	r2, [r3, #24]
 8000f92:	f402 6200 	and.w	r2, r2, #2048	@ 0x800
 8000f96:	9201      	str	r2, [sp, #4]
 8000f98:	9a01      	ldr	r2, [sp, #4]
    __HAL_RCC_GPIOA_CLK_ENABLE();
 8000f9a:	699a      	ldr	r2, [r3, #24]
 8000f9c:	f042 0204 	orr.w	r2, r2, #4
 8000fa0:	619a      	str	r2, [r3, #24]
 8000fa2:	699b      	ldr	r3, [r3, #24]
 8000fa4:	f003 0304 	and.w	r3, r3, #4
 8000fa8:	9302      	str	r3, [sp, #8]
 8000faa:	9b02      	ldr	r3, [sp, #8]
    GPIO_InitStruct.Pin = ENC1_CH1_Pin|ENC1_CH2_Pin;
 8000fac:	f44f 7340 	mov.w	r3, #768	@ 0x300
 8000fb0:	9306      	str	r3, [sp, #24]
    HAL_GPIO_Init(GPIOA, &GPIO_InitStruct);
 8000fb2:	a906      	add	r1, sp, #24
 8000fb4:	481f      	ldr	r0, [pc, #124]	@ (8001034 <HAL_TIM_Encoder_MspInit+0xd0>)
 8000fb6:	f000 fe09 	bl	8001bcc <HAL_GPIO_Init>
 8000fba:	e7e1      	b.n	8000f80 <HAL_TIM_Encoder_MspInit+0x1c>
    __HAL_RCC_TIM2_CLK_ENABLE();
 8000fbc:	f503 3304 	add.w	r3, r3, #135168	@ 0x21000
 8000fc0:	69da      	ldr	r2, [r3, #28]
 8000fc2:	f042 0201 	orr.w	r2, r2, #1
 8000fc6:	61da      	str	r2, [r3, #28]
 8000fc8:	69da      	ldr	r2, [r3, #28]
 8000fca:	f002 0201 	and.w	r2, r2, #1
 8000fce:	9203      	str	r2, [sp, #12]
 8000fd0:	9a03      	ldr	r2, [sp, #12]
    __HAL_RCC_GPIOA_CLK_ENABLE();
 8000fd2:	699a      	ldr	r2, [r3, #24]
 8000fd4:	f042 0204 	orr.w	r2, r2, #4
 8000fd8:	619a      	str	r2, [r3, #24]
 8000fda:	699a      	ldr	r2, [r3, #24]
 8000fdc:	f002 0204 	and.w	r2, r2, #4
 8000fe0:	9204      	str	r2, [sp, #16]
 8000fe2:	9a04      	ldr	r2, [sp, #16]
    __HAL_RCC_GPIOB_CLK_ENABLE();
 8000fe4:	699a      	ldr	r2, [r3, #24]
 8000fe6:	f042 0208 	orr.w	r2, r2, #8
 8000fea:	619a      	str	r2, [r3, #24]
 8000fec:	699b      	ldr	r3, [r3, #24]
 8000fee:	f003 0308 	and.w	r3, r3, #8
 8000ff2:	9305      	str	r3, [sp, #20]
 8000ff4:	9b05      	ldr	r3, [sp, #20]
    GPIO_InitStruct.Pin = ENC2_CH1_Pin;
 8000ff6:	f44f 4300 	mov.w	r3, #32768	@ 0x8000
 8000ffa:	9306      	str	r3, [sp, #24]
    HAL_GPIO_Init(ENC2_CH1_GPIO_Port, &GPIO_InitStruct);
 8000ffc:	a906      	add	r1, sp, #24
 8000ffe:	480d      	ldr	r0, [pc, #52]	@ (8001034 <HAL_TIM_Encoder_MspInit+0xd0>)
 8001000:	f000 fde4 	bl	8001bcc <HAL_GPIO_Init>
    GPIO_InitStruct.Pin = ENC2_CH2_Pin;
 8001004:	2308      	movs	r3, #8
 8001006:	9306      	str	r3, [sp, #24]
    GPIO_InitStruct.Mode = GPIO_MODE_INPUT;
 8001008:	2300      	movs	r3, #0
 800100a:	9307      	str	r3, [sp, #28]
    GPIO_InitStruct.Pull = GPIO_NOPULL;
 800100c:	9308      	str	r3, [sp, #32]
    HAL_GPIO_Init(ENC2_CH2_GPIO_Port, &GPIO_InitStruct);
 800100e:	a906      	add	r1, sp, #24
 8001010:	4809      	ldr	r0, [pc, #36]	@ (8001038 <HAL_TIM_Encoder_MspInit+0xd4>)
 8001012:	f000 fddb 	bl	8001bcc <HAL_GPIO_Init>
    __HAL_AFIO_REMAP_TIM2_PARTIAL_1();
 8001016:	4a09      	ldr	r2, [pc, #36]	@ (800103c <HAL_TIM_Encoder_MspInit+0xd8>)
 8001018:	6853      	ldr	r3, [r2, #4]
 800101a:	f423 7340 	bic.w	r3, r3, #768	@ 0x300
 800101e:	f043 63e0 	orr.w	r3, r3, #117440512	@ 0x7000000
 8001022:	f443 7380 	orr.w	r3, r3, #256	@ 0x100
 8001026:	6053      	str	r3, [r2, #4]
}
 8001028:	e7aa      	b.n	8000f80 <HAL_TIM_Encoder_MspInit+0x1c>
 800102a:	bf00      	nop
 800102c:	40012c00 	.word	0x40012c00
 8001030:	40021000 	.word	0x40021000
 8001034:	40010800 	.word	0x40010800
 8001038:	40010c00 	.word	0x40010c00
 800103c:	40010000 	.word	0x40010000

08001040 <HAL_TIM_PWM_MspInit>:

void HAL_TIM_PWM_MspInit(TIM_HandleTypeDef* tim_pwmHandle)
{

  if(tim_pwmHandle->Instance==TIM3)
 8001040:	6802      	ldr	r2, [r0, #0]
 8001042:	4b0e      	ldr	r3, [pc, #56]	@ (800107c <HAL_TIM_PWM_MspInit+0x3c>)
 8001044:	429a      	cmp	r2, r3
 8001046:	d000      	beq.n	800104a <HAL_TIM_PWM_MspInit+0xa>
 8001048:	4770      	bx	lr
{
 800104a:	b500      	push	{lr}
 800104c:	b083      	sub	sp, #12
  {
  /* USER CODE BEGIN TIM3_MspInit 0 */

  /* USER CODE END TIM3_MspInit 0 */
    /* TIM3 clock enable */
    __HAL_RCC_TIM3_CLK_ENABLE();
 800104e:	f503 3303 	add.w	r3, r3, #134144	@ 0x20c00
 8001052:	69da      	ldr	r2, [r3, #28]
 8001054:	f042 0202 	orr.w	r2, r2, #2
 8001058:	61da      	str	r2, [r3, #28]
 800105a:	69db      	ldr	r3, [r3, #28]
 800105c:	f003 0302 	and.w	r3, r3, #2
 8001060:	9301      	str	r3, [sp, #4]
 8001062:	9b01      	ldr	r3, [sp, #4]

    /* TIM3 interrupt Init */
    HAL_NVIC_SetPriority(TIM3_IRQn, 0, 0);
 8001064:	2200      	movs	r2, #0
 8001066:	4611      	mov	r1, r2
 8001068:	201d      	movs	r0, #29
 800106a:	f000 fc55 	bl	8001918 <HAL_NVIC_SetPriority>
    HAL_NVIC_EnableIRQ(TIM3_IRQn);
 800106e:	201d      	movs	r0, #29
 8001070:	f000 fc62 	bl	8001938 <HAL_NVIC_EnableIRQ>
  /* USER CODE BEGIN TIM3_MspInit 1 */

  /* USER CODE END TIM3_MspInit 1 */
  }
}
 8001074:	b003      	add	sp, #12
 8001076:	f85d fb04 	ldr.w	pc, [sp], #4
 800107a:	bf00      	nop
 800107c:	40000400 	.word	0x40000400

08001080 <HAL_TIM_IC_MspInit>:

void HAL_TIM_IC_MspInit(TIM_HandleTypeDef* tim_icHandle)
{
 8001080:	b500      	push	{lr}
 8001082:	b087      	sub	sp, #28

  GPIO_InitTypeDef GPIO_InitStruct = {0};
 8001084:	2300      	movs	r3, #0
 8001086:	9302      	str	r3, [sp, #8]
 8001088:	9303      	str	r3, [sp, #12]
 800108a:	9304      	str	r3, [sp, #16]
 800108c:	9305      	str	r3, [sp, #20]
  if(tim_icHandle->Instance==TIM4)
 800108e:	6802      	ldr	r2, [r0, #0]
 8001090:	4b10      	ldr	r3, [pc, #64]	@ (80010d4 <HAL_TIM_IC_MspInit+0x54>)
 8001092:	429a      	cmp	r2, r3
 8001094:	d002      	beq.n	800109c <HAL_TIM_IC_MspInit+0x1c>

  /* USER CODE BEGIN TIM4_MspInit 1 */

  /* USER CODE END TIM4_MspInit 1 */
  }
}
 8001096:	b007      	add	sp, #28
 8001098:	f85d fb04 	ldr.w	pc, [sp], #4
    __HAL_RCC_TIM4_CLK_ENABLE();
 800109c:	f503 3302 	add.w	r3, r3, #133120	@ 0x20800
 80010a0:	69da      	ldr	r2, [r3, #28]
 80010a2:	f042 0204 	orr.w	r2, r2, #4
 80010a6:	61da      	str	r2, [r3, #28]
 80010a8:	69da      	ldr	r2, [r3, #28]
 80010aa:	f002 0204 	and.w	r2, r2, #4
 80010ae:	9200      	str	r2, [sp, #0]
 80010b0:	9a00      	ldr	r2, [sp, #0]
    __HAL_RCC_GPIOB_CLK_ENABLE();
 80010b2:	699a      	ldr	r2, [r3, #24]
 80010b4:	f042 0208 	orr.w	r2, r2, #8
 80010b8:	619a      	str	r2, [r3, #24]
 80010ba:	699b      	ldr	r3, [r3, #24]
 80010bc:	f003 0308 	and.w	r3, r3, #8
 80010c0:	9301      	str	r3, [sp, #4]
 80010c2:	9b01      	ldr	r3, [sp, #4]
    GPIO_InitStruct.Pin = ENC1_CH1_F_Pin|ENC2_CH1_F_Pin;
 80010c4:	f44f 7340 	mov.w	r3, #768	@ 0x300
 80010c8:	9302      	str	r3, [sp, #8]
    HAL_GPIO_Init(GPIOB, &GPIO_InitStruct);
 80010ca:	a902      	add	r1, sp, #8
 80010cc:	4802      	ldr	r0, [pc, #8]	@ (80010d8 <HAL_TIM_IC_MspInit+0x58>)
 80010ce:	f000 fd7d 	bl	8001bcc <HAL_GPIO_Init>
}
 80010d2:	e7e0      	b.n	8001096 <HAL_TIM_IC_MspInit+0x16>
 80010d4:	40000800 	.word	0x40000800
 80010d8:	40010c00 	.word	0x40010c00

080010dc <HAL_TIM_MspPostInit>:
void HAL_TIM_MspPostInit(TIM_HandleTypeDef* timHandle)
{
 80010dc:	b500      	push	{lr}
 80010de:	b087      	sub	sp, #28

  GPIO_InitTypeDef GPIO_InitStruct = {0};
 80010e0:	2300      	movs	r3, #0
 80010e2:	9302      	str	r3, [sp, #8]
 80010e4:	9303      	str	r3, [sp, #12]
 80010e6:	9304      	str	r3, [sp, #16]
 80010e8:	9305      	str	r3, [sp, #20]
  if(timHandle->Instance==TIM3)
 80010ea:	6802      	ldr	r2, [r0, #0]
 80010ec:	4b10      	ldr	r3, [pc, #64]	@ (8001130 <HAL_TIM_MspPostInit+0x54>)
 80010ee:	429a      	cmp	r2, r3
 80010f0:	d002      	beq.n	80010f8 <HAL_TIM_MspPostInit+0x1c>
  /* USER CODE BEGIN TIM3_MspPostInit 1 */

  /* USER CODE END TIM3_MspPostInit 1 */
  }

}
 80010f2:	b007      	add	sp, #28
 80010f4:	f85d fb04 	ldr.w	pc, [sp], #4
    __HAL_RCC_GPIOC_CLK_ENABLE();
 80010f8:	f503 3303 	add.w	r3, r3, #134144	@ 0x20c00
 80010fc:	699a      	ldr	r2, [r3, #24]
 80010fe:	f042 0210 	orr.w	r2, r2, #16
 8001102:	619a      	str	r2, [r3, #24]
 8001104:	699b      	ldr	r3, [r3, #24]
 8001106:	f003 0310 	and.w	r3, r3, #16
 800110a:	9301      	str	r3, [sp, #4]
 800110c:	9b01      	ldr	r3, [sp, #4]
    GPIO_InitStruct.Pin = PWM1_Pin|PWM2_Pin;
 800110e:	23c0      	movs	r3, #192	@ 0xc0
 8001110:	9302      	str	r3, [sp, #8]
    GPIO_InitStruct.Mode = GPIO_MODE_AF_PP;
 8001112:	2302      	movs	r3, #2
 8001114:	9303      	str	r3, [sp, #12]
    GPIO_InitStruct.Speed = GPIO_SPEED_FREQ_LOW;
 8001116:	9305      	str	r3, [sp, #20]
    HAL_GPIO_Init(GPIOC, &GPIO_InitStruct);
 8001118:	a902      	add	r1, sp, #8
 800111a:	4806      	ldr	r0, [pc, #24]	@ (8001134 <HAL_TIM_MspPostInit+0x58>)
 800111c:	f000 fd56 	bl	8001bcc <HAL_GPIO_Init>
    __HAL_AFIO_REMAP_TIM3_ENABLE();
 8001120:	4a05      	ldr	r2, [pc, #20]	@ (8001138 <HAL_TIM_MspPostInit+0x5c>)
 8001122:	6853      	ldr	r3, [r2, #4]
 8001124:	f043 63e0 	orr.w	r3, r3, #117440512	@ 0x7000000
 8001128:	f443 6340 	orr.w	r3, r3, #3072	@ 0xc00
 800112c:	6053      	str	r3, [r2, #4]
}
 800112e:	e7e0      	b.n	80010f2 <HAL_TIM_MspPostInit+0x16>
 8001130:	40000400 	.word	0x40000400
 8001134:	40011000 	.word	0x40011000
 8001138:	40010000 	.word	0x40010000

0800113c <MX_TIM3_Init>:
{
 800113c:	b500      	push	{lr}
 800113e:	b08b      	sub	sp, #44	@ 0x2c
  TIM_MasterConfigTypeDef sMasterConfig = {0};
 8001140:	2300      	movs	r3, #0
 8001142:	9308      	str	r3, [sp, #32]
 8001144:	9309      	str	r3, [sp, #36]	@ 0x24
  TIM_OC_InitTypeDef sConfigOC = {0};
 8001146:	9301      	str	r3, [sp, #4]
 8001148:	9302      	str	r3, [sp, #8]
 800114a:	9303      	str	r3, [sp, #12]
 800114c:	9304      	str	r3, [sp, #16]
 800114e:	9305      	str	r3, [sp, #20]
 8001150:	9306      	str	r3, [sp, #24]
 8001152:	9307      	str	r3, [sp, #28]
  htim3.Instance = TIM3;
 8001154:	481d      	ldr	r0, [pc, #116]	@ (80011cc <MX_TIM3_Init+0x90>)
 8001156:	4a1e      	ldr	r2, [pc, #120]	@ (80011d0 <MX_TIM3_Init+0x94>)
 8001158:	6002      	str	r2, [r0, #0]
  htim3.Init.Prescaler = 4-1;
 800115a:	2203      	movs	r2, #3
 800115c:	6042      	str	r2, [r0, #4]
  htim3.Init.CounterMode = TIM_COUNTERMODE_UP;
 800115e:	6083      	str	r3, [r0, #8]
  htim3.Init.Period = 1000-1;
 8001160:	f240 32e7 	movw	r2, #999	@ 0x3e7
 8001164:	60c2      	str	r2, [r0, #12]
  htim3.Init.ClockDivision = TIM_CLOCKDIVISION_DIV1;
 8001166:	6103      	str	r3, [r0, #16]
  htim3.Init.AutoReloadPreload = TIM_AUTORELOAD_PRELOAD_DISABLE;
 8001168:	6183      	str	r3, [r0, #24]
  if (HAL_TIM_PWM_Init(&htim3) != HAL_OK)
 800116a:	f002 f885 	bl	8003278 <HAL_TIM_PWM_Init>
 800116e:	bb00      	cbnz	r0, 80011b2 <MX_TIM3_Init+0x76>
  sMasterConfig.MasterOutputTrigger = TIM_TRGO_UPDATE;
 8001170:	2320      	movs	r3, #32
 8001172:	9308      	str	r3, [sp, #32]
  sMasterConfig.MasterSlaveMode = TIM_MASTERSLAVEMODE_DISABLE;
 8001174:	2300      	movs	r3, #0
 8001176:	9309      	str	r3, [sp, #36]	@ 0x24
  if (HAL_TIMEx_MasterConfigSynchronization(&htim3, &sMasterConfig) != HAL_OK)
 8001178:	a908      	add	r1, sp, #32
 800117a:	4814      	ldr	r0, [pc, #80]	@ (80011cc <MX_TIM3_Init+0x90>)
 800117c:	f002 fadc 	bl	8003738 <HAL_TIMEx_MasterConfigSynchronization>
 8001180:	b9d0      	cbnz	r0, 80011b8 <MX_TIM3_Init+0x7c>
  sConfigOC.OCMode = TIM_OCMODE_PWM1;
 8001182:	2360      	movs	r3, #96	@ 0x60
 8001184:	9301      	str	r3, [sp, #4]
  sConfigOC.Pulse = 0;
 8001186:	2200      	movs	r2, #0
 8001188:	9202      	str	r2, [sp, #8]
  sConfigOC.OCPolarity = TIM_OCPOLARITY_HIGH;
 800118a:	9203      	str	r2, [sp, #12]
  sConfigOC.OCFastMode = TIM_OCFAST_DISABLE;
 800118c:	9205      	str	r2, [sp, #20]
  if (HAL_TIM_PWM_ConfigChannel(&htim3, &sConfigOC, TIM_CHANNEL_1) != HAL_OK)
 800118e:	a901      	add	r1, sp, #4
 8001190:	480e      	ldr	r0, [pc, #56]	@ (80011cc <MX_TIM3_Init+0x90>)
 8001192:	f002 f953 	bl	800343c <HAL_TIM_PWM_ConfigChannel>
 8001196:	b990      	cbnz	r0, 80011be <MX_TIM3_Init+0x82>
  if (HAL_TIM_PWM_ConfigChannel(&htim3, &sConfigOC, TIM_CHANNEL_2) != HAL_OK)
 8001198:	2204      	movs	r2, #4
 800119a:	eb0d 0102 	add.w	r1, sp, r2
 800119e:	480b      	ldr	r0, [pc, #44]	@ (80011cc <MX_TIM3_Init+0x90>)
 80011a0:	f002 f94c 	bl	800343c <HAL_TIM_PWM_ConfigChannel>
 80011a4:	b970      	cbnz	r0, 80011c4 <MX_TIM3_Init+0x88>
  HAL_TIM_MspPostInit(&htim3);
 80011a6:	4809      	ldr	r0, [pc, #36]	@ (80011cc <MX_TIM3_Init+0x90>)
 80011a8:	f7ff ff98 	bl	80010dc <HAL_TIM_MspPostInit>
}
 80011ac:	b00b      	add	sp, #44	@ 0x2c
 80011ae:	f85d fb04 	ldr.w	pc, [sp], #4
    Error_Handler();
 80011b2:	f7ff fbcd 	bl	8000950 <Error_Handler>
 80011b6:	e7db      	b.n	8001170 <MX_TIM3_Init+0x34>
    Error_Handler();
 80011b8:	f7ff fbca 	bl	8000950 <Error_Handler>
 80011bc:	e7e1      	b.n	8001182 <MX_TIM3_Init+0x46>
    Error_Handler();
 80011be:	f7ff fbc7 	bl	8000950 <Error_Handler>
 80011c2:	e7e9      	b.n	8001198 <MX_TIM3_Init+0x5c>
    Error_Handler();
 80011c4:	f7ff fbc4 	bl	8000950 <Error_Handler>
 80011c8:	e7ed      	b.n	80011a6 <MX_TIM3_Init+0x6a>
 80011ca:	bf00      	nop
 80011cc:	20000270 	.word	0x20000270
 80011d0:	40000400 	.word	0x40000400

080011d4 <MX_USART1_UART_Init>:
DMA_HandleTypeDef hdma_usart1_rx;

/* USART1 init function */

void MX_USART1_UART_Init(void)
{
 80011d4:	b508      	push	{r3, lr}
  /* USER CODE END USART1_Init 0 */

  /* USER CODE BEGIN USART1_Init 1 */

  /* USER CODE END USART1_Init 1 */
  huart1.Instance = USART1;
 80011d6:	480a      	ldr	r0, [pc, #40]	@ (8001200 <MX_USART1_UART_Init+0x2c>)
 80011d8:	4b0a      	ldr	r3, [pc, #40]	@ (8001204 <MX_USART1_UART_Init+0x30>)
 80011da:	6003      	str	r3, [r0, #0]
  huart1.Init.BaudRate = 115200;
 80011dc:	f44f 33e1 	mov.w	r3, #115200	@ 0x1c200
 80011e0:	6043      	str	r3, [r0, #4]
  huart1.Init.WordLength = UART_WORDLENGTH_8B;
 80011e2:	2300      	movs	r3, #0
 80011e4:	6083      	str	r3, [r0, #8]
  huart1.Init.StopBits = UART_STOPBITS_1;
 80011e6:	60c3      	str	r3, [r0, #12]
  huart1.Init.Parity = UART_PARITY_NONE;
 80011e8:	6103      	str	r3, [r0, #16]
  huart1.Init.Mode = UART_MODE_TX_RX;
 80011ea:	220c      	movs	r2, #12
 80011ec:	6142      	str	r2, [r0, #20]
  huart1.Init.HwFlowCtl = UART_HWCONTROL_NONE;
 80011ee:	6183      	str	r3, [r0, #24]
  huart1.Init.OverSampling = UART_OVERSAMPLING_16;
 80011f0:	61c3      	str	r3, [r0, #28]
  if (HAL_UART_Init(&huart1) != HAL_OK)
 80011f2:	f002 fb23 	bl	800383c <HAL_UART_Init>
 80011f6:	b900      	cbnz	r0, 80011fa <MX_USART1_UART_Init+0x26>
  }
  /* USER CODE BEGIN USART1_Init 2 */

  /* USER CODE END USART1_Init 2 */

}
 80011f8:	bd08      	pop	{r3, pc}
    Error_Handler();
 80011fa:	f7ff fba9 	bl	8000950 <Error_Handler>
}
 80011fe:	e7fb      	b.n	80011f8 <MX_USART1_UART_Init+0x24>
 8001200:	200003d0 	.word	0x200003d0
 8001204:	40013800 	.word	0x40013800

08001208 <HAL_UART_MspInit>:

void HAL_UART_MspInit(UART_HandleTypeDef* uartHandle)
{
 8001208:	b5f0      	push	{r4, r5, r6, r7, lr}
 800120a:	b087      	sub	sp, #28

  GPIO_InitTypeDef GPIO_InitStruct = {0};
 800120c:	2300      	movs	r3, #0
 800120e:	9302      	str	r3, [sp, #8]
 8001210:	9303      	str	r3, [sp, #12]
 8001212:	9304      	str	r3, [sp, #16]
 8001214:	9305      	str	r3, [sp, #20]
  if(uartHandle->Instance==USART1)
 8001216:	6802      	ldr	r2, [r0, #0]
 8001218:	4b31      	ldr	r3, [pc, #196]	@ (80012e0 <HAL_UART_MspInit+0xd8>)
 800121a:	429a      	cmp	r2, r3
 800121c:	d001      	beq.n	8001222 <HAL_UART_MspInit+0x1a>

  /* USER CODE BEGIN USART1_MspInit 1 */

  /* USER CODE END USART1_MspInit 1 */
  }
}
 800121e:	b007      	add	sp, #28
 8001220:	bdf0      	pop	{r4, r5, r6, r7, pc}
 8001222:	4604      	mov	r4, r0
    __HAL_RCC_USART1_CLK_ENABLE();
 8001224:	f503 4358 	add.w	r3, r3, #55296	@ 0xd800
 8001228:	699a      	ldr	r2, [r3, #24]
 800122a:	f442 4280 	orr.w	r2, r2, #16384	@ 0x4000
 800122e:	619a      	str	r2, [r3, #24]
 8001230:	699a      	ldr	r2, [r3, #24]
 8001232:	f402 4280 	and.w	r2, r2, #16384	@ 0x4000
 8001236:	9200      	str	r2, [sp, #0]
 8001238:	9a00      	ldr	r2, [sp, #0]
    __HAL_RCC_GPIOB_CLK_ENABLE();
 800123a:	699a      	ldr	r2, [r3, #24]
 800123c:	f042 0208 	orr.w	r2, r2, #8
 8001240:	619a      	str	r2, [r3, #24]
 8001242:	699b      	ldr	r3, [r3, #24]
 8001244:	f003 0308 	and.w	r3, r3, #8
 8001248:	9301      	str	r3, [sp, #4]
 800124a:	9b01      	ldr	r3, [sp, #4]
    GPIO_InitStruct.Pin = GPIO_PIN_6;
 800124c:	2340      	movs	r3, #64	@ 0x40
 800124e:	9302      	str	r3, [sp, #8]
    GPIO_InitStruct.Mode = GPIO_MODE_AF_PP;
 8001250:	2302      	movs	r3, #2
 8001252:	9303      	str	r3, [sp, #12]
    GPIO_InitStruct.Speed = GPIO_SPEED_FREQ_HIGH;
 8001254:	2303      	movs	r3, #3
 8001256:	9305      	str	r3, [sp, #20]
    HAL_GPIO_Init(GPIOB, &GPIO_InitStruct);
 8001258:	4f22      	ldr	r7, [pc, #136]	@ (80012e4 <HAL_UART_MspInit+0xdc>)
 800125a:	a902      	add	r1, sp, #8
 800125c:	4638      	mov	r0, r7
 800125e:	f000 fcb5 	bl	8001bcc <HAL_GPIO_Init>
    GPIO_InitStruct.Pin = GPIO_PIN_7;
 8001262:	2680      	movs	r6, #128	@ 0x80
 8001264:	9602      	str	r6, [sp, #8]
    GPIO_InitStruct.Mode = GPIO_MODE_INPUT;
 8001266:	2500      	movs	r5, #0
 8001268:	9503      	str	r5, [sp, #12]
    GPIO_InitStruct.Pull = GPIO_NOPULL;
 800126a:	9504      	str	r5, [sp, #16]
    HAL_GPIO_Init(GPIOB, &GPIO_InitStruct);
 800126c:	a902      	add	r1, sp, #8
 800126e:	4638      	mov	r0, r7
 8001270:	f000 fcac 	bl	8001bcc <HAL_GPIO_Init>
    __HAL_AFIO_REMAP_USART1_ENABLE();
 8001274:	4a1c      	ldr	r2, [pc, #112]	@ (80012e8 <HAL_UART_MspInit+0xe0>)
 8001276:	6853      	ldr	r3, [r2, #4]
 8001278:	f043 63e0 	orr.w	r3, r3, #117440512	@ 0x7000000
 800127c:	f043 0304 	orr.w	r3, r3, #4
 8001280:	6053      	str	r3, [r2, #4]
    hdma_usart1_tx.Instance = DMA1_Channel4;
 8001282:	481a      	ldr	r0, [pc, #104]	@ (80012ec <HAL_UART_MspInit+0xe4>)
 8001284:	4b1a      	ldr	r3, [pc, #104]	@ (80012f0 <HAL_UART_MspInit+0xe8>)
 8001286:	6003      	str	r3, [r0, #0]
    hdma_usart1_tx.Init.Direction = DMA_MEMORY_TO_PERIPH;
 8001288:	2310      	movs	r3, #16
 800128a:	6043      	str	r3, [r0, #4]
    hdma_usart1_tx.Init.PeriphInc = DMA_PINC_DISABLE;
 800128c:	6085      	str	r5, [r0, #8]
    hdma_usart1_tx.Init.MemInc = DMA_MINC_ENABLE;
 800128e:	60c6      	str	r6, [r0, #12]
    hdma_usart1_tx.Init.PeriphDataAlignment = DMA_PDATAALIGN_BYTE;
 8001290:	6105      	str	r5, [r0, #16]
    hdma_usart1_tx.Init.MemDataAlignment = DMA_MDATAALIGN_BYTE;
 8001292:	6145      	str	r5, [r0, #20]
    hdma_usart1_tx.Init.Mode = DMA_NORMAL;
 8001294:	6185      	str	r5, [r0, #24]
    hdma_usart1_tx.Init.Priority = DMA_PRIORITY_HIGH;
 8001296:	f44f 5300 	mov.w	r3, #8192	@ 0x2000
 800129a:	61c3      	str	r3, [r0, #28]
    if (HAL_DMA_Init(&hdma_usart1_tx) != HAL_OK)
 800129c:	f000 fb84 	bl	80019a8 <HAL_DMA_Init>
 80012a0:	b9b8      	cbnz	r0, 80012d2 <HAL_UART_MspInit+0xca>
    __HAL_LINKDMA(uartHandle,hdmatx,hdma_usart1_tx);
 80012a2:	4b12      	ldr	r3, [pc, #72]	@ (80012ec <HAL_UART_MspInit+0xe4>)
 80012a4:	63a3      	str	r3, [r4, #56]	@ 0x38
 80012a6:	625c      	str	r4, [r3, #36]	@ 0x24
    hdma_usart1_rx.Instance = DMA1_Channel5;
 80012a8:	4812      	ldr	r0, [pc, #72]	@ (80012f4 <HAL_UART_MspInit+0xec>)
 80012aa:	4b13      	ldr	r3, [pc, #76]	@ (80012f8 <HAL_UART_MspInit+0xf0>)
 80012ac:	6003      	str	r3, [r0, #0]
    hdma_usart1_rx.Init.Direction = DMA_PERIPH_TO_MEMORY;
 80012ae:	2300      	movs	r3, #0
 80012b0:	6043      	str	r3, [r0, #4]
    hdma_usart1_rx.Init.PeriphInc = DMA_PINC_DISABLE;
 80012b2:	6083      	str	r3, [r0, #8]
    hdma_usart1_rx.Init.MemInc = DMA_MINC_ENABLE;
 80012b4:	2280      	movs	r2, #128	@ 0x80
 80012b6:	60c2      	str	r2, [r0, #12]
    hdma_usart1_rx.Init.PeriphDataAlignment = DMA_PDATAALIGN_BYTE;
 80012b8:	6103      	str	r3, [r0, #16]
    hdma_usart1_rx.Init.MemDataAlignment = DMA_MDATAALIGN_BYTE;
 80012ba:	6143      	str	r3, [r0, #20]
    hdma_usart1_rx.Init.Mode = DMA_NORMAL;
 80012bc:	6183      	str	r3, [r0, #24]
    hdma_usart1_rx.Init.Priority = DMA_PRIORITY_HIGH;
 80012be:	f44f 5300 	mov.w	r3, #8192	@ 0x2000
 80012c2:	61c3      	str	r3, [r0, #28]
    if (HAL_DMA_Init(&hdma_usart1_rx) != HAL_OK)
 80012c4:	f000 fb70 	bl	80019a8 <HAL_DMA_Init>
 80012c8:	b930      	cbnz	r0, 80012d8 <HAL_UART_MspInit+0xd0>
    __HAL_LINKDMA(uartHandle,hdmarx,hdma_usart1_rx);
 80012ca:	4b0a      	ldr	r3, [pc, #40]	@ (80012f4 <HAL_UART_MspInit+0xec>)
 80012cc:	63e3      	str	r3, [r4, #60]	@ 0x3c
 80012ce:	625c      	str	r4, [r3, #36]	@ 0x24
}
 80012d0:	e7a5      	b.n	800121e <HAL_UART_MspInit+0x16>
      Error_Handler();
 80012d2:	f7ff fb3d 	bl	8000950 <Error_Handler>
 80012d6:	e7e4      	b.n	80012a2 <HAL_UART_MspInit+0x9a>
      Error_Handler();
 80012d8:	f7ff fb3a 	bl	8000950 <Error_Handler>
 80012dc:	e7f5      	b.n	80012ca <HAL_UART_MspInit+0xc2>
 80012de:	bf00      	nop
 80012e0:	40013800 	.word	0x40013800
 80012e4:	40010c00 	.word	0x40010c00
 80012e8:	40010000 	.word	0x40010000
 80012ec:	2000038c 	.word	0x2000038c
 80012f0:	40020044 	.word	0x40020044
 80012f4:	20000348 	.word	0x20000348
 80012f8:	40020058 	.word	0x40020058

080012fc <HAL_InitTick>:
  *       implementation  in user file.
  * @param TickPriority Tick interrupt priority.
  * @retval HAL status
  */
__weak HAL_StatusTypeDef HAL_InitTick(uint32_t TickPriority)
{
 80012fc:	b510      	push	{r4, lr}
 80012fe:	4604      	mov	r4, r0
  /* Configure the SysTick to have interrupt in 1ms time basis*/
  if (HAL_SYSTICK_Config(SystemCoreClock / (1000U / uwTickFreq)) > 0U)
 8001300:	4b0e      	ldr	r3, [pc, #56]	@ (800133c <HAL_InitTick+0x40>)
 8001302:	781a      	ldrb	r2, [r3, #0]
 8001304:	f44f 737a 	mov.w	r3, #1000	@ 0x3e8
 8001308:	fbb3 f3f2 	udiv	r3, r3, r2
 800130c:	4a0c      	ldr	r2, [pc, #48]	@ (8001340 <HAL_InitTick+0x44>)
 800130e:	6810      	ldr	r0, [r2, #0]
 8001310:	fbb0 f0f3 	udiv	r0, r0, r3
 8001314:	f000 fb1e 	bl	8001954 <HAL_SYSTICK_Config>
 8001318:	b968      	cbnz	r0, 8001336 <HAL_InitTick+0x3a>
  {
    return HAL_ERROR;
  }

  /* Configure the SysTick IRQ priority */
  if (TickPriority < (1UL << __NVIC_PRIO_BITS))
 800131a:	2c0f      	cmp	r4, #15
 800131c:	d901      	bls.n	8001322 <HAL_InitTick+0x26>
    HAL_NVIC_SetPriority(SysTick_IRQn, TickPriority, 0U);
    uwTickPrio = TickPriority;
  }
  else
  {
    return HAL_ERROR;
 800131e:	2001      	movs	r0, #1
 8001320:	e00a      	b.n	8001338 <HAL_InitTick+0x3c>
    HAL_NVIC_SetPriority(SysTick_IRQn, TickPriority, 0U);
 8001322:	2200      	movs	r2, #0
 8001324:	4621      	mov	r1, r4
 8001326:	f04f 30ff 	mov.w	r0, #4294967295
 800132a:	f000 faf5 	bl	8001918 <HAL_NVIC_SetPriority>
    uwTickPrio = TickPriority;
 800132e:	4b05      	ldr	r3, [pc, #20]	@ (8001344 <HAL_InitTick+0x48>)
 8001330:	601c      	str	r4, [r3, #0]
  }

  /* Return function status */
  return HAL_OK;
 8001332:	2000      	movs	r0, #0
 8001334:	e000      	b.n	8001338 <HAL_InitTick+0x3c>
    return HAL_ERROR;
 8001336:	2001      	movs	r0, #1
}
 8001338:	bd10      	pop	{r4, pc}
 800133a:	bf00      	nop
 800133c:	20000080 	.word	0x20000080
 8001340:	2000007c 	.word	0x2000007c
 8001344:	20000084 	.word	0x20000084

08001348 <HAL_Init>:
{
 8001348:	b508      	push	{r3, lr}
  __HAL_FLASH_PREFETCH_BUFFER_ENABLE();
 800134a:	4a07      	ldr	r2, [pc, #28]	@ (8001368 <HAL_Init+0x20>)
 800134c:	6813      	ldr	r3, [r2, #0]
 800134e:	f043 0310 	orr.w	r3, r3, #16
 8001352:	6013      	str	r3, [r2, #0]
  HAL_NVIC_SetPriorityGrouping(NVIC_PRIORITYGROUP_4);
 8001354:	2003      	movs	r0, #3
 8001356:	f000 facd 	bl	80018f4 <HAL_NVIC_SetPriorityGrouping>
  HAL_InitTick(TICK_INT_PRIORITY);
 800135a:	200f      	movs	r0, #15
 800135c:	f7ff ffce 	bl	80012fc <HAL_InitTick>
  HAL_MspInit();
 8001360:	f7ff fcfa 	bl	8000d58 <HAL_MspInit>
}
 8001364:	2000      	movs	r0, #0
 8001366:	bd08      	pop	{r3, pc}
 8001368:	40022000 	.word	0x40022000

0800136c <HAL_IncTick>:
  *      implementations in user file.
  * @retval None
  */
__weak void HAL_IncTick(void)
{
  uwTick += uwTickFreq;
 800136c:	4a03      	ldr	r2, [pc, #12]	@ (800137c <HAL_IncTick+0x10>)
 800136e:	6811      	ldr	r1, [r2, #0]
 8001370:	4b03      	ldr	r3, [pc, #12]	@ (8001380 <HAL_IncTick+0x14>)
 8001372:	781b      	ldrb	r3, [r3, #0]
 8001374:	440b      	add	r3, r1
 8001376:	6013      	str	r3, [r2, #0]
}
 8001378:	4770      	bx	lr
 800137a:	bf00      	nop
 800137c:	20000418 	.word	0x20000418
 8001380:	20000080 	.word	0x20000080

08001384 <HAL_GetTick>:
  *       implementations in user file.
  * @retval tick value
  */
__weak uint32_t HAL_GetTick(void)
{
  return uwTick;
 8001384:	4b01      	ldr	r3, [pc, #4]	@ (800138c <HAL_GetTick+0x8>)
 8001386:	6818      	ldr	r0, [r3, #0]
}
 8001388:	4770      	bx	lr
 800138a:	bf00      	nop
 800138c:	20000418 	.word	0x20000418

08001390 <HAL_Delay>:
  *       implementations in user file.
  * @param Delay specifies the delay time length, in milliseconds.
  * @retval None
  */
__weak void HAL_Delay(uint32_t Delay)
{
 8001390:	b538      	push	{r3, r4, r5, lr}
 8001392:	4604      	mov	r4, r0
  uint32_t tickstart = HAL_GetTick();
 8001394:	f7ff fff6 	bl	8001384 <HAL_GetTick>
 8001398:	4605      	mov	r5, r0
  uint32_t wait = Delay;

  /* Add a freq to guarantee minimum wait */
  if (wait < HAL_MAX_DELAY)
 800139a:	f1b4 3fff 	cmp.w	r4, #4294967295
 800139e:	d002      	beq.n	80013a6 <HAL_Delay+0x16>
  {
    wait += (uint32_t)(uwTickFreq);
 80013a0:	4b04      	ldr	r3, [pc, #16]	@ (80013b4 <HAL_Delay+0x24>)
 80013a2:	781b      	ldrb	r3, [r3, #0]
 80013a4:	441c      	add	r4, r3
  }

  while ((HAL_GetTick() - tickstart) < wait)
 80013a6:	f7ff ffed 	bl	8001384 <HAL_GetTick>
 80013aa:	1b40      	subs	r0, r0, r5
 80013ac:	42a0      	cmp	r0, r4
 80013ae:	d3fa      	bcc.n	80013a6 <HAL_Delay+0x16>
  {
  }
}
 80013b0:	bd38      	pop	{r3, r4, r5, pc}
 80013b2:	bf00      	nop
 80013b4:	20000080 	.word	0x20000080

080013b8 <ADC_DMAConvCplt>:
  * @brief  DMA transfer complete callback. 
  * @param  hdma: pointer to DMA handle.
  * @retval None
  */
void ADC_DMAConvCplt(DMA_HandleTypeDef *hdma)
{
 80013b8:	b508      	push	{r3, lr}
  /* Retrieve ADC handle corresponding to current DMA handle */
  ADC_HandleTypeDef* hadc = ( ADC_HandleTypeDef* )((DMA_HandleTypeDef* )hdma)->Parent;
 80013ba:	6a43      	ldr	r3, [r0, #36]	@ 0x24
 
  /* Update state machine on conversion status if not in error state */
  if (HAL_IS_BIT_CLR(hadc->State, HAL_ADC_STATE_ERROR_INTERNAL | HAL_ADC_STATE_ERROR_DMA))
 80013bc:	6a9a      	ldr	r2, [r3, #40]	@ 0x28
 80013be:	f012 0f50 	tst.w	r2, #80	@ 0x50
 80013c2:	d11e      	bne.n	8001402 <ADC_DMAConvCplt+0x4a>
  {
    /* Update ADC state machine */
    SET_BIT(hadc->State, HAL_ADC_STATE_REG_EOC);
 80013c4:	6a9a      	ldr	r2, [r3, #40]	@ 0x28
 80013c6:	f442 7200 	orr.w	r2, r2, #512	@ 0x200
 80013ca:	629a      	str	r2, [r3, #40]	@ 0x28
    /* Determine whether any further conversion upcoming on group regular     */
    /* by external trigger, continuous mode or scan sequence on going.        */
    /* Note: On STM32F1 devices, in case of sequencer enabled                 */
    /*       (several ranks selected), end of conversion flag is raised       */
    /*       at the end of the sequence.                                      */
    if(ADC_IS_SOFTWARE_START_REGULAR(hadc)        && 
 80013cc:	681a      	ldr	r2, [r3, #0]
 80013ce:	6892      	ldr	r2, [r2, #8]
 80013d0:	f402 2260 	and.w	r2, r2, #917504	@ 0xe0000
 80013d4:	f5b2 2f60 	cmp.w	r2, #917504	@ 0xe0000
 80013d8:	d003      	beq.n	80013e2 <ADC_DMAConvCplt+0x2a>
    
    /* Conversion complete callback */
#if (USE_HAL_ADC_REGISTER_CALLBACKS == 1)
    hadc->ConvCpltCallback(hadc);
#else
    HAL_ADC_ConvCpltCallback(hadc);
 80013da:	4618      	mov	r0, r3
 80013dc:	f7ff fa8e 	bl	80008fc <HAL_ADC_ConvCpltCallback>
  else
  {
    /* Call DMA error callback */
    hadc->DMA_Handle->XferErrorCallback(hdma);
  }
}
 80013e0:	bd08      	pop	{r3, pc}
       (hadc->Init.ContinuousConvMode == DISABLE)   )
 80013e2:	7b1a      	ldrb	r2, [r3, #12]
    if(ADC_IS_SOFTWARE_START_REGULAR(hadc)        && 
 80013e4:	2a00      	cmp	r2, #0
 80013e6:	d1f8      	bne.n	80013da <ADC_DMAConvCplt+0x22>
      CLEAR_BIT(hadc->State, HAL_ADC_STATE_REG_BUSY);   
 80013e8:	6a9a      	ldr	r2, [r3, #40]	@ 0x28
 80013ea:	f422 7280 	bic.w	r2, r2, #256	@ 0x100
 80013ee:	629a      	str	r2, [r3, #40]	@ 0x28
      if (HAL_IS_BIT_CLR(hadc->State, HAL_ADC_STATE_INJ_BUSY))
 80013f0:	6a9a      	ldr	r2, [r3, #40]	@ 0x28
 80013f2:	f412 5f80 	tst.w	r2, #4096	@ 0x1000
 80013f6:	d1f0      	bne.n	80013da <ADC_DMAConvCplt+0x22>
        SET_BIT(hadc->State, HAL_ADC_STATE_READY);
 80013f8:	6a9a      	ldr	r2, [r3, #40]	@ 0x28
 80013fa:	f042 0201 	orr.w	r2, r2, #1
 80013fe:	629a      	str	r2, [r3, #40]	@ 0x28
 8001400:	e7eb      	b.n	80013da <ADC_DMAConvCplt+0x22>
    hadc->DMA_Handle->XferErrorCallback(hdma);
 8001402:	6a1b      	ldr	r3, [r3, #32]
 8001404:	6b1b      	ldr	r3, [r3, #48]	@ 0x30
 8001406:	4798      	blx	r3
}
 8001408:	e7ea      	b.n	80013e0 <ADC_DMAConvCplt+0x28>

0800140a <HAL_ADC_ConvHalfCpltCallback>:
}
 800140a:	4770      	bx	lr

0800140c <ADC_DMAHalfConvCplt>:
  * @brief  DMA half transfer complete callback. 
  * @param  hdma: pointer to DMA handle.
  * @retval None
  */
void ADC_DMAHalfConvCplt(DMA_HandleTypeDef *hdma)   
{
 800140c:	b508      	push	{r3, lr}
  
  /* Half conversion callback */
#if (USE_HAL_ADC_REGISTER_CALLBACKS == 1)
    hadc->ConvHalfCpltCallback(hadc);
#else
  HAL_ADC_ConvHalfCpltCallback(hadc);
 800140e:	6a40      	ldr	r0, [r0, #36]	@ 0x24
 8001410:	f7ff fffb 	bl	800140a <HAL_ADC_ConvHalfCpltCallback>
#endif /* USE_HAL_ADC_REGISTER_CALLBACKS */
}
 8001414:	bd08      	pop	{r3, pc}

08001416 <HAL_ADC_ErrorCallback>:
}
 8001416:	4770      	bx	lr

08001418 <ADC_DMAError>:
  * @brief  DMA error callback 
  * @param  hdma: pointer to DMA handle.
  * @retval None
  */
void ADC_DMAError(DMA_HandleTypeDef *hdma)   
{
 8001418:	b508      	push	{r3, lr}
  /* Retrieve ADC handle corresponding to current DMA handle */
  ADC_HandleTypeDef* hadc = ( ADC_HandleTypeDef* )((DMA_HandleTypeDef* )hdma)->Parent;
 800141a:	6a40      	ldr	r0, [r0, #36]	@ 0x24
  
  /* Set ADC state */
  SET_BIT(hadc->State, HAL_ADC_STATE_ERROR_DMA);
 800141c:	6a83      	ldr	r3, [r0, #40]	@ 0x28
 800141e:	f043 0340 	orr.w	r3, r3, #64	@ 0x40
 8001422:	6283      	str	r3, [r0, #40]	@ 0x28
  
  /* Set ADC error code to DMA error */
  SET_BIT(hadc->ErrorCode, HAL_ADC_ERROR_DMA);
 8001424:	6ac3      	ldr	r3, [r0, #44]	@ 0x2c
 8001426:	f043 0304 	orr.w	r3, r3, #4
 800142a:	62c3      	str	r3, [r0, #44]	@ 0x2c
  
  /* Error callback */
#if (USE_HAL_ADC_REGISTER_CALLBACKS == 1)
  hadc->ErrorCallback(hadc);
#else
  HAL_ADC_ErrorCallback(hadc);
 800142c:	f7ff fff3 	bl	8001416 <HAL_ADC_ErrorCallback>
#endif /* USE_HAL_ADC_REGISTER_CALLBACKS */
}
 8001430:	bd08      	pop	{r3, pc}
	...

08001434 <HAL_ADC_ConfigChannel>:
{ 
 8001434:	b430      	push	{r4, r5}
 8001436:	b082      	sub	sp, #8
  __IO uint32_t wait_loop_index = 0U;
 8001438:	2200      	movs	r2, #0
 800143a:	9201      	str	r2, [sp, #4]
  __HAL_LOCK(hadc);
 800143c:	f890 2024 	ldrb.w	r2, [r0, #36]	@ 0x24
 8001440:	2a01      	cmp	r2, #1
 8001442:	f000 808f 	beq.w	8001564 <HAL_ADC_ConfigChannel+0x130>
 8001446:	4603      	mov	r3, r0
 8001448:	2201      	movs	r2, #1
 800144a:	f880 2024 	strb.w	r2, [r0, #36]	@ 0x24
  if (sConfig->Rank < 7U)
 800144e:	684a      	ldr	r2, [r1, #4]
 8001450:	2a06      	cmp	r2, #6
 8001452:	d82d      	bhi.n	80014b0 <HAL_ADC_ConfigChannel+0x7c>
    MODIFY_REG(hadc->Instance->SQR3                        ,
 8001454:	6804      	ldr	r4, [r0, #0]
 8001456:	6b60      	ldr	r0, [r4, #52]	@ 0x34
 8001458:	eb02 0282 	add.w	r2, r2, r2, lsl #2
 800145c:	3a05      	subs	r2, #5
 800145e:	f04f 0c1f 	mov.w	ip, #31
 8001462:	fa0c fc02 	lsl.w	ip, ip, r2
 8001466:	ea20 000c 	bic.w	r0, r0, ip
 800146a:	680d      	ldr	r5, [r1, #0]
 800146c:	fa05 f202 	lsl.w	r2, r5, r2
 8001470:	4302      	orrs	r2, r0
 8001472:	6362      	str	r2, [r4, #52]	@ 0x34
  if (sConfig->Channel >= ADC_CHANNEL_10)
 8001474:	680a      	ldr	r2, [r1, #0]
 8001476:	2a09      	cmp	r2, #9
 8001478:	d938      	bls.n	80014ec <HAL_ADC_ConfigChannel+0xb8>
    MODIFY_REG(hadc->Instance->SMPR1                             ,
 800147a:	681c      	ldr	r4, [r3, #0]
 800147c:	68e0      	ldr	r0, [r4, #12]
 800147e:	eb02 0242 	add.w	r2, r2, r2, lsl #1
 8001482:	3a1e      	subs	r2, #30
 8001484:	f04f 0c07 	mov.w	ip, #7
 8001488:	fa0c fc02 	lsl.w	ip, ip, r2
 800148c:	ea20 000c 	bic.w	r0, r0, ip
 8001490:	688d      	ldr	r5, [r1, #8]
 8001492:	fa05 f202 	lsl.w	r2, r5, r2
 8001496:	4302      	orrs	r2, r0
 8001498:	60e2      	str	r2, [r4, #12]
  if ((sConfig->Channel == ADC_CHANNEL_TEMPSENSOR) ||
 800149a:	680a      	ldr	r2, [r1, #0]
 800149c:	3a10      	subs	r2, #16
 800149e:	2a01      	cmp	r2, #1
 80014a0:	d934      	bls.n	800150c <HAL_ADC_ConfigChannel+0xd8>
  HAL_StatusTypeDef tmp_hal_status = HAL_OK;
 80014a2:	2000      	movs	r0, #0
  __HAL_UNLOCK(hadc);
 80014a4:	2200      	movs	r2, #0
 80014a6:	f883 2024 	strb.w	r2, [r3, #36]	@ 0x24
}
 80014aa:	b002      	add	sp, #8
 80014ac:	bc30      	pop	{r4, r5}
 80014ae:	4770      	bx	lr
  else if (sConfig->Rank < 13U)
 80014b0:	2a0c      	cmp	r2, #12
 80014b2:	d80d      	bhi.n	80014d0 <HAL_ADC_ConfigChannel+0x9c>
    MODIFY_REG(hadc->Instance->SQR2                        ,
 80014b4:	6805      	ldr	r5, [r0, #0]
 80014b6:	6b28      	ldr	r0, [r5, #48]	@ 0x30
 80014b8:	eb02 0282 	add.w	r2, r2, r2, lsl #2
 80014bc:	3a23      	subs	r2, #35	@ 0x23
 80014be:	241f      	movs	r4, #31
 80014c0:	4094      	lsls	r4, r2
 80014c2:	ea20 0004 	bic.w	r0, r0, r4
 80014c6:	680c      	ldr	r4, [r1, #0]
 80014c8:	4094      	lsls	r4, r2
 80014ca:	4320      	orrs	r0, r4
 80014cc:	6328      	str	r0, [r5, #48]	@ 0x30
 80014ce:	e7d1      	b.n	8001474 <HAL_ADC_ConfigChannel+0x40>
    MODIFY_REG(hadc->Instance->SQR1                        ,
 80014d0:	6805      	ldr	r5, [r0, #0]
 80014d2:	6ae8      	ldr	r0, [r5, #44]	@ 0x2c
 80014d4:	eb02 0282 	add.w	r2, r2, r2, lsl #2
 80014d8:	3a41      	subs	r2, #65	@ 0x41
 80014da:	241f      	movs	r4, #31
 80014dc:	4094      	lsls	r4, r2
 80014de:	ea20 0004 	bic.w	r0, r0, r4
 80014e2:	680c      	ldr	r4, [r1, #0]
 80014e4:	4094      	lsls	r4, r2
 80014e6:	4320      	orrs	r0, r4
 80014e8:	62e8      	str	r0, [r5, #44]	@ 0x2c
 80014ea:	e7c3      	b.n	8001474 <HAL_ADC_ConfigChannel+0x40>
    MODIFY_REG(hadc->Instance->SMPR2                             ,
 80014ec:	681c      	ldr	r4, [r3, #0]
 80014ee:	6920      	ldr	r0, [r4, #16]
 80014f0:	eb02 0242 	add.w	r2, r2, r2, lsl #1
 80014f4:	f04f 0c07 	mov.w	ip, #7
 80014f8:	fa0c fc02 	lsl.w	ip, ip, r2
 80014fc:	ea20 000c 	bic.w	r0, r0, ip
 8001500:	688d      	ldr	r5, [r1, #8]
 8001502:	fa05 f202 	lsl.w	r2, r5, r2
 8001506:	4302      	orrs	r2, r0
 8001508:	6122      	str	r2, [r4, #16]
 800150a:	e7c6      	b.n	800149a <HAL_ADC_ConfigChannel+0x66>
    if (hadc->Instance == ADC1)
 800150c:	681a      	ldr	r2, [r3, #0]
 800150e:	4816      	ldr	r0, [pc, #88]	@ (8001568 <HAL_ADC_ConfigChannel+0x134>)
 8001510:	4282      	cmp	r2, r0
 8001512:	d005      	beq.n	8001520 <HAL_ADC_ConfigChannel+0xec>
      SET_BIT(hadc->State, HAL_ADC_STATE_ERROR_CONFIG);
 8001514:	6a9a      	ldr	r2, [r3, #40]	@ 0x28
 8001516:	f042 0220 	orr.w	r2, r2, #32
 800151a:	629a      	str	r2, [r3, #40]	@ 0x28
      tmp_hal_status = HAL_ERROR;
 800151c:	2001      	movs	r0, #1
 800151e:	e7c1      	b.n	80014a4 <HAL_ADC_ConfigChannel+0x70>
      if (READ_BIT(hadc->Instance->CR2, ADC_CR2_TSVREFE) == RESET)
 8001520:	6890      	ldr	r0, [r2, #8]
 8001522:	f410 0f00 	tst.w	r0, #8388608	@ 0x800000
 8001526:	d11b      	bne.n	8001560 <HAL_ADC_ConfigChannel+0x12c>
        SET_BIT(hadc->Instance->CR2, ADC_CR2_TSVREFE);
 8001528:	6890      	ldr	r0, [r2, #8]
 800152a:	f440 0000 	orr.w	r0, r0, #8388608	@ 0x800000
 800152e:	6090      	str	r0, [r2, #8]
        if (sConfig->Channel == ADC_CHANNEL_TEMPSENSOR)
 8001530:	680a      	ldr	r2, [r1, #0]
 8001532:	2a10      	cmp	r2, #16
 8001534:	d001      	beq.n	800153a <HAL_ADC_ConfigChannel+0x106>
  HAL_StatusTypeDef tmp_hal_status = HAL_OK;
 8001536:	2000      	movs	r0, #0
 8001538:	e7b4      	b.n	80014a4 <HAL_ADC_ConfigChannel+0x70>
          wait_loop_index = (ADC_TEMPSENSOR_DELAY_US * (SystemCoreClock / 1000000U));
 800153a:	4a0c      	ldr	r2, [pc, #48]	@ (800156c <HAL_ADC_ConfigChannel+0x138>)
 800153c:	6812      	ldr	r2, [r2, #0]
 800153e:	490c      	ldr	r1, [pc, #48]	@ (8001570 <HAL_ADC_ConfigChannel+0x13c>)
 8001540:	fba1 1202 	umull	r1, r2, r1, r2
 8001544:	0c92      	lsrs	r2, r2, #18
 8001546:	eb02 0282 	add.w	r2, r2, r2, lsl #2
 800154a:	0052      	lsls	r2, r2, #1
 800154c:	9201      	str	r2, [sp, #4]
          while(wait_loop_index != 0U)
 800154e:	e002      	b.n	8001556 <HAL_ADC_ConfigChannel+0x122>
            wait_loop_index--;
 8001550:	9a01      	ldr	r2, [sp, #4]
 8001552:	3a01      	subs	r2, #1
 8001554:	9201      	str	r2, [sp, #4]
          while(wait_loop_index != 0U)
 8001556:	9a01      	ldr	r2, [sp, #4]
 8001558:	2a00      	cmp	r2, #0
 800155a:	d1f9      	bne.n	8001550 <HAL_ADC_ConfigChannel+0x11c>
  HAL_StatusTypeDef tmp_hal_status = HAL_OK;
 800155c:	2000      	movs	r0, #0
 800155e:	e7a1      	b.n	80014a4 <HAL_ADC_ConfigChannel+0x70>
 8001560:	2000      	movs	r0, #0
 8001562:	e79f      	b.n	80014a4 <HAL_ADC_ConfigChannel+0x70>
  __HAL_LOCK(hadc);
 8001564:	2002      	movs	r0, #2
 8001566:	e7a0      	b.n	80014aa <HAL_ADC_ConfigChannel+0x76>
 8001568:	40012400 	.word	0x40012400
 800156c:	2000007c 	.word	0x2000007c
 8001570:	431bde83 	.word	0x431bde83

08001574 <ADC_Enable>:
{
 8001574:	b530      	push	{r4, r5, lr}
 8001576:	b083      	sub	sp, #12
  __IO uint32_t wait_loop_index = 0U;
 8001578:	2300      	movs	r3, #0
 800157a:	9301      	str	r3, [sp, #4]
  if (ADC_IS_ENABLE(hadc) == RESET)
 800157c:	6803      	ldr	r3, [r0, #0]
 800157e:	689a      	ldr	r2, [r3, #8]
 8001580:	f012 0f01 	tst.w	r2, #1
 8001584:	d133      	bne.n	80015ee <ADC_Enable+0x7a>
 8001586:	4604      	mov	r4, r0
    __HAL_ADC_ENABLE(hadc);
 8001588:	689a      	ldr	r2, [r3, #8]
 800158a:	f042 0201 	orr.w	r2, r2, #1
 800158e:	609a      	str	r2, [r3, #8]
    wait_loop_index = (ADC_STAB_DELAY_US * (SystemCoreClock / 1000000U));
 8001590:	4b18      	ldr	r3, [pc, #96]	@ (80015f4 <ADC_Enable+0x80>)
 8001592:	681b      	ldr	r3, [r3, #0]
 8001594:	4a18      	ldr	r2, [pc, #96]	@ (80015f8 <ADC_Enable+0x84>)
 8001596:	fba2 2303 	umull	r2, r3, r2, r3
 800159a:	0c9b      	lsrs	r3, r3, #18
 800159c:	9301      	str	r3, [sp, #4]
    while(wait_loop_index != 0U)
 800159e:	e002      	b.n	80015a6 <ADC_Enable+0x32>
      wait_loop_index--;
 80015a0:	9b01      	ldr	r3, [sp, #4]
 80015a2:	3b01      	subs	r3, #1
 80015a4:	9301      	str	r3, [sp, #4]
    while(wait_loop_index != 0U)
 80015a6:	9b01      	ldr	r3, [sp, #4]
 80015a8:	2b00      	cmp	r3, #0
 80015aa:	d1f9      	bne.n	80015a0 <ADC_Enable+0x2c>
    tickstart = HAL_GetTick();
 80015ac:	f7ff feea 	bl	8001384 <HAL_GetTick>
 80015b0:	4605      	mov	r5, r0
    while(ADC_IS_ENABLE(hadc) == RESET)
 80015b2:	6823      	ldr	r3, [r4, #0]
 80015b4:	689b      	ldr	r3, [r3, #8]
 80015b6:	f013 0f01 	tst.w	r3, #1
 80015ba:	d116      	bne.n	80015ea <ADC_Enable+0x76>
      if((HAL_GetTick() - tickstart) > ADC_ENABLE_TIMEOUT)
 80015bc:	f7ff fee2 	bl	8001384 <HAL_GetTick>
 80015c0:	1b43      	subs	r3, r0, r5
 80015c2:	2b02      	cmp	r3, #2
 80015c4:	d9f5      	bls.n	80015b2 <ADC_Enable+0x3e>
        if(ADC_IS_ENABLE(hadc) == RESET)
 80015c6:	6823      	ldr	r3, [r4, #0]
 80015c8:	689b      	ldr	r3, [r3, #8]
 80015ca:	f013 0f01 	tst.w	r3, #1
 80015ce:	d1f0      	bne.n	80015b2 <ADC_Enable+0x3e>
          SET_BIT(hadc->State, HAL_ADC_STATE_ERROR_INTERNAL);
 80015d0:	6aa3      	ldr	r3, [r4, #40]	@ 0x28
 80015d2:	f043 0310 	orr.w	r3, r3, #16
 80015d6:	62a3      	str	r3, [r4, #40]	@ 0x28
          SET_BIT(hadc->ErrorCode, HAL_ADC_ERROR_INTERNAL);
 80015d8:	6ae3      	ldr	r3, [r4, #44]	@ 0x2c
 80015da:	f043 0301 	orr.w	r3, r3, #1
 80015de:	62e3      	str	r3, [r4, #44]	@ 0x2c
          __HAL_UNLOCK(hadc);
 80015e0:	2300      	movs	r3, #0
 80015e2:	f884 3024 	strb.w	r3, [r4, #36]	@ 0x24
          return HAL_ERROR;
 80015e6:	2001      	movs	r0, #1
 80015e8:	e002      	b.n	80015f0 <ADC_Enable+0x7c>
  return HAL_OK;
 80015ea:	2000      	movs	r0, #0
 80015ec:	e000      	b.n	80015f0 <ADC_Enable+0x7c>
 80015ee:	2000      	movs	r0, #0
}
 80015f0:	b003      	add	sp, #12
 80015f2:	bd30      	pop	{r4, r5, pc}
 80015f4:	2000007c 	.word	0x2000007c
 80015f8:	431bde83 	.word	0x431bde83

080015fc <HAL_ADC_Start_DMA>:
{
 80015fc:	b5f8      	push	{r3, r4, r5, r6, r7, lr}
 80015fe:	4604      	mov	r4, r0
 8001600:	460d      	mov	r5, r1
 8001602:	4616      	mov	r6, r2
  if(ADC_MULTIMODE_IS_ENABLE(hadc) == RESET)
 8001604:	6801      	ldr	r1, [r0, #0]
 8001606:	4844      	ldr	r0, [pc, #272]	@ (8001718 <HAL_ADC_Start_DMA+0x11c>)
 8001608:	4281      	cmp	r1, r0
 800160a:	d059      	beq.n	80016c0 <HAL_ADC_Start_DMA+0xc4>
 800160c:	4b43      	ldr	r3, [pc, #268]	@ (800171c <HAL_ADC_Start_DMA+0x120>)
 800160e:	4299      	cmp	r1, r3
 8001610:	d056      	beq.n	80016c0 <HAL_ADC_Start_DMA+0xc4>
    __HAL_LOCK(hadc);
 8001612:	f894 3024 	ldrb.w	r3, [r4, #36]	@ 0x24
 8001616:	2b01      	cmp	r3, #1
 8001618:	d07c      	beq.n	8001714 <HAL_ADC_Start_DMA+0x118>
 800161a:	2301      	movs	r3, #1
 800161c:	f884 3024 	strb.w	r3, [r4, #36]	@ 0x24
    tmp_hal_status = ADC_Enable(hadc);
 8001620:	4620      	mov	r0, r4
 8001622:	f7ff ffa7 	bl	8001574 <ADC_Enable>
    if (tmp_hal_status == HAL_OK)
 8001626:	4607      	mov	r7, r0
 8001628:	2800      	cmp	r0, #0
 800162a:	d16e      	bne.n	800170a <HAL_ADC_Start_DMA+0x10e>
      ADC_STATE_CLR_SET(hadc->State,
 800162c:	6aa1      	ldr	r1, [r4, #40]	@ 0x28
 800162e:	f421 6170 	bic.w	r1, r1, #3840	@ 0xf00
 8001632:	f021 0101 	bic.w	r1, r1, #1
 8001636:	f441 7180 	orr.w	r1, r1, #256	@ 0x100
 800163a:	62a1      	str	r1, [r4, #40]	@ 0x28
    if (ADC_NONMULTIMODE_OR_MULTIMODEMASTER(hadc))
 800163c:	6822      	ldr	r2, [r4, #0]
 800163e:	4b37      	ldr	r3, [pc, #220]	@ (800171c <HAL_ADC_Start_DMA+0x120>)
 8001640:	429a      	cmp	r2, r3
 8001642:	d044      	beq.n	80016ce <HAL_ADC_Start_DMA+0xd2>
      CLEAR_BIT(hadc->State, HAL_ADC_STATE_MULTIMODE_SLAVE);
 8001644:	6aa3      	ldr	r3, [r4, #40]	@ 0x28
 8001646:	f423 1380 	bic.w	r3, r3, #1048576	@ 0x100000
 800164a:	62a3      	str	r3, [r4, #40]	@ 0x28
      if (READ_BIT(hadc->Instance->CR1, ADC_CR1_JAUTO) != RESET)
 800164c:	6853      	ldr	r3, [r2, #4]
 800164e:	f413 6f80 	tst.w	r3, #1024	@ 0x400
 8001652:	d005      	beq.n	8001660 <HAL_ADC_Start_DMA+0x64>
        ADC_STATE_CLR_SET(hadc->State, HAL_ADC_STATE_INJ_EOC, HAL_ADC_STATE_INJ_BUSY);  
 8001654:	6aa3      	ldr	r3, [r4, #40]	@ 0x28
 8001656:	f423 5340 	bic.w	r3, r3, #12288	@ 0x3000
 800165a:	f443 5380 	orr.w	r3, r3, #4096	@ 0x1000
 800165e:	62a3      	str	r3, [r4, #40]	@ 0x28
      if (HAL_IS_BIT_SET(hadc->State, HAL_ADC_STATE_INJ_BUSY))
 8001660:	6aa3      	ldr	r3, [r4, #40]	@ 0x28
 8001662:	f413 5f80 	tst.w	r3, #4096	@ 0x1000
 8001666:	d048      	beq.n	80016fa <HAL_ADC_Start_DMA+0xfe>
        CLEAR_BIT(hadc->ErrorCode, (HAL_ADC_ERROR_OVR | HAL_ADC_ERROR_DMA));         
 8001668:	6ae3      	ldr	r3, [r4, #44]	@ 0x2c
 800166a:	f023 0306 	bic.w	r3, r3, #6
 800166e:	62e3      	str	r3, [r4, #44]	@ 0x2c
      __HAL_UNLOCK(hadc);
 8001670:	2300      	movs	r3, #0
 8001672:	f884 3024 	strb.w	r3, [r4, #36]	@ 0x24
      hadc->DMA_Handle->XferCpltCallback = ADC_DMAConvCplt;
 8001676:	6a23      	ldr	r3, [r4, #32]
 8001678:	4a29      	ldr	r2, [pc, #164]	@ (8001720 <HAL_ADC_Start_DMA+0x124>)
 800167a:	629a      	str	r2, [r3, #40]	@ 0x28
      hadc->DMA_Handle->XferHalfCpltCallback = ADC_DMAHalfConvCplt;
 800167c:	6a23      	ldr	r3, [r4, #32]
 800167e:	4a29      	ldr	r2, [pc, #164]	@ (8001724 <HAL_ADC_Start_DMA+0x128>)
 8001680:	62da      	str	r2, [r3, #44]	@ 0x2c
      hadc->DMA_Handle->XferErrorCallback = ADC_DMAError;
 8001682:	6a23      	ldr	r3, [r4, #32]
 8001684:	4a28      	ldr	r2, [pc, #160]	@ (8001728 <HAL_ADC_Start_DMA+0x12c>)
 8001686:	631a      	str	r2, [r3, #48]	@ 0x30
      __HAL_ADC_CLEAR_FLAG(hadc, ADC_FLAG_EOC);
 8001688:	6823      	ldr	r3, [r4, #0]
 800168a:	f06f 0202 	mvn.w	r2, #2
 800168e:	601a      	str	r2, [r3, #0]
      SET_BIT(hadc->Instance->CR2, ADC_CR2_DMA);
 8001690:	6822      	ldr	r2, [r4, #0]
 8001692:	6893      	ldr	r3, [r2, #8]
 8001694:	f443 7380 	orr.w	r3, r3, #256	@ 0x100
 8001698:	6093      	str	r3, [r2, #8]
      HAL_DMA_Start_IT(hadc->DMA_Handle, (uint32_t)&hadc->Instance->DR, (uint32_t)pData, Length);
 800169a:	6821      	ldr	r1, [r4, #0]
 800169c:	4633      	mov	r3, r6
 800169e:	462a      	mov	r2, r5
 80016a0:	314c      	adds	r1, #76	@ 0x4c
 80016a2:	6a20      	ldr	r0, [r4, #32]
 80016a4:	f000 f9b4 	bl	8001a10 <HAL_DMA_Start_IT>
      if (ADC_IS_SOFTWARE_START_REGULAR(hadc))
 80016a8:	6823      	ldr	r3, [r4, #0]
 80016aa:	689a      	ldr	r2, [r3, #8]
 80016ac:	f402 2260 	and.w	r2, r2, #917504	@ 0xe0000
 80016b0:	f5b2 2f60 	cmp.w	r2, #917504	@ 0xe0000
 80016b4:	d024      	beq.n	8001700 <HAL_ADC_Start_DMA+0x104>
        SET_BIT(hadc->Instance->CR2, ADC_CR2_EXTTRIG);
 80016b6:	689a      	ldr	r2, [r3, #8]
 80016b8:	f442 1280 	orr.w	r2, r2, #1048576	@ 0x100000
 80016bc:	609a      	str	r2, [r3, #8]
 80016be:	e027      	b.n	8001710 <HAL_ADC_Start_DMA+0x114>
  if(ADC_MULTIMODE_IS_ENABLE(hadc) == RESET)
 80016c0:	4b15      	ldr	r3, [pc, #84]	@ (8001718 <HAL_ADC_Start_DMA+0x11c>)
 80016c2:	685b      	ldr	r3, [r3, #4]
 80016c4:	f413 2f70 	tst.w	r3, #983040	@ 0xf0000
 80016c8:	d0a3      	beq.n	8001612 <HAL_ADC_Start_DMA+0x16>
    tmp_hal_status = HAL_ERROR;
 80016ca:	2701      	movs	r7, #1
 80016cc:	e020      	b.n	8001710 <HAL_ADC_Start_DMA+0x114>
    if (ADC_NONMULTIMODE_OR_MULTIMODEMASTER(hadc))
 80016ce:	f5a3 6380 	sub.w	r3, r3, #1024	@ 0x400
 80016d2:	685b      	ldr	r3, [r3, #4]
 80016d4:	f413 2f70 	tst.w	r3, #983040	@ 0xf0000
 80016d8:	d0b4      	beq.n	8001644 <HAL_ADC_Start_DMA+0x48>
      SET_BIT(hadc->State, HAL_ADC_STATE_MULTIMODE_SLAVE);
 80016da:	6aa3      	ldr	r3, [r4, #40]	@ 0x28
 80016dc:	f443 1380 	orr.w	r3, r3, #1048576	@ 0x100000
 80016e0:	62a3      	str	r3, [r4, #40]	@ 0x28
      if (ADC_MULTIMODE_AUTO_INJECTED(hadc))
 80016e2:	4b0d      	ldr	r3, [pc, #52]	@ (8001718 <HAL_ADC_Start_DMA+0x11c>)
 80016e4:	685b      	ldr	r3, [r3, #4]
 80016e6:	f413 6f80 	tst.w	r3, #1024	@ 0x400
 80016ea:	d0b9      	beq.n	8001660 <HAL_ADC_Start_DMA+0x64>
        ADC_STATE_CLR_SET(hadc->State, HAL_ADC_STATE_INJ_EOC, HAL_ADC_STATE_INJ_BUSY);
 80016ec:	6aa3      	ldr	r3, [r4, #40]	@ 0x28
 80016ee:	f423 5340 	bic.w	r3, r3, #12288	@ 0x3000
 80016f2:	f443 5380 	orr.w	r3, r3, #4096	@ 0x1000
 80016f6:	62a3      	str	r3, [r4, #40]	@ 0x28
 80016f8:	e7b2      	b.n	8001660 <HAL_ADC_Start_DMA+0x64>
        ADC_CLEAR_ERRORCODE(hadc);
 80016fa:	2300      	movs	r3, #0
 80016fc:	62e3      	str	r3, [r4, #44]	@ 0x2c
 80016fe:	e7b7      	b.n	8001670 <HAL_ADC_Start_DMA+0x74>
        SET_BIT(hadc->Instance->CR2, (ADC_CR2_SWSTART | ADC_CR2_EXTTRIG));
 8001700:	689a      	ldr	r2, [r3, #8]
 8001702:	f442 02a0 	orr.w	r2, r2, #5242880	@ 0x500000
 8001706:	609a      	str	r2, [r3, #8]
 8001708:	e002      	b.n	8001710 <HAL_ADC_Start_DMA+0x114>
      __HAL_UNLOCK(hadc);
 800170a:	2300      	movs	r3, #0
 800170c:	f884 3024 	strb.w	r3, [r4, #36]	@ 0x24
}
 8001710:	4638      	mov	r0, r7
 8001712:	bdf8      	pop	{r3, r4, r5, r6, r7, pc}
    __HAL_LOCK(hadc);
 8001714:	2702      	movs	r7, #2
 8001716:	e7fb      	b.n	8001710 <HAL_ADC_Start_DMA+0x114>
 8001718:	40012400 	.word	0x40012400
 800171c:	40012800 	.word	0x40012800
 8001720:	080013b9 	.word	0x080013b9
 8001724:	0800140d 	.word	0x0800140d
 8001728:	08001419 	.word	0x08001419

0800172c <ADC_ConversionStop_Disable>:
{
 800172c:	b538      	push	{r3, r4, r5, lr}
  if (ADC_IS_ENABLE(hadc) != RESET)
 800172e:	6803      	ldr	r3, [r0, #0]
 8001730:	689a      	ldr	r2, [r3, #8]
 8001732:	f012 0f01 	tst.w	r2, #1
 8001736:	d101      	bne.n	800173c <ADC_ConversionStop_Disable+0x10>
  return HAL_OK;
 8001738:	2000      	movs	r0, #0
}
 800173a:	bd38      	pop	{r3, r4, r5, pc}
 800173c:	4604      	mov	r4, r0
    __HAL_ADC_DISABLE(hadc);
 800173e:	689a      	ldr	r2, [r3, #8]
 8001740:	f022 0201 	bic.w	r2, r2, #1
 8001744:	609a      	str	r2, [r3, #8]
    tickstart = HAL_GetTick();
 8001746:	f7ff fe1d 	bl	8001384 <HAL_GetTick>
 800174a:	4605      	mov	r5, r0
    while(ADC_IS_ENABLE(hadc) != RESET)
 800174c:	6823      	ldr	r3, [r4, #0]
 800174e:	689b      	ldr	r3, [r3, #8]
 8001750:	f013 0f01 	tst.w	r3, #1
 8001754:	d013      	beq.n	800177e <ADC_ConversionStop_Disable+0x52>
      if((HAL_GetTick() - tickstart) > ADC_DISABLE_TIMEOUT)
 8001756:	f7ff fe15 	bl	8001384 <HAL_GetTick>
 800175a:	1b43      	subs	r3, r0, r5
 800175c:	2b02      	cmp	r3, #2
 800175e:	d9f5      	bls.n	800174c <ADC_ConversionStop_Disable+0x20>
        if(ADC_IS_ENABLE(hadc) != RESET)
 8001760:	6823      	ldr	r3, [r4, #0]
 8001762:	689b      	ldr	r3, [r3, #8]
 8001764:	f013 0f01 	tst.w	r3, #1
 8001768:	d0f0      	beq.n	800174c <ADC_ConversionStop_Disable+0x20>
          SET_BIT(hadc->State, HAL_ADC_STATE_ERROR_INTERNAL);
 800176a:	6aa3      	ldr	r3, [r4, #40]	@ 0x28
 800176c:	f043 0310 	orr.w	r3, r3, #16
 8001770:	62a3      	str	r3, [r4, #40]	@ 0x28
          SET_BIT(hadc->ErrorCode, HAL_ADC_ERROR_INTERNAL);
 8001772:	6ae3      	ldr	r3, [r4, #44]	@ 0x2c
 8001774:	f043 0301 	orr.w	r3, r3, #1
 8001778:	62e3      	str	r3, [r4, #44]	@ 0x2c
          return HAL_ERROR;
 800177a:	2001      	movs	r0, #1
 800177c:	e7dd      	b.n	800173a <ADC_ConversionStop_Disable+0xe>
  return HAL_OK;
 800177e:	2000      	movs	r0, #0
 8001780:	e7db      	b.n	800173a <ADC_ConversionStop_Disable+0xe>
	...

08001784 <HAL_ADC_Init>:
  if(hadc == NULL)
 8001784:	2800      	cmp	r0, #0
 8001786:	d07b      	beq.n	8001880 <HAL_ADC_Init+0xfc>
{
 8001788:	b570      	push	{r4, r5, r6, lr}
 800178a:	4604      	mov	r4, r0
  if (hadc->State == HAL_ADC_STATE_RESET)
 800178c:	6a83      	ldr	r3, [r0, #40]	@ 0x28
 800178e:	2b00      	cmp	r3, #0
 8001790:	d04d      	beq.n	800182e <HAL_ADC_Init+0xaa>
  tmp_hal_status = ADC_ConversionStop_Disable(hadc);
 8001792:	4620      	mov	r0, r4
 8001794:	f7ff ffca 	bl	800172c <ADC_ConversionStop_Disable>
  if (HAL_IS_BIT_CLR(hadc->State, HAL_ADC_STATE_ERROR_INTERNAL) &&
 8001798:	6aa3      	ldr	r3, [r4, #40]	@ 0x28
 800179a:	f013 0310 	ands.w	r3, r3, #16
 800179e:	d169      	bne.n	8001874 <HAL_ADC_Init+0xf0>
 80017a0:	2800      	cmp	r0, #0
 80017a2:	d167      	bne.n	8001874 <HAL_ADC_Init+0xf0>
    ADC_STATE_CLR_SET(hadc->State,
 80017a4:	6aa2      	ldr	r2, [r4, #40]	@ 0x28
 80017a6:	f422 5288 	bic.w	r2, r2, #4352	@ 0x1100
 80017aa:	f022 0202 	bic.w	r2, r2, #2
 80017ae:	f042 0202 	orr.w	r2, r2, #2
 80017b2:	62a2      	str	r2, [r4, #40]	@ 0x28
    tmp_cr2 |= (hadc->Init.DataAlign                                          |
 80017b4:	6862      	ldr	r2, [r4, #4]
                ADC_CFGR_EXTSEL(hadc, hadc->Init.ExternalTrigConv)            |
 80017b6:	69e1      	ldr	r1, [r4, #28]
    tmp_cr2 |= (hadc->Init.DataAlign                                          |
 80017b8:	430a      	orrs	r2, r1
                ADC_CR2_CONTINUOUS((uint32_t)hadc->Init.ContinuousConvMode)   );
 80017ba:	7b21      	ldrb	r1, [r4, #12]
                ADC_CFGR_EXTSEL(hadc, hadc->Init.ExternalTrigConv)            |
 80017bc:	ea42 0241 	orr.w	r2, r2, r1, lsl #1
    tmp_cr1 |= (ADC_CR1_SCAN_SET(hadc->Init.ScanConvMode));
 80017c0:	68a5      	ldr	r5, [r4, #8]
 80017c2:	f5b5 7f80 	cmp.w	r5, #256	@ 0x100
 80017c6:	d002      	beq.n	80017ce <HAL_ADC_Init+0x4a>
 80017c8:	2d01      	cmp	r5, #1
 80017ca:	d036      	beq.n	800183a <HAL_ADC_Init+0xb6>
 80017cc:	461d      	mov	r5, r3
    if (hadc->Init.DiscontinuousConvMode == ENABLE)
 80017ce:	7d26      	ldrb	r6, [r4, #20]
 80017d0:	2e01      	cmp	r6, #1
 80017d2:	d035      	beq.n	8001840 <HAL_ADC_Init+0xbc>
      MODIFY_REG(hadc->Instance->CR1,
 80017d4:	6826      	ldr	r6, [r4, #0]
 80017d6:	6871      	ldr	r1, [r6, #4]
 80017d8:	f421 4169 	bic.w	r1, r1, #59648	@ 0xe900
 80017dc:	4329      	orrs	r1, r5
 80017de:	6071      	str	r1, [r6, #4]
      MODIFY_REG(hadc->Instance->CR2,
 80017e0:	6825      	ldr	r5, [r4, #0]
 80017e2:	68ae      	ldr	r6, [r5, #8]
 80017e4:	4927      	ldr	r1, [pc, #156]	@ (8001884 <HAL_ADC_Init+0x100>)
 80017e6:	4031      	ands	r1, r6
 80017e8:	4311      	orrs	r1, r2
 80017ea:	60a9      	str	r1, [r5, #8]
    if (ADC_CR1_SCAN_SET(hadc->Init.ScanConvMode) == ADC_SCAN_ENABLE)
 80017ec:	68a1      	ldr	r1, [r4, #8]
 80017ee:	f5b1 7f80 	cmp.w	r1, #256	@ 0x100
 80017f2:	d001      	beq.n	80017f8 <HAL_ADC_Init+0x74>
 80017f4:	2901      	cmp	r1, #1
 80017f6:	d102      	bne.n	80017fe <HAL_ADC_Init+0x7a>
      tmp_sqr1 = ADC_SQR1_L_SHIFT(hadc->Init.NbrOfConversion);
 80017f8:	6923      	ldr	r3, [r4, #16]
 80017fa:	3b01      	subs	r3, #1
 80017fc:	051b      	lsls	r3, r3, #20
    MODIFY_REG(hadc->Instance->SQR1,
 80017fe:	6825      	ldr	r5, [r4, #0]
 8001800:	6ae9      	ldr	r1, [r5, #44]	@ 0x2c
 8001802:	f421 0170 	bic.w	r1, r1, #15728640	@ 0xf00000
 8001806:	430b      	orrs	r3, r1
 8001808:	62eb      	str	r3, [r5, #44]	@ 0x2c
    if (READ_BIT(hadc->Instance->CR2, ~(ADC_CR2_ADON | ADC_CR2_DMA |
 800180a:	6823      	ldr	r3, [r4, #0]
 800180c:	6899      	ldr	r1, [r3, #8]
 800180e:	4b1e      	ldr	r3, [pc, #120]	@ (8001888 <HAL_ADC_Init+0x104>)
 8001810:	400b      	ands	r3, r1
 8001812:	429a      	cmp	r2, r3
 8001814:	d025      	beq.n	8001862 <HAL_ADC_Init+0xde>
      ADC_STATE_CLR_SET(hadc->State,
 8001816:	6aa3      	ldr	r3, [r4, #40]	@ 0x28
 8001818:	f023 0312 	bic.w	r3, r3, #18
 800181c:	f043 0310 	orr.w	r3, r3, #16
 8001820:	62a3      	str	r3, [r4, #40]	@ 0x28
      SET_BIT(hadc->ErrorCode, HAL_ADC_ERROR_INTERNAL);
 8001822:	6ae3      	ldr	r3, [r4, #44]	@ 0x2c
 8001824:	f043 0301 	orr.w	r3, r3, #1
 8001828:	62e3      	str	r3, [r4, #44]	@ 0x2c
      tmp_hal_status = HAL_ERROR;
 800182a:	2001      	movs	r0, #1
 800182c:	e027      	b.n	800187e <HAL_ADC_Init+0xfa>
    ADC_CLEAR_ERRORCODE(hadc);
 800182e:	62c3      	str	r3, [r0, #44]	@ 0x2c
    hadc->Lock = HAL_UNLOCKED;
 8001830:	f880 3024 	strb.w	r3, [r0, #36]	@ 0x24
    HAL_ADC_MspInit(hadc);
 8001834:	f7fe fe86 	bl	8000544 <HAL_ADC_MspInit>
 8001838:	e7ab      	b.n	8001792 <HAL_ADC_Init+0xe>
    tmp_cr1 |= (ADC_CR1_SCAN_SET(hadc->Init.ScanConvMode));
 800183a:	f44f 7580 	mov.w	r5, #256	@ 0x100
 800183e:	e7c6      	b.n	80017ce <HAL_ADC_Init+0x4a>
      if (hadc->Init.ContinuousConvMode == DISABLE)
 8001840:	b931      	cbnz	r1, 8001850 <HAL_ADC_Init+0xcc>
        SET_BIT(tmp_cr1, ADC_CR1_DISCEN                                            |
 8001842:	69a1      	ldr	r1, [r4, #24]
 8001844:	3901      	subs	r1, #1
 8001846:	ea45 3141 	orr.w	r1, r5, r1, lsl #13
 800184a:	f441 6500 	orr.w	r5, r1, #2048	@ 0x800
 800184e:	e7c1      	b.n	80017d4 <HAL_ADC_Init+0x50>
        SET_BIT(hadc->State, HAL_ADC_STATE_ERROR_CONFIG);
 8001850:	6aa1      	ldr	r1, [r4, #40]	@ 0x28
 8001852:	f041 0120 	orr.w	r1, r1, #32
 8001856:	62a1      	str	r1, [r4, #40]	@ 0x28
        SET_BIT(hadc->ErrorCode, HAL_ADC_ERROR_INTERNAL);
 8001858:	6ae1      	ldr	r1, [r4, #44]	@ 0x2c
 800185a:	f041 0101 	orr.w	r1, r1, #1
 800185e:	62e1      	str	r1, [r4, #44]	@ 0x2c
 8001860:	e7b8      	b.n	80017d4 <HAL_ADC_Init+0x50>
      ADC_CLEAR_ERRORCODE(hadc);
 8001862:	2300      	movs	r3, #0
 8001864:	62e3      	str	r3, [r4, #44]	@ 0x2c
      ADC_STATE_CLR_SET(hadc->State,
 8001866:	6aa3      	ldr	r3, [r4, #40]	@ 0x28
 8001868:	f023 0303 	bic.w	r3, r3, #3
 800186c:	f043 0301 	orr.w	r3, r3, #1
 8001870:	62a3      	str	r3, [r4, #40]	@ 0x28
 8001872:	e004      	b.n	800187e <HAL_ADC_Init+0xfa>
    SET_BIT(hadc->State, HAL_ADC_STATE_ERROR_INTERNAL);
 8001874:	6aa3      	ldr	r3, [r4, #40]	@ 0x28
 8001876:	f043 0310 	orr.w	r3, r3, #16
 800187a:	62a3      	str	r3, [r4, #40]	@ 0x28
    tmp_hal_status = HAL_ERROR;
 800187c:	2001      	movs	r0, #1
}
 800187e:	bd70      	pop	{r4, r5, r6, pc}
    return HAL_ERROR;
 8001880:	2001      	movs	r0, #1
}
 8001882:	4770      	bx	lr
 8001884:	ffe1f7fd 	.word	0xffe1f7fd
 8001888:	ff1f0efe 	.word	0xff1f0efe

0800188c <__NVIC_SetPriority>:
  \param [in]  priority  Priority to set.
  \note    The priority cannot be set for every processor exception.
 */
__STATIC_INLINE void __NVIC_SetPriority(IRQn_Type IRQn, uint32_t priority)
{
  if ((int32_t)(IRQn) >= 0)
 800188c:	2800      	cmp	r0, #0
 800188e:	db08      	blt.n	80018a2 <__NVIC_SetPriority+0x16>
  {
    NVIC->IP[((uint32_t)IRQn)]               = (uint8_t)((priority << (8U - __NVIC_PRIO_BITS)) & (uint32_t)0xFFUL);
 8001890:	0109      	lsls	r1, r1, #4
 8001892:	b2c9      	uxtb	r1, r1
 8001894:	f100 4060 	add.w	r0, r0, #3758096384	@ 0xe0000000
 8001898:	f500 4061 	add.w	r0, r0, #57600	@ 0xe100
 800189c:	f880 1300 	strb.w	r1, [r0, #768]	@ 0x300
 80018a0:	4770      	bx	lr
  }
  else
  {
    SCB->SHP[(((uint32_t)IRQn) & 0xFUL)-4UL] = (uint8_t)((priority << (8U - __NVIC_PRIO_BITS)) & (uint32_t)0xFFUL);
 80018a2:	f000 000f 	and.w	r0, r0, #15
 80018a6:	0109      	lsls	r1, r1, #4
 80018a8:	b2c9      	uxtb	r1, r1
 80018aa:	4b01      	ldr	r3, [pc, #4]	@ (80018b0 <__NVIC_SetPriority+0x24>)
 80018ac:	5419      	strb	r1, [r3, r0]
  }
}
 80018ae:	4770      	bx	lr
 80018b0:	e000ed14 	.word	0xe000ed14

080018b4 <NVIC_EncodePriority>:
  \param [in]   PreemptPriority  Preemptive priority value (starting from 0).
  \param [in]       SubPriority  Subpriority value (starting from 0).
  \return                        Encoded priority. Value can be used in the function \ref NVIC_SetPriority().
 */
__STATIC_INLINE uint32_t NVIC_EncodePriority (uint32_t PriorityGroup, uint32_t PreemptPriority, uint32_t SubPriority)
{
 80018b4:	b500      	push	{lr}
  uint32_t PriorityGroupTmp = (PriorityGroup & (uint32_t)0x07UL);   /* only values 0..7 are used          */
 80018b6:	f000 0007 	and.w	r0, r0, #7
  uint32_t PreemptPriorityBits;
  uint32_t SubPriorityBits;

  PreemptPriorityBits = ((7UL - PriorityGroupTmp) > (uint32_t)(__NVIC_PRIO_BITS)) ? (uint32_t)(__NVIC_PRIO_BITS) : (uint32_t)(7UL - PriorityGroupTmp);
 80018ba:	f1c0 0c07 	rsb	ip, r0, #7
 80018be:	f1bc 0f04 	cmp.w	ip, #4
 80018c2:	bf28      	it	cs
 80018c4:	f04f 0c04 	movcs.w	ip, #4
  SubPriorityBits     = ((PriorityGroupTmp + (uint32_t)(__NVIC_PRIO_BITS)) < (uint32_t)7UL) ? (uint32_t)0UL : (uint32_t)((PriorityGroupTmp - 7UL) + (uint32_t)(__NVIC_PRIO_BITS));
 80018c8:	1d03      	adds	r3, r0, #4
 80018ca:	2b06      	cmp	r3, #6
 80018cc:	d90f      	bls.n	80018ee <NVIC_EncodePriority+0x3a>
 80018ce:	1ec3      	subs	r3, r0, #3

  return (
           ((PreemptPriority & (uint32_t)((1UL << (PreemptPriorityBits)) - 1UL)) << SubPriorityBits) |
 80018d0:	f04f 3eff 	mov.w	lr, #4294967295
 80018d4:	fa0e f00c 	lsl.w	r0, lr, ip
 80018d8:	ea21 0100 	bic.w	r1, r1, r0
 80018dc:	4099      	lsls	r1, r3
           ((SubPriority     & (uint32_t)((1UL << (SubPriorityBits    )) - 1UL)))
 80018de:	fa0e fe03 	lsl.w	lr, lr, r3
 80018e2:	ea22 020e 	bic.w	r2, r2, lr
         );
}
 80018e6:	ea41 0002 	orr.w	r0, r1, r2
 80018ea:	f85d fb04 	ldr.w	pc, [sp], #4
  SubPriorityBits     = ((PriorityGroupTmp + (uint32_t)(__NVIC_PRIO_BITS)) < (uint32_t)7UL) ? (uint32_t)0UL : (uint32_t)((PriorityGroupTmp - 7UL) + (uint32_t)(__NVIC_PRIO_BITS));
 80018ee:	2300      	movs	r3, #0
 80018f0:	e7ee      	b.n	80018d0 <NVIC_EncodePriority+0x1c>
	...

080018f4 <HAL_NVIC_SetPriorityGrouping>:
  reg_value  =  SCB->AIRCR;                                                   /* read old register configuration    */
 80018f4:	4a07      	ldr	r2, [pc, #28]	@ (8001914 <HAL_NVIC_SetPriorityGrouping+0x20>)
 80018f6:	68d3      	ldr	r3, [r2, #12]
  reg_value &= ~((uint32_t)(SCB_AIRCR_VECTKEY_Msk | SCB_AIRCR_PRIGROUP_Msk)); /* clear bits to change               */
 80018f8:	f423 63e0 	bic.w	r3, r3, #1792	@ 0x700
 80018fc:	041b      	lsls	r3, r3, #16
 80018fe:	0c1b      	lsrs	r3, r3, #16
                (PriorityGroupTmp << SCB_AIRCR_PRIGROUP_Pos) );               /* Insert write key and priority group */
 8001900:	0200      	lsls	r0, r0, #8
 8001902:	f400 60e0 	and.w	r0, r0, #1792	@ 0x700
                ((uint32_t)0x5FAUL << SCB_AIRCR_VECTKEY_Pos) |
 8001906:	4303      	orrs	r3, r0
  reg_value  =  (reg_value                                   |
 8001908:	f043 63bf 	orr.w	r3, r3, #100139008	@ 0x5f80000
 800190c:	f443 3300 	orr.w	r3, r3, #131072	@ 0x20000
  SCB->AIRCR =  reg_value;
 8001910:	60d3      	str	r3, [r2, #12]
  /* Check the parameters */
  assert_param(IS_NVIC_PRIORITY_GROUP(PriorityGroup));
  
  /* Set the PRIGROUP[10:8] bits according to the PriorityGroup parameter value */
  NVIC_SetPriorityGrouping(PriorityGroup);
}
 8001912:	4770      	bx	lr
 8001914:	e000ed00 	.word	0xe000ed00

08001918 <HAL_NVIC_SetPriority>:
  *         This parameter can be a value between 0 and 15
  *         A lower priority value indicates a higher priority.          
  * @retval None
  */
void HAL_NVIC_SetPriority(IRQn_Type IRQn, uint32_t PreemptPriority, uint32_t SubPriority)
{ 
 8001918:	b510      	push	{r4, lr}
 800191a:	4604      	mov	r4, r0
  return ((uint32_t)((SCB->AIRCR & SCB_AIRCR_PRIGROUP_Msk) >> SCB_AIRCR_PRIGROUP_Pos));
 800191c:	4b05      	ldr	r3, [pc, #20]	@ (8001934 <HAL_NVIC_SetPriority+0x1c>)
 800191e:	68d8      	ldr	r0, [r3, #12]
  assert_param(IS_NVIC_SUB_PRIORITY(SubPriority));
  assert_param(IS_NVIC_PREEMPTION_PRIORITY(PreemptPriority));
  
  prioritygroup = NVIC_GetPriorityGrouping();
  
  NVIC_SetPriority(IRQn, NVIC_EncodePriority(prioritygroup, PreemptPriority, SubPriority));
 8001920:	f3c0 2002 	ubfx	r0, r0, #8, #3
 8001924:	f7ff ffc6 	bl	80018b4 <NVIC_EncodePriority>
 8001928:	4601      	mov	r1, r0
 800192a:	4620      	mov	r0, r4
 800192c:	f7ff ffae 	bl	800188c <__NVIC_SetPriority>
}
 8001930:	bd10      	pop	{r4, pc}
 8001932:	bf00      	nop
 8001934:	e000ed00 	.word	0xe000ed00

08001938 <HAL_NVIC_EnableIRQ>:
  if ((int32_t)(IRQn) >= 0)
 8001938:	2800      	cmp	r0, #0
 800193a:	db07      	blt.n	800194c <HAL_NVIC_EnableIRQ+0x14>
    NVIC->ISER[(((uint32_t)IRQn) >> 5UL)] = (uint32_t)(1UL << (((uint32_t)IRQn) & 0x1FUL));
 800193c:	f000 021f 	and.w	r2, r0, #31
 8001940:	0940      	lsrs	r0, r0, #5
 8001942:	2301      	movs	r3, #1
 8001944:	4093      	lsls	r3, r2
 8001946:	4a02      	ldr	r2, [pc, #8]	@ (8001950 <HAL_NVIC_EnableIRQ+0x18>)
 8001948:	f842 3020 	str.w	r3, [r2, r0, lsl #2]
  /* Check the parameters */
  assert_param(IS_NVIC_DEVICE_IRQ(IRQn));

  /* Enable interrupt */
  NVIC_EnableIRQ(IRQn);
}
 800194c:	4770      	bx	lr
 800194e:	bf00      	nop
 8001950:	e000e100 	.word	0xe000e100

08001954 <HAL_SYSTICK_Config>:
           function <b>SysTick_Config</b> is not included. In this case, the file <b><i>device</i>.h</b>
           must contain a vendor-specific implementation of this function.
 */
__STATIC_INLINE uint32_t SysTick_Config(uint32_t ticks)
{
  if ((ticks - 1UL) > SysTick_LOAD_RELOAD_Msk)
 8001954:	3801      	subs	r0, #1
 8001956:	f1b0 7f80 	cmp.w	r0, #16777216	@ 0x1000000
 800195a:	d20b      	bcs.n	8001974 <HAL_SYSTICK_Config+0x20>
  {
    return (1UL);                                                   /* Reload value impossible */
  }

  SysTick->LOAD  = (uint32_t)(ticks - 1UL);                         /* set reload register */
 800195c:	f04f 23e0 	mov.w	r3, #3758153728	@ 0xe000e000
 8001960:	6158      	str	r0, [r3, #20]
    SCB->SHP[(((uint32_t)IRQn) & 0xFUL)-4UL] = (uint8_t)((priority << (8U - __NVIC_PRIO_BITS)) & (uint32_t)0xFFUL);
 8001962:	4a05      	ldr	r2, [pc, #20]	@ (8001978 <HAL_SYSTICK_Config+0x24>)
 8001964:	21f0      	movs	r1, #240	@ 0xf0
 8001966:	f882 1023 	strb.w	r1, [r2, #35]	@ 0x23
  NVIC_SetPriority (SysTick_IRQn, (1UL << __NVIC_PRIO_BITS) - 1UL); /* set Priority for Systick Interrupt */
  SysTick->VAL   = 0UL;                                             /* Load the SysTick Counter Value */
 800196a:	2000      	movs	r0, #0
 800196c:	6198      	str	r0, [r3, #24]
  SysTick->CTRL  = SysTick_CTRL_CLKSOURCE_Msk |
 800196e:	2207      	movs	r2, #7
 8001970:	611a      	str	r2, [r3, #16]
                   SysTick_CTRL_TICKINT_Msk   |
                   SysTick_CTRL_ENABLE_Msk;                         /* Enable SysTick IRQ and SysTick Timer */
  return (0UL);                                                     /* Function successful */
 8001972:	4770      	bx	lr
    return (1UL);                                                   /* Reload value impossible */
 8001974:	2001      	movs	r0, #1
  *                  - 1  Function failed.
  */
uint32_t HAL_SYSTICK_Config(uint32_t TicksNumb)
{
   return SysTick_Config(TicksNumb);
}
 8001976:	4770      	bx	lr
 8001978:	e000ed00 	.word	0xe000ed00

0800197c <DMA_SetConfig>:
  * @param  DstAddress: The destination memory Buffer address
  * @param  DataLength: The length of data to be transferred from source to destination
  * @retval HAL status
  */
static void DMA_SetConfig(DMA_HandleTypeDef *hdma, uint32_t SrcAddress, uint32_t DstAddress, uint32_t DataLength)
{
 800197c:	b430      	push	{r4, r5}
  /* Clear all flags */
  hdma->DmaBaseAddress->IFCR = (DMA_ISR_GIF1 << hdma->ChannelIndex);
 800197e:	2401      	movs	r4, #1
 8001980:	6c05      	ldr	r5, [r0, #64]	@ 0x40
 8001982:	40ac      	lsls	r4, r5
 8001984:	6bc5      	ldr	r5, [r0, #60]	@ 0x3c
 8001986:	606c      	str	r4, [r5, #4]

  /* Configure DMA Channel data length */
  hdma->Instance->CNDTR = DataLength;
 8001988:	6804      	ldr	r4, [r0, #0]
 800198a:	6063      	str	r3, [r4, #4]

  /* Memory to Peripheral */
  if((hdma->Init.Direction) == DMA_MEMORY_TO_PERIPH)
 800198c:	6843      	ldr	r3, [r0, #4]
 800198e:	2b10      	cmp	r3, #16
 8001990:	d005      	beq.n	800199e <DMA_SetConfig+0x22>
  }
  /* Peripheral to Memory */
  else
  {
    /* Configure DMA Channel source address */
    hdma->Instance->CPAR = SrcAddress;
 8001992:	6803      	ldr	r3, [r0, #0]
 8001994:	6099      	str	r1, [r3, #8]

    /* Configure DMA Channel destination address */
    hdma->Instance->CMAR = DstAddress;
 8001996:	6803      	ldr	r3, [r0, #0]
 8001998:	60da      	str	r2, [r3, #12]
  }
}
 800199a:	bc30      	pop	{r4, r5}
 800199c:	4770      	bx	lr
    hdma->Instance->CPAR = DstAddress;
 800199e:	6803      	ldr	r3, [r0, #0]
 80019a0:	609a      	str	r2, [r3, #8]
    hdma->Instance->CMAR = SrcAddress;
 80019a2:	6803      	ldr	r3, [r0, #0]
 80019a4:	60d9      	str	r1, [r3, #12]
 80019a6:	e7f8      	b.n	800199a <DMA_SetConfig+0x1e>

080019a8 <HAL_DMA_Init>:
  if(hdma == NULL)
 80019a8:	b350      	cbz	r0, 8001a00 <HAL_DMA_Init+0x58>
{
 80019aa:	b410      	push	{r4}
 80019ac:	4602      	mov	r2, r0
  hdma->ChannelIndex = (((uint32_t)hdma->Instance - (uint32_t)DMA1_Channel1) / ((uint32_t)DMA1_Channel2 - (uint32_t)DMA1_Channel1)) << 2;
 80019ae:	6801      	ldr	r1, [r0, #0]
 80019b0:	4b14      	ldr	r3, [pc, #80]	@ (8001a04 <HAL_DMA_Init+0x5c>)
 80019b2:	440b      	add	r3, r1
 80019b4:	4814      	ldr	r0, [pc, #80]	@ (8001a08 <HAL_DMA_Init+0x60>)
 80019b6:	fba0 0303 	umull	r0, r3, r0, r3
 80019ba:	091b      	lsrs	r3, r3, #4
 80019bc:	009b      	lsls	r3, r3, #2
 80019be:	6413      	str	r3, [r2, #64]	@ 0x40
  hdma->DmaBaseAddress = DMA1;
 80019c0:	4b12      	ldr	r3, [pc, #72]	@ (8001a0c <HAL_DMA_Init+0x64>)
 80019c2:	63d3      	str	r3, [r2, #60]	@ 0x3c
  hdma->State = HAL_DMA_STATE_BUSY;
 80019c4:	2302      	movs	r3, #2
 80019c6:	f882 3021 	strb.w	r3, [r2, #33]	@ 0x21
  tmp = hdma->Instance->CCR;
 80019ca:	6808      	ldr	r0, [r1, #0]
  tmp &= ((uint32_t)~(DMA_CCR_PL    | DMA_CCR_MSIZE  | DMA_CCR_PSIZE  | \
 80019cc:	f36f 100d 	bfc	r0, #4, #10
  tmp |=  hdma->Init.Direction        |
 80019d0:	6853      	ldr	r3, [r2, #4]
 80019d2:	6894      	ldr	r4, [r2, #8]
 80019d4:	4323      	orrs	r3, r4
          hdma->Init.PeriphInc           | hdma->Init.MemInc           |
 80019d6:	68d4      	ldr	r4, [r2, #12]
 80019d8:	4323      	orrs	r3, r4
 80019da:	6914      	ldr	r4, [r2, #16]
 80019dc:	4323      	orrs	r3, r4
          hdma->Init.PeriphDataAlignment | hdma->Init.MemDataAlignment |
 80019de:	6954      	ldr	r4, [r2, #20]
 80019e0:	4323      	orrs	r3, r4
 80019e2:	6994      	ldr	r4, [r2, #24]
 80019e4:	4323      	orrs	r3, r4
          hdma->Init.Mode                | hdma->Init.Priority;
 80019e6:	69d4      	ldr	r4, [r2, #28]
 80019e8:	4323      	orrs	r3, r4
  tmp |=  hdma->Init.Direction        |
 80019ea:	4303      	orrs	r3, r0
  hdma->Instance->CCR = tmp;
 80019ec:	600b      	str	r3, [r1, #0]
  hdma->ErrorCode = HAL_DMA_ERROR_NONE;
 80019ee:	2000      	movs	r0, #0
 80019f0:	6390      	str	r0, [r2, #56]	@ 0x38
  hdma->State = HAL_DMA_STATE_READY;
 80019f2:	2301      	movs	r3, #1
 80019f4:	f882 3021 	strb.w	r3, [r2, #33]	@ 0x21
  hdma->Lock = HAL_UNLOCKED;
 80019f8:	f882 0020 	strb.w	r0, [r2, #32]
}
 80019fc:	bc10      	pop	{r4}
 80019fe:	4770      	bx	lr
    return HAL_ERROR;
 8001a00:	2001      	movs	r0, #1
}
 8001a02:	4770      	bx	lr
 8001a04:	bffdfff8 	.word	0xbffdfff8
 8001a08:	cccccccd 	.word	0xcccccccd
 8001a0c:	40020000 	.word	0x40020000

08001a10 <HAL_DMA_Start_IT>:
{
 8001a10:	b538      	push	{r3, r4, r5, lr}
 8001a12:	4604      	mov	r4, r0
  __HAL_LOCK(hdma);
 8001a14:	f890 0020 	ldrb.w	r0, [r0, #32]
 8001a18:	2801      	cmp	r0, #1
 8001a1a:	d032      	beq.n	8001a82 <HAL_DMA_Start_IT+0x72>
 8001a1c:	2001      	movs	r0, #1
 8001a1e:	f884 0020 	strb.w	r0, [r4, #32]
  if(HAL_DMA_STATE_READY == hdma->State)
 8001a22:	f894 0021 	ldrb.w	r0, [r4, #33]	@ 0x21
 8001a26:	b2c0      	uxtb	r0, r0
 8001a28:	2801      	cmp	r0, #1
 8001a2a:	d004      	beq.n	8001a36 <HAL_DMA_Start_IT+0x26>
    __HAL_UNLOCK(hdma); 
 8001a2c:	2300      	movs	r3, #0
 8001a2e:	f884 3020 	strb.w	r3, [r4, #32]
    status = HAL_BUSY;
 8001a32:	2002      	movs	r0, #2
}
 8001a34:	bd38      	pop	{r3, r4, r5, pc}
    hdma->State = HAL_DMA_STATE_BUSY;
 8001a36:	2002      	movs	r0, #2
 8001a38:	f884 0021 	strb.w	r0, [r4, #33]	@ 0x21
    hdma->ErrorCode = HAL_DMA_ERROR_NONE;
 8001a3c:	2000      	movs	r0, #0
 8001a3e:	63a0      	str	r0, [r4, #56]	@ 0x38
    __HAL_DMA_DISABLE(hdma);
 8001a40:	6825      	ldr	r5, [r4, #0]
 8001a42:	6828      	ldr	r0, [r5, #0]
 8001a44:	f020 0001 	bic.w	r0, r0, #1
 8001a48:	6028      	str	r0, [r5, #0]
    DMA_SetConfig(hdma, SrcAddress, DstAddress, DataLength);
 8001a4a:	4620      	mov	r0, r4
 8001a4c:	f7ff ff96 	bl	800197c <DMA_SetConfig>
    if(NULL != hdma->XferHalfCpltCallback)
 8001a50:	6ae3      	ldr	r3, [r4, #44]	@ 0x2c
 8001a52:	b15b      	cbz	r3, 8001a6c <HAL_DMA_Start_IT+0x5c>
      __HAL_DMA_ENABLE_IT(hdma, (DMA_IT_TC | DMA_IT_HT | DMA_IT_TE));
 8001a54:	6822      	ldr	r2, [r4, #0]
 8001a56:	6813      	ldr	r3, [r2, #0]
 8001a58:	f043 030e 	orr.w	r3, r3, #14
 8001a5c:	6013      	str	r3, [r2, #0]
    __HAL_DMA_ENABLE(hdma);
 8001a5e:	6822      	ldr	r2, [r4, #0]
 8001a60:	6813      	ldr	r3, [r2, #0]
 8001a62:	f043 0301 	orr.w	r3, r3, #1
 8001a66:	6013      	str	r3, [r2, #0]
  HAL_StatusTypeDef status = HAL_OK;
 8001a68:	2000      	movs	r0, #0
 8001a6a:	e7e3      	b.n	8001a34 <HAL_DMA_Start_IT+0x24>
      __HAL_DMA_DISABLE_IT(hdma, DMA_IT_HT);
 8001a6c:	6822      	ldr	r2, [r4, #0]
 8001a6e:	6813      	ldr	r3, [r2, #0]
 8001a70:	f023 0304 	bic.w	r3, r3, #4
 8001a74:	6013      	str	r3, [r2, #0]
      __HAL_DMA_ENABLE_IT(hdma, (DMA_IT_TC | DMA_IT_TE));
 8001a76:	6822      	ldr	r2, [r4, #0]
 8001a78:	6813      	ldr	r3, [r2, #0]
 8001a7a:	f043 030a 	orr.w	r3, r3, #10
 8001a7e:	6013      	str	r3, [r2, #0]
 8001a80:	e7ed      	b.n	8001a5e <HAL_DMA_Start_IT+0x4e>
  __HAL_LOCK(hdma);
 8001a82:	2002      	movs	r0, #2
 8001a84:	e7d6      	b.n	8001a34 <HAL_DMA_Start_IT+0x24>
	...

08001a88 <HAL_DMA_IRQHandler>:
{
 8001a88:	b538      	push	{r3, r4, r5, lr}
  uint32_t flag_it = hdma->DmaBaseAddress->ISR;
 8001a8a:	6bc3      	ldr	r3, [r0, #60]	@ 0x3c
 8001a8c:	681a      	ldr	r2, [r3, #0]
  uint32_t source_it = hdma->Instance->CCR;
 8001a8e:	6804      	ldr	r4, [r0, #0]
 8001a90:	6825      	ldr	r5, [r4, #0]
  if (((flag_it & (DMA_FLAG_HT1 << hdma->ChannelIndex)) != RESET) && ((source_it & DMA_IT_HT) != RESET))
 8001a92:	6c01      	ldr	r1, [r0, #64]	@ 0x40
 8001a94:	2304      	movs	r3, #4
 8001a96:	408b      	lsls	r3, r1
 8001a98:	4213      	tst	r3, r2
 8001a9a:	d035      	beq.n	8001b08 <HAL_DMA_IRQHandler+0x80>
 8001a9c:	f015 0f04 	tst.w	r5, #4
 8001aa0:	d032      	beq.n	8001b08 <HAL_DMA_IRQHandler+0x80>
    if((hdma->Instance->CCR & DMA_CCR_CIRC) == 0U)
 8001aa2:	6823      	ldr	r3, [r4, #0]
 8001aa4:	f013 0f20 	tst.w	r3, #32
 8001aa8:	d103      	bne.n	8001ab2 <HAL_DMA_IRQHandler+0x2a>
      __HAL_DMA_DISABLE_IT(hdma, DMA_IT_HT);
 8001aaa:	6823      	ldr	r3, [r4, #0]
 8001aac:	f023 0304 	bic.w	r3, r3, #4
 8001ab0:	6023      	str	r3, [r4, #0]
    __HAL_DMA_CLEAR_FLAG(hdma, __HAL_DMA_GET_HT_FLAG_INDEX(hdma));
 8001ab2:	6803      	ldr	r3, [r0, #0]
 8001ab4:	4a43      	ldr	r2, [pc, #268]	@ (8001bc4 <HAL_DMA_IRQHandler+0x13c>)
 8001ab6:	4293      	cmp	r3, r2
 8001ab8:	d014      	beq.n	8001ae4 <HAL_DMA_IRQHandler+0x5c>
 8001aba:	3214      	adds	r2, #20
 8001abc:	4293      	cmp	r3, r2
 8001abe:	d018      	beq.n	8001af2 <HAL_DMA_IRQHandler+0x6a>
 8001ac0:	3214      	adds	r2, #20
 8001ac2:	4293      	cmp	r3, r2
 8001ac4:	d017      	beq.n	8001af6 <HAL_DMA_IRQHandler+0x6e>
 8001ac6:	3214      	adds	r2, #20
 8001ac8:	4293      	cmp	r3, r2
 8001aca:	d017      	beq.n	8001afc <HAL_DMA_IRQHandler+0x74>
 8001acc:	3214      	adds	r2, #20
 8001ace:	4293      	cmp	r3, r2
 8001ad0:	d017      	beq.n	8001b02 <HAL_DMA_IRQHandler+0x7a>
 8001ad2:	3214      	adds	r2, #20
 8001ad4:	4293      	cmp	r3, r2
 8001ad6:	d002      	beq.n	8001ade <HAL_DMA_IRQHandler+0x56>
 8001ad8:	f04f 6280 	mov.w	r2, #67108864	@ 0x4000000
 8001adc:	e003      	b.n	8001ae6 <HAL_DMA_IRQHandler+0x5e>
 8001ade:	f44f 0280 	mov.w	r2, #4194304	@ 0x400000
 8001ae2:	e000      	b.n	8001ae6 <HAL_DMA_IRQHandler+0x5e>
 8001ae4:	2204      	movs	r2, #4
 8001ae6:	4b38      	ldr	r3, [pc, #224]	@ (8001bc8 <HAL_DMA_IRQHandler+0x140>)
 8001ae8:	605a      	str	r2, [r3, #4]
    if(hdma->XferHalfCpltCallback != NULL)
 8001aea:	6ac3      	ldr	r3, [r0, #44]	@ 0x2c
 8001aec:	b103      	cbz	r3, 8001af0 <HAL_DMA_IRQHandler+0x68>
      hdma->XferHalfCpltCallback(hdma);
 8001aee:	4798      	blx	r3
}
 8001af0:	bd38      	pop	{r3, r4, r5, pc}
    __HAL_DMA_CLEAR_FLAG(hdma, __HAL_DMA_GET_HT_FLAG_INDEX(hdma));
 8001af2:	2240      	movs	r2, #64	@ 0x40
 8001af4:	e7f7      	b.n	8001ae6 <HAL_DMA_IRQHandler+0x5e>
 8001af6:	f44f 6280 	mov.w	r2, #1024	@ 0x400
 8001afa:	e7f4      	b.n	8001ae6 <HAL_DMA_IRQHandler+0x5e>
 8001afc:	f44f 4280 	mov.w	r2, #16384	@ 0x4000
 8001b00:	e7f1      	b.n	8001ae6 <HAL_DMA_IRQHandler+0x5e>
 8001b02:	f44f 2280 	mov.w	r2, #262144	@ 0x40000
 8001b06:	e7ee      	b.n	8001ae6 <HAL_DMA_IRQHandler+0x5e>
  else if (((flag_it & (DMA_FLAG_TC1 << hdma->ChannelIndex)) != RESET) && ((source_it & DMA_IT_TC) != RESET))
 8001b08:	2302      	movs	r3, #2
 8001b0a:	408b      	lsls	r3, r1
 8001b0c:	4213      	tst	r3, r2
 8001b0e:	d03c      	beq.n	8001b8a <HAL_DMA_IRQHandler+0x102>
 8001b10:	f015 0f02 	tst.w	r5, #2
 8001b14:	d039      	beq.n	8001b8a <HAL_DMA_IRQHandler+0x102>
    if((hdma->Instance->CCR & DMA_CCR_CIRC) == 0U)
 8001b16:	6823      	ldr	r3, [r4, #0]
 8001b18:	f013 0f20 	tst.w	r3, #32
 8001b1c:	d106      	bne.n	8001b2c <HAL_DMA_IRQHandler+0xa4>
      __HAL_DMA_DISABLE_IT(hdma, DMA_IT_TE | DMA_IT_TC);  
 8001b1e:	6823      	ldr	r3, [r4, #0]
 8001b20:	f023 030a 	bic.w	r3, r3, #10
 8001b24:	6023      	str	r3, [r4, #0]
      hdma->State = HAL_DMA_STATE_READY;
 8001b26:	2301      	movs	r3, #1
 8001b28:	f880 3021 	strb.w	r3, [r0, #33]	@ 0x21
      __HAL_DMA_CLEAR_FLAG(hdma, __HAL_DMA_GET_TC_FLAG_INDEX(hdma));
 8001b2c:	6803      	ldr	r3, [r0, #0]
 8001b2e:	4a25      	ldr	r2, [pc, #148]	@ (8001bc4 <HAL_DMA_IRQHandler+0x13c>)
 8001b30:	4293      	cmp	r3, r2
 8001b32:	d014      	beq.n	8001b5e <HAL_DMA_IRQHandler+0xd6>
 8001b34:	3214      	adds	r2, #20
 8001b36:	4293      	cmp	r3, r2
 8001b38:	d01c      	beq.n	8001b74 <HAL_DMA_IRQHandler+0xec>
 8001b3a:	3214      	adds	r2, #20
 8001b3c:	4293      	cmp	r3, r2
 8001b3e:	d01b      	beq.n	8001b78 <HAL_DMA_IRQHandler+0xf0>
 8001b40:	3214      	adds	r2, #20
 8001b42:	4293      	cmp	r3, r2
 8001b44:	d01b      	beq.n	8001b7e <HAL_DMA_IRQHandler+0xf6>
 8001b46:	3214      	adds	r2, #20
 8001b48:	4293      	cmp	r3, r2
 8001b4a:	d01b      	beq.n	8001b84 <HAL_DMA_IRQHandler+0xfc>
 8001b4c:	3214      	adds	r2, #20
 8001b4e:	4293      	cmp	r3, r2
 8001b50:	d002      	beq.n	8001b58 <HAL_DMA_IRQHandler+0xd0>
 8001b52:	f04f 7200 	mov.w	r2, #33554432	@ 0x2000000
 8001b56:	e003      	b.n	8001b60 <HAL_DMA_IRQHandler+0xd8>
 8001b58:	f44f 1200 	mov.w	r2, #2097152	@ 0x200000
 8001b5c:	e000      	b.n	8001b60 <HAL_DMA_IRQHandler+0xd8>
 8001b5e:	2202      	movs	r2, #2
 8001b60:	4b19      	ldr	r3, [pc, #100]	@ (8001bc8 <HAL_DMA_IRQHandler+0x140>)
 8001b62:	605a      	str	r2, [r3, #4]
    __HAL_UNLOCK(hdma);
 8001b64:	2300      	movs	r3, #0
 8001b66:	f880 3020 	strb.w	r3, [r0, #32]
    if(hdma->XferCpltCallback != NULL)
 8001b6a:	6a83      	ldr	r3, [r0, #40]	@ 0x28
 8001b6c:	2b00      	cmp	r3, #0
 8001b6e:	d0bf      	beq.n	8001af0 <HAL_DMA_IRQHandler+0x68>
      hdma->XferCpltCallback(hdma);
 8001b70:	4798      	blx	r3
 8001b72:	e7bd      	b.n	8001af0 <HAL_DMA_IRQHandler+0x68>
      __HAL_DMA_CLEAR_FLAG(hdma, __HAL_DMA_GET_TC_FLAG_INDEX(hdma));
 8001b74:	2220      	movs	r2, #32
 8001b76:	e7f3      	b.n	8001b60 <HAL_DMA_IRQHandler+0xd8>
 8001b78:	f44f 7200 	mov.w	r2, #512	@ 0x200
 8001b7c:	e7f0      	b.n	8001b60 <HAL_DMA_IRQHandler+0xd8>
 8001b7e:	f44f 5200 	mov.w	r2, #8192	@ 0x2000
 8001b82:	e7ed      	b.n	8001b60 <HAL_DMA_IRQHandler+0xd8>
 8001b84:	f44f 3200 	mov.w	r2, #131072	@ 0x20000
 8001b88:	e7ea      	b.n	8001b60 <HAL_DMA_IRQHandler+0xd8>
  else if (( RESET != (flag_it & (DMA_FLAG_TE1 << hdma->ChannelIndex))) && (RESET != (source_it & DMA_IT_TE)))
 8001b8a:	2308      	movs	r3, #8
 8001b8c:	408b      	lsls	r3, r1
 8001b8e:	4213      	tst	r3, r2
 8001b90:	d0ae      	beq.n	8001af0 <HAL_DMA_IRQHandler+0x68>
 8001b92:	f015 0f08 	tst.w	r5, #8
 8001b96:	d0ab      	beq.n	8001af0 <HAL_DMA_IRQHandler+0x68>
    __HAL_DMA_DISABLE_IT(hdma, (DMA_IT_TC | DMA_IT_HT | DMA_IT_TE));
 8001b98:	6823      	ldr	r3, [r4, #0]
 8001b9a:	f023 030e 	bic.w	r3, r3, #14
 8001b9e:	6023      	str	r3, [r4, #0]
    hdma->DmaBaseAddress->IFCR = (DMA_ISR_GIF1 << hdma->ChannelIndex);
 8001ba0:	6c02      	ldr	r2, [r0, #64]	@ 0x40
 8001ba2:	6bc1      	ldr	r1, [r0, #60]	@ 0x3c
 8001ba4:	2301      	movs	r3, #1
 8001ba6:	fa03 f202 	lsl.w	r2, r3, r2
 8001baa:	604a      	str	r2, [r1, #4]
    hdma->ErrorCode = HAL_DMA_ERROR_TE;
 8001bac:	6383      	str	r3, [r0, #56]	@ 0x38
    hdma->State = HAL_DMA_STATE_READY;
 8001bae:	f880 3021 	strb.w	r3, [r0, #33]	@ 0x21
    __HAL_UNLOCK(hdma);
 8001bb2:	2300      	movs	r3, #0
 8001bb4:	f880 3020 	strb.w	r3, [r0, #32]
    if (hdma->XferErrorCallback != NULL)
 8001bb8:	6b03      	ldr	r3, [r0, #48]	@ 0x30
 8001bba:	2b00      	cmp	r3, #0
 8001bbc:	d098      	beq.n	8001af0 <HAL_DMA_IRQHandler+0x68>
      hdma->XferErrorCallback(hdma);
 8001bbe:	4798      	blx	r3
  return;
 8001bc0:	e796      	b.n	8001af0 <HAL_DMA_IRQHandler+0x68>
 8001bc2:	bf00      	nop
 8001bc4:	40020008 	.word	0x40020008
 8001bc8:	40020000 	.word	0x40020000

08001bcc <HAL_GPIO_Init>:
  * @param  GPIO_Init: pointer to a GPIO_InitTypeDef structure that contains
  *         the configuration information for the specified GPIO peripheral.
  * @retval None
  */
void HAL_GPIO_Init(GPIO_TypeDef  *GPIOx, GPIO_InitTypeDef *GPIO_Init)
{
 8001bcc:	b570      	push	{r4, r5, r6, lr}
 8001bce:	b082      	sub	sp, #8
  uint32_t position = 0x00u;
  uint32_t ioposition;
  uint32_t iocurrent;
  uint32_t temp;
  uint32_t config = 0x00u;
 8001bd0:	2400      	movs	r4, #0
  uint32_t position = 0x00u;
 8001bd2:	46a4      	mov	ip, r4
  assert_param(IS_GPIO_ALL_INSTANCE(GPIOx));
  assert_param(IS_GPIO_PIN(GPIO_Init->Pin));
  assert_param(IS_GPIO_MODE(GPIO_Init->Mode));

  /* Configure the port pins */
  while (((GPIO_Init->Pin) >> position) != 0x00u)
 8001bd4:	e0a1      	b.n	8001d1a <HAL_GPIO_Init+0x14e>
    {
      /* Check the Alternate function parameters */
      assert_param(IS_GPIO_AF_INSTANCE(GPIOx));

      /* Based on the required mode, filling config variable with MODEy[1:0] and CNFy[3:2] corresponding bits */
      switch (GPIO_Init->Mode)
 8001bd6:	4d7e      	ldr	r5, [pc, #504]	@ (8001dd0 <HAL_GPIO_Init+0x204>)
 8001bd8:	42ab      	cmp	r3, r5
 8001bda:	d014      	beq.n	8001c06 <HAL_GPIO_Init+0x3a>
 8001bdc:	d80c      	bhi.n	8001bf8 <HAL_GPIO_Init+0x2c>
 8001bde:	f5a5 1580 	sub.w	r5, r5, #1048576	@ 0x100000
 8001be2:	42ab      	cmp	r3, r5
 8001be4:	d00f      	beq.n	8001c06 <HAL_GPIO_Init+0x3a>
 8001be6:	f505 2570 	add.w	r5, r5, #983040	@ 0xf0000
 8001bea:	42ab      	cmp	r3, r5
 8001bec:	d00b      	beq.n	8001c06 <HAL_GPIO_Init+0x3a>
 8001bee:	f5a5 1580 	sub.w	r5, r5, #1048576	@ 0x100000
 8001bf2:	42ab      	cmp	r3, r5
 8001bf4:	d110      	bne.n	8001c18 <HAL_GPIO_Init+0x4c>
 8001bf6:	e006      	b.n	8001c06 <HAL_GPIO_Init+0x3a>
 8001bf8:	4d76      	ldr	r5, [pc, #472]	@ (8001dd4 <HAL_GPIO_Init+0x208>)
 8001bfa:	42ab      	cmp	r3, r5
 8001bfc:	d003      	beq.n	8001c06 <HAL_GPIO_Init+0x3a>
 8001bfe:	f505 3580 	add.w	r5, r5, #65536	@ 0x10000
 8001c02:	42ab      	cmp	r3, r5
 8001c04:	d108      	bne.n	8001c18 <HAL_GPIO_Init+0x4c>
        case GPIO_MODE_EVT_RISING:
        case GPIO_MODE_EVT_FALLING:
        case GPIO_MODE_EVT_RISING_FALLING:
          /* Check the GPIO pull parameter */
          assert_param(IS_GPIO_PULL(GPIO_Init->Pull));
          if (GPIO_Init->Pull == GPIO_NOPULL)
 8001c06:	688b      	ldr	r3, [r1, #8]
 8001c08:	2b00      	cmp	r3, #0
 8001c0a:	d050      	beq.n	8001cae <HAL_GPIO_Init+0xe2>
          {
            config = GPIO_CR_MODE_INPUT + GPIO_CR_CNF_INPUT_FLOATING;
          }
          else if (GPIO_Init->Pull == GPIO_PULLUP)
 8001c0c:	2b01      	cmp	r3, #1
 8001c0e:	d049      	beq.n	8001ca4 <HAL_GPIO_Init+0xd8>
          else /* GPIO_PULLDOWN */
          {
            config = GPIO_CR_MODE_INPUT + GPIO_CR_CNF_INPUT_PU_PD;

            /* Reset the corresponding ODR bit */
            GPIOx->BRR = ioposition;
 8001c10:	6142      	str	r2, [r0, #20]
            config = GPIO_CR_MODE_INPUT + GPIO_CR_CNF_INPUT_PU_PD;
 8001c12:	2408      	movs	r4, #8
 8001c14:	e000      	b.n	8001c18 <HAL_GPIO_Init+0x4c>
          config = GPIO_Init->Speed + GPIO_CR_CNF_GP_OUTPUT_PP;
 8001c16:	68cc      	ldr	r4, [r1, #12]
          break;
      }

      /* Check if the current bit belongs to first half or last half of the pin count number
       in order to address CRH or CRL register*/
      configregister = (iocurrent < GPIO_PIN_8) ? &GPIOx->CRL     : &GPIOx->CRH;
 8001c18:	f1be 0fff 	cmp.w	lr, #255	@ 0xff
 8001c1c:	d849      	bhi.n	8001cb2 <HAL_GPIO_Init+0xe6>
 8001c1e:	4606      	mov	r6, r0
      registeroffset = (iocurrent < GPIO_PIN_8) ? (position << 2u) : ((position - 8u) << 2u);
 8001c20:	ea4f 028c 	mov.w	r2, ip, lsl #2

      /* Apply the new configuration of the pin to the register */
      MODIFY_REG((*configregister), ((GPIO_CRL_MODE0 | GPIO_CRL_CNF0) << registeroffset), (config << registeroffset));
 8001c24:	6833      	ldr	r3, [r6, #0]
 8001c26:	250f      	movs	r5, #15
 8001c28:	4095      	lsls	r5, r2
 8001c2a:	ea23 0305 	bic.w	r3, r3, r5
 8001c2e:	fa04 f202 	lsl.w	r2, r4, r2
 8001c32:	4313      	orrs	r3, r2
 8001c34:	6033      	str	r3, [r6, #0]

      /*--------------------- EXTI Mode Configuration ------------------------*/
      /* Configure the External Interrupt or event for the current IO */
      if ((GPIO_Init->Mode & EXTI_MODE) == EXTI_MODE)
 8001c36:	684b      	ldr	r3, [r1, #4]
 8001c38:	f013 5f80 	tst.w	r3, #268435456	@ 0x10000000
 8001c3c:	d06b      	beq.n	8001d16 <HAL_GPIO_Init+0x14a>
      {
        /* Enable AFIO Clock */
        __HAL_RCC_AFIO_CLK_ENABLE();
 8001c3e:	4b66      	ldr	r3, [pc, #408]	@ (8001dd8 <HAL_GPIO_Init+0x20c>)
 8001c40:	699a      	ldr	r2, [r3, #24]
 8001c42:	f042 0201 	orr.w	r2, r2, #1
 8001c46:	619a      	str	r2, [r3, #24]
 8001c48:	699b      	ldr	r3, [r3, #24]
 8001c4a:	f003 0301 	and.w	r3, r3, #1
 8001c4e:	9301      	str	r3, [sp, #4]
 8001c50:	9b01      	ldr	r3, [sp, #4]
        temp = AFIO->EXTICR[position >> 2u];
 8001c52:	ea4f 029c 	mov.w	r2, ip, lsr #2
 8001c56:	1c95      	adds	r5, r2, #2
 8001c58:	4b60      	ldr	r3, [pc, #384]	@ (8001ddc <HAL_GPIO_Init+0x210>)
 8001c5a:	f853 6025 	ldr.w	r6, [r3, r5, lsl #2]
        CLEAR_BIT(temp, (0x0Fu) << (4u * (position & 0x03u)));
 8001c5e:	f00c 0503 	and.w	r5, ip, #3
 8001c62:	00ad      	lsls	r5, r5, #2
 8001c64:	230f      	movs	r3, #15
 8001c66:	40ab      	lsls	r3, r5
 8001c68:	ea26 0603 	bic.w	r6, r6, r3
        SET_BIT(temp, (GPIO_GET_INDEX(GPIOx)) << (4u * (position & 0x03u)));
 8001c6c:	4b5c      	ldr	r3, [pc, #368]	@ (8001de0 <HAL_GPIO_Init+0x214>)
 8001c6e:	4298      	cmp	r0, r3
 8001c70:	d026      	beq.n	8001cc0 <HAL_GPIO_Init+0xf4>
 8001c72:	f503 6380 	add.w	r3, r3, #1024	@ 0x400
 8001c76:	4298      	cmp	r0, r3
 8001c78:	f000 808c 	beq.w	8001d94 <HAL_GPIO_Init+0x1c8>
 8001c7c:	f503 6380 	add.w	r3, r3, #1024	@ 0x400
 8001c80:	4298      	cmp	r0, r3
 8001c82:	f000 8089 	beq.w	8001d98 <HAL_GPIO_Init+0x1cc>
 8001c86:	f503 6380 	add.w	r3, r3, #1024	@ 0x400
 8001c8a:	4298      	cmp	r0, r3
 8001c8c:	d016      	beq.n	8001cbc <HAL_GPIO_Init+0xf0>
 8001c8e:	2304      	movs	r3, #4
 8001c90:	e017      	b.n	8001cc2 <HAL_GPIO_Init+0xf6>
          config = GPIO_Init->Speed + GPIO_CR_CNF_GP_OUTPUT_OD;
 8001c92:	68cc      	ldr	r4, [r1, #12]
 8001c94:	3404      	adds	r4, #4
          break;
 8001c96:	e7bf      	b.n	8001c18 <HAL_GPIO_Init+0x4c>
          config = GPIO_Init->Speed + GPIO_CR_CNF_AF_OUTPUT_PP;
 8001c98:	68cc      	ldr	r4, [r1, #12]
 8001c9a:	3408      	adds	r4, #8
          break;
 8001c9c:	e7bc      	b.n	8001c18 <HAL_GPIO_Init+0x4c>
          config = GPIO_Init->Speed + GPIO_CR_CNF_AF_OUTPUT_OD;
 8001c9e:	68cc      	ldr	r4, [r1, #12]
 8001ca0:	340c      	adds	r4, #12
          break;
 8001ca2:	e7b9      	b.n	8001c18 <HAL_GPIO_Init+0x4c>
            GPIOx->BSRR = ioposition;
 8001ca4:	6102      	str	r2, [r0, #16]
            config = GPIO_CR_MODE_INPUT + GPIO_CR_CNF_INPUT_PU_PD;
 8001ca6:	2408      	movs	r4, #8
 8001ca8:	e7b6      	b.n	8001c18 <HAL_GPIO_Init+0x4c>
          config = GPIO_CR_MODE_INPUT + GPIO_CR_CNF_ANALOG;
 8001caa:	2400      	movs	r4, #0
 8001cac:	e7b4      	b.n	8001c18 <HAL_GPIO_Init+0x4c>
            config = GPIO_CR_MODE_INPUT + GPIO_CR_CNF_INPUT_FLOATING;
 8001cae:	2404      	movs	r4, #4
 8001cb0:	e7b2      	b.n	8001c18 <HAL_GPIO_Init+0x4c>
      configregister = (iocurrent < GPIO_PIN_8) ? &GPIOx->CRL     : &GPIOx->CRH;
 8001cb2:	1d06      	adds	r6, r0, #4
      registeroffset = (iocurrent < GPIO_PIN_8) ? (position << 2u) : ((position - 8u) << 2u);
 8001cb4:	f1ac 0208 	sub.w	r2, ip, #8
 8001cb8:	0092      	lsls	r2, r2, #2
 8001cba:	e7b3      	b.n	8001c24 <HAL_GPIO_Init+0x58>
        SET_BIT(temp, (GPIO_GET_INDEX(GPIOx)) << (4u * (position & 0x03u)));
 8001cbc:	2303      	movs	r3, #3
 8001cbe:	e000      	b.n	8001cc2 <HAL_GPIO_Init+0xf6>
 8001cc0:	2300      	movs	r3, #0
 8001cc2:	40ab      	lsls	r3, r5
 8001cc4:	4333      	orrs	r3, r6
        AFIO->EXTICR[position >> 2u] = temp;
 8001cc6:	3202      	adds	r2, #2
 8001cc8:	4d44      	ldr	r5, [pc, #272]	@ (8001ddc <HAL_GPIO_Init+0x210>)
 8001cca:	f845 3022 	str.w	r3, [r5, r2, lsl #2]


        /* Enable or disable the rising trigger */
        if ((GPIO_Init->Mode & RISING_EDGE) == RISING_EDGE)
 8001cce:	684b      	ldr	r3, [r1, #4]
 8001cd0:	f413 1f80 	tst.w	r3, #1048576	@ 0x100000
 8001cd4:	d062      	beq.n	8001d9c <HAL_GPIO_Init+0x1d0>
        {
          SET_BIT(EXTI->RTSR, iocurrent);
 8001cd6:	4a43      	ldr	r2, [pc, #268]	@ (8001de4 <HAL_GPIO_Init+0x218>)
 8001cd8:	6893      	ldr	r3, [r2, #8]
 8001cda:	ea43 030e 	orr.w	r3, r3, lr
 8001cde:	6093      	str	r3, [r2, #8]
        {
          CLEAR_BIT(EXTI->RTSR, iocurrent);
        }

        /* Enable or disable the falling trigger */
        if ((GPIO_Init->Mode & FALLING_EDGE) == FALLING_EDGE)
 8001ce0:	684b      	ldr	r3, [r1, #4]
 8001ce2:	f413 1f00 	tst.w	r3, #2097152	@ 0x200000
 8001ce6:	d05f      	beq.n	8001da8 <HAL_GPIO_Init+0x1dc>
        {
          SET_BIT(EXTI->FTSR, iocurrent);
 8001ce8:	4a3e      	ldr	r2, [pc, #248]	@ (8001de4 <HAL_GPIO_Init+0x218>)
 8001cea:	68d3      	ldr	r3, [r2, #12]
 8001cec:	ea43 030e 	orr.w	r3, r3, lr
 8001cf0:	60d3      	str	r3, [r2, #12]
        {
          CLEAR_BIT(EXTI->FTSR, iocurrent);
        }

        /* Configure the event mask */
        if ((GPIO_Init->Mode & GPIO_MODE_EVT) == GPIO_MODE_EVT)
 8001cf2:	684b      	ldr	r3, [r1, #4]
 8001cf4:	f413 3f00 	tst.w	r3, #131072	@ 0x20000
 8001cf8:	d05c      	beq.n	8001db4 <HAL_GPIO_Init+0x1e8>
        {
          SET_BIT(EXTI->EMR, iocurrent);
 8001cfa:	4a3a      	ldr	r2, [pc, #232]	@ (8001de4 <HAL_GPIO_Init+0x218>)
 8001cfc:	6853      	ldr	r3, [r2, #4]
 8001cfe:	ea43 030e 	orr.w	r3, r3, lr
 8001d02:	6053      	str	r3, [r2, #4]
        {
          CLEAR_BIT(EXTI->EMR, iocurrent);
        }

        /* Configure the interrupt mask */
        if ((GPIO_Init->Mode & GPIO_MODE_IT) == GPIO_MODE_IT)
 8001d04:	684b      	ldr	r3, [r1, #4]
 8001d06:	f413 3f80 	tst.w	r3, #65536	@ 0x10000
 8001d0a:	d059      	beq.n	8001dc0 <HAL_GPIO_Init+0x1f4>
        {
          SET_BIT(EXTI->IMR, iocurrent);
 8001d0c:	4a35      	ldr	r2, [pc, #212]	@ (8001de4 <HAL_GPIO_Init+0x218>)
 8001d0e:	6813      	ldr	r3, [r2, #0]
 8001d10:	ea43 030e 	orr.w	r3, r3, lr
 8001d14:	6013      	str	r3, [r2, #0]
          CLEAR_BIT(EXTI->IMR, iocurrent);
        }
      }
    }

	position++;
 8001d16:	f10c 0c01 	add.w	ip, ip, #1
  while (((GPIO_Init->Pin) >> position) != 0x00u)
 8001d1a:	680b      	ldr	r3, [r1, #0]
 8001d1c:	fa33 f20c 	lsrs.w	r2, r3, ip
 8001d20:	d054      	beq.n	8001dcc <HAL_GPIO_Init+0x200>
    ioposition = (0x01uL << position);
 8001d22:	2201      	movs	r2, #1
 8001d24:	fa02 f20c 	lsl.w	r2, r2, ip
    iocurrent = (uint32_t)(GPIO_Init->Pin) & ioposition;
 8001d28:	ea03 0e02 	and.w	lr, r3, r2
    if (iocurrent == ioposition)
 8001d2c:	ea32 0303 	bics.w	r3, r2, r3
 8001d30:	d1f1      	bne.n	8001d16 <HAL_GPIO_Init+0x14a>
      switch (GPIO_Init->Mode)
 8001d32:	684b      	ldr	r3, [r1, #4]
 8001d34:	2b12      	cmp	r3, #18
 8001d36:	f63f af4e 	bhi.w	8001bd6 <HAL_GPIO_Init+0xa>
 8001d3a:	2b12      	cmp	r3, #18
 8001d3c:	f63f af6c 	bhi.w	8001c18 <HAL_GPIO_Init+0x4c>
 8001d40:	a501      	add	r5, pc, #4	@ (adr r5, 8001d48 <HAL_GPIO_Init+0x17c>)
 8001d42:	f855 f023 	ldr.w	pc, [r5, r3, lsl #2]
 8001d46:	bf00      	nop
 8001d48:	08001c07 	.word	0x08001c07
 8001d4c:	08001c17 	.word	0x08001c17
 8001d50:	08001c99 	.word	0x08001c99
 8001d54:	08001cab 	.word	0x08001cab
 8001d58:	08001c19 	.word	0x08001c19
 8001d5c:	08001c19 	.word	0x08001c19
 8001d60:	08001c19 	.word	0x08001c19
 8001d64:	08001c19 	.word	0x08001c19
 8001d68:	08001c19 	.word	0x08001c19
 8001d6c:	08001c19 	.word	0x08001c19
 8001d70:	08001c19 	.word	0x08001c19
 8001d74:	08001c19 	.word	0x08001c19
 8001d78:	08001c19 	.word	0x08001c19
 8001d7c:	08001c19 	.word	0x08001c19
 8001d80:	08001c19 	.word	0x08001c19
 8001d84:	08001c19 	.word	0x08001c19
 8001d88:	08001c19 	.word	0x08001c19
 8001d8c:	08001c93 	.word	0x08001c93
 8001d90:	08001c9f 	.word	0x08001c9f
        SET_BIT(temp, (GPIO_GET_INDEX(GPIOx)) << (4u * (position & 0x03u)));
 8001d94:	2301      	movs	r3, #1
 8001d96:	e794      	b.n	8001cc2 <HAL_GPIO_Init+0xf6>
 8001d98:	2302      	movs	r3, #2
 8001d9a:	e792      	b.n	8001cc2 <HAL_GPIO_Init+0xf6>
          CLEAR_BIT(EXTI->RTSR, iocurrent);
 8001d9c:	4a11      	ldr	r2, [pc, #68]	@ (8001de4 <HAL_GPIO_Init+0x218>)
 8001d9e:	6893      	ldr	r3, [r2, #8]
 8001da0:	ea23 030e 	bic.w	r3, r3, lr
 8001da4:	6093      	str	r3, [r2, #8]
 8001da6:	e79b      	b.n	8001ce0 <HAL_GPIO_Init+0x114>
          CLEAR_BIT(EXTI->FTSR, iocurrent);
 8001da8:	4a0e      	ldr	r2, [pc, #56]	@ (8001de4 <HAL_GPIO_Init+0x218>)
 8001daa:	68d3      	ldr	r3, [r2, #12]
 8001dac:	ea23 030e 	bic.w	r3, r3, lr
 8001db0:	60d3      	str	r3, [r2, #12]
 8001db2:	e79e      	b.n	8001cf2 <HAL_GPIO_Init+0x126>
          CLEAR_BIT(EXTI->EMR, iocurrent);
 8001db4:	4a0b      	ldr	r2, [pc, #44]	@ (8001de4 <HAL_GPIO_Init+0x218>)
 8001db6:	6853      	ldr	r3, [r2, #4]
 8001db8:	ea23 030e 	bic.w	r3, r3, lr
 8001dbc:	6053      	str	r3, [r2, #4]
 8001dbe:	e7a1      	b.n	8001d04 <HAL_GPIO_Init+0x138>
          CLEAR_BIT(EXTI->IMR, iocurrent);
 8001dc0:	4a08      	ldr	r2, [pc, #32]	@ (8001de4 <HAL_GPIO_Init+0x218>)
 8001dc2:	6813      	ldr	r3, [r2, #0]
 8001dc4:	ea23 030e 	bic.w	r3, r3, lr
 8001dc8:	6013      	str	r3, [r2, #0]
 8001dca:	e7a4      	b.n	8001d16 <HAL_GPIO_Init+0x14a>
  }
}
 8001dcc:	b002      	add	sp, #8
 8001dce:	bd70      	pop	{r4, r5, r6, pc}
 8001dd0:	10220000 	.word	0x10220000
 8001dd4:	10310000 	.word	0x10310000
 8001dd8:	40021000 	.word	0x40021000
 8001ddc:	40010000 	.word	0x40010000
 8001de0:	40010800 	.word	0x40010800
 8001de4:	40010400 	.word	0x40010400

08001de8 <HAL_GPIO_ReadPin>:
  GPIO_PinState bitstatus;

  /* Check the parameters */
  assert_param(IS_GPIO_PIN(GPIO_Pin));

  if ((GPIOx->IDR & GPIO_Pin) != (uint32_t)GPIO_PIN_RESET)
 8001de8:	6883      	ldr	r3, [r0, #8]
 8001dea:	4219      	tst	r1, r3
 8001dec:	d001      	beq.n	8001df2 <HAL_GPIO_ReadPin+0xa>
  {
    bitstatus = GPIO_PIN_SET;
 8001dee:	2001      	movs	r0, #1
 8001df0:	4770      	bx	lr
  }
  else
  {
    bitstatus = GPIO_PIN_RESET;
 8001df2:	2000      	movs	r0, #0
  }
  return bitstatus;
}
 8001df4:	4770      	bx	lr

08001df6 <HAL_GPIO_WritePin>:
{
  /* Check the parameters */
  assert_param(IS_GPIO_PIN(GPIO_Pin));
  assert_param(IS_GPIO_PIN_ACTION(PinState));

  if (PinState != GPIO_PIN_RESET)
 8001df6:	b10a      	cbz	r2, 8001dfc <HAL_GPIO_WritePin+0x6>
  {
    GPIOx->BSRR = GPIO_Pin;
 8001df8:	6101      	str	r1, [r0, #16]
 8001dfa:	4770      	bx	lr
  }
  else
  {
    GPIOx->BSRR = (uint32_t)GPIO_Pin << 16u;
 8001dfc:	0409      	lsls	r1, r1, #16
 8001dfe:	6101      	str	r1, [r0, #16]
  }
}
 8001e00:	4770      	bx	lr

08001e02 <HAL_GPIO_TogglePin>:

  /* Check the parameters */
  assert_param(IS_GPIO_PIN(GPIO_Pin));

  /* get current Output Data Register value */
  odr = GPIOx->ODR;
 8001e02:	68c3      	ldr	r3, [r0, #12]

  /* Set selected pins that were at low level, and reset ones that were high */
  GPIOx->BSRR = ((odr & GPIO_Pin) << GPIO_NUMBER) | (~odr & GPIO_Pin);
 8001e04:	ea01 0203 	and.w	r2, r1, r3
 8001e08:	ea21 0103 	bic.w	r1, r1, r3
 8001e0c:	ea41 4102 	orr.w	r1, r1, r2, lsl #16
 8001e10:	6101      	str	r1, [r0, #16]
}
 8001e12:	4770      	bx	lr

08001e14 <HAL_PWR_EnableBkUpAccess>:
  * @retval None
  */
void HAL_PWR_EnableBkUpAccess(void)
{
  /* Enable access to RTC and backup registers */
  *(__IO uint32_t *) CR_DBP_BB = (uint32_t)ENABLE;
 8001e14:	4b01      	ldr	r3, [pc, #4]	@ (8001e1c <HAL_PWR_EnableBkUpAccess+0x8>)
 8001e16:	2201      	movs	r2, #1
 8001e18:	621a      	str	r2, [r3, #32]
}
 8001e1a:	4770      	bx	lr
 8001e1c:	420e0000 	.word	0x420e0000

08001e20 <RCC_Delay>:
  * @brief  This function provides delay (in milliseconds) based on CPU cycles method.
  * @param  mdelay: specifies the delay time length, in milliseconds.
  * @retval None
  */
static void RCC_Delay(uint32_t mdelay)
{
 8001e20:	b082      	sub	sp, #8
  __IO uint32_t Delay = mdelay * (SystemCoreClock / 8U / 1000U);
 8001e22:	4b08      	ldr	r3, [pc, #32]	@ (8001e44 <RCC_Delay+0x24>)
 8001e24:	681b      	ldr	r3, [r3, #0]
 8001e26:	4a08      	ldr	r2, [pc, #32]	@ (8001e48 <RCC_Delay+0x28>)
 8001e28:	fba2 2303 	umull	r2, r3, r2, r3
 8001e2c:	0a5b      	lsrs	r3, r3, #9
 8001e2e:	fb00 f303 	mul.w	r3, r0, r3
 8001e32:	9301      	str	r3, [sp, #4]
  do
  {
    __NOP();
 8001e34:	bf00      	nop
  }
  while (Delay --);
 8001e36:	9b01      	ldr	r3, [sp, #4]
 8001e38:	1e5a      	subs	r2, r3, #1
 8001e3a:	9201      	str	r2, [sp, #4]
 8001e3c:	2b00      	cmp	r3, #0
 8001e3e:	d1f9      	bne.n	8001e34 <RCC_Delay+0x14>
}
 8001e40:	b002      	add	sp, #8
 8001e42:	4770      	bx	lr
 8001e44:	2000007c 	.word	0x2000007c
 8001e48:	10624dd3 	.word	0x10624dd3

08001e4c <HAL_RCC_OscConfig>:
  if (RCC_OscInitStruct == NULL)
 8001e4c:	2800      	cmp	r0, #0
 8001e4e:	f000 81f1 	beq.w	8002234 <HAL_RCC_OscConfig+0x3e8>
{
 8001e52:	b570      	push	{r4, r5, r6, lr}
 8001e54:	b082      	sub	sp, #8
 8001e56:	4604      	mov	r4, r0
  if (((RCC_OscInitStruct->OscillatorType) & RCC_OSCILLATORTYPE_HSE) == RCC_OSCILLATORTYPE_HSE)
 8001e58:	6803      	ldr	r3, [r0, #0]
 8001e5a:	f013 0f01 	tst.w	r3, #1
 8001e5e:	d02c      	beq.n	8001eba <HAL_RCC_OscConfig+0x6e>
    if ((__HAL_RCC_GET_SYSCLK_SOURCE() == RCC_SYSCLKSOURCE_STATUS_HSE)
 8001e60:	4b99      	ldr	r3, [pc, #612]	@ (80020c8 <HAL_RCC_OscConfig+0x27c>)
 8001e62:	685b      	ldr	r3, [r3, #4]
 8001e64:	f003 030c 	and.w	r3, r3, #12
 8001e68:	2b04      	cmp	r3, #4
 8001e6a:	d01d      	beq.n	8001ea8 <HAL_RCC_OscConfig+0x5c>
        || ((__HAL_RCC_GET_SYSCLK_SOURCE() == RCC_SYSCLKSOURCE_STATUS_PLLCLK) && (__HAL_RCC_GET_PLL_OSCSOURCE() == RCC_PLLSOURCE_HSE)))
 8001e6c:	4b96      	ldr	r3, [pc, #600]	@ (80020c8 <HAL_RCC_OscConfig+0x27c>)
 8001e6e:	685b      	ldr	r3, [r3, #4]
 8001e70:	f003 030c 	and.w	r3, r3, #12
 8001e74:	2b08      	cmp	r3, #8
 8001e76:	d012      	beq.n	8001e9e <HAL_RCC_OscConfig+0x52>
      __HAL_RCC_HSE_CONFIG(RCC_OscInitStruct->HSEState);
 8001e78:	6863      	ldr	r3, [r4, #4]
 8001e7a:	f5b3 3f80 	cmp.w	r3, #65536	@ 0x10000
 8001e7e:	d041      	beq.n	8001f04 <HAL_RCC_OscConfig+0xb8>
 8001e80:	2b00      	cmp	r3, #0
 8001e82:	d155      	bne.n	8001f30 <HAL_RCC_OscConfig+0xe4>
 8001e84:	f103 4380 	add.w	r3, r3, #1073741824	@ 0x40000000
 8001e88:	f503 3304 	add.w	r3, r3, #135168	@ 0x21000
 8001e8c:	681a      	ldr	r2, [r3, #0]
 8001e8e:	f422 3280 	bic.w	r2, r2, #65536	@ 0x10000
 8001e92:	601a      	str	r2, [r3, #0]
 8001e94:	681a      	ldr	r2, [r3, #0]
 8001e96:	f422 2280 	bic.w	r2, r2, #262144	@ 0x40000
 8001e9a:	601a      	str	r2, [r3, #0]
 8001e9c:	e037      	b.n	8001f0e <HAL_RCC_OscConfig+0xc2>
        || ((__HAL_RCC_GET_SYSCLK_SOURCE() == RCC_SYSCLKSOURCE_STATUS_PLLCLK) && (__HAL_RCC_GET_PLL_OSCSOURCE() == RCC_PLLSOURCE_HSE)))
 8001e9e:	4b8a      	ldr	r3, [pc, #552]	@ (80020c8 <HAL_RCC_OscConfig+0x27c>)
 8001ea0:	685b      	ldr	r3, [r3, #4]
 8001ea2:	f413 3f80 	tst.w	r3, #65536	@ 0x10000
 8001ea6:	d0e7      	beq.n	8001e78 <HAL_RCC_OscConfig+0x2c>
      if ((__HAL_RCC_GET_FLAG(RCC_FLAG_HSERDY) != RESET) && (RCC_OscInitStruct->HSEState == RCC_HSE_OFF))
 8001ea8:	4b87      	ldr	r3, [pc, #540]	@ (80020c8 <HAL_RCC_OscConfig+0x27c>)
 8001eaa:	681b      	ldr	r3, [r3, #0]
 8001eac:	f413 3f00 	tst.w	r3, #131072	@ 0x20000
 8001eb0:	d003      	beq.n	8001eba <HAL_RCC_OscConfig+0x6e>
 8001eb2:	6863      	ldr	r3, [r4, #4]
 8001eb4:	2b00      	cmp	r3, #0
 8001eb6:	f000 81bf 	beq.w	8002238 <HAL_RCC_OscConfig+0x3ec>
  if (((RCC_OscInitStruct->OscillatorType) & RCC_OSCILLATORTYPE_HSI) == RCC_OSCILLATORTYPE_HSI)
 8001eba:	6823      	ldr	r3, [r4, #0]
 8001ebc:	f013 0f02 	tst.w	r3, #2
 8001ec0:	d075      	beq.n	8001fae <HAL_RCC_OscConfig+0x162>
    if ((__HAL_RCC_GET_SYSCLK_SOURCE() == RCC_SYSCLKSOURCE_STATUS_HSI)
 8001ec2:	4b81      	ldr	r3, [pc, #516]	@ (80020c8 <HAL_RCC_OscConfig+0x27c>)
 8001ec4:	685b      	ldr	r3, [r3, #4]
 8001ec6:	f013 0f0c 	tst.w	r3, #12
 8001eca:	d05f      	beq.n	8001f8c <HAL_RCC_OscConfig+0x140>
        || ((__HAL_RCC_GET_SYSCLK_SOURCE() == RCC_SYSCLKSOURCE_STATUS_PLLCLK) && (__HAL_RCC_GET_PLL_OSCSOURCE() == RCC_PLLSOURCE_HSI_DIV2)))
 8001ecc:	4b7e      	ldr	r3, [pc, #504]	@ (80020c8 <HAL_RCC_OscConfig+0x27c>)
 8001ece:	685b      	ldr	r3, [r3, #4]
 8001ed0:	f003 030c 	and.w	r3, r3, #12
 8001ed4:	2b08      	cmp	r3, #8
 8001ed6:	d054      	beq.n	8001f82 <HAL_RCC_OscConfig+0x136>
      if (RCC_OscInitStruct->HSIState != RCC_HSI_OFF)
 8001ed8:	6923      	ldr	r3, [r4, #16]
 8001eda:	2b00      	cmp	r3, #0
 8001edc:	f000 808a 	beq.w	8001ff4 <HAL_RCC_OscConfig+0x1a8>
        __HAL_RCC_HSI_ENABLE();
 8001ee0:	4b7a      	ldr	r3, [pc, #488]	@ (80020cc <HAL_RCC_OscConfig+0x280>)
 8001ee2:	2201      	movs	r2, #1
 8001ee4:	601a      	str	r2, [r3, #0]
        tickstart = HAL_GetTick();
 8001ee6:	f7ff fa4d 	bl	8001384 <HAL_GetTick>
 8001eea:	4605      	mov	r5, r0
        while (__HAL_RCC_GET_FLAG(RCC_FLAG_HSIRDY) == RESET)
 8001eec:	4b76      	ldr	r3, [pc, #472]	@ (80020c8 <HAL_RCC_OscConfig+0x27c>)
 8001eee:	681b      	ldr	r3, [r3, #0]
 8001ef0:	f013 0f02 	tst.w	r3, #2
 8001ef4:	d175      	bne.n	8001fe2 <HAL_RCC_OscConfig+0x196>
          if ((HAL_GetTick() - tickstart) > HSI_TIMEOUT_VALUE)
 8001ef6:	f7ff fa45 	bl	8001384 <HAL_GetTick>
 8001efa:	1b40      	subs	r0, r0, r5
 8001efc:	2802      	cmp	r0, #2
 8001efe:	d9f5      	bls.n	8001eec <HAL_RCC_OscConfig+0xa0>
            return HAL_TIMEOUT;
 8001f00:	2003      	movs	r0, #3
 8001f02:	e19e      	b.n	8002242 <HAL_RCC_OscConfig+0x3f6>
      __HAL_RCC_HSE_CONFIG(RCC_OscInitStruct->HSEState);
 8001f04:	4a70      	ldr	r2, [pc, #448]	@ (80020c8 <HAL_RCC_OscConfig+0x27c>)
 8001f06:	6813      	ldr	r3, [r2, #0]
 8001f08:	f443 3380 	orr.w	r3, r3, #65536	@ 0x10000
 8001f0c:	6013      	str	r3, [r2, #0]
      if (RCC_OscInitStruct->HSEState != RCC_HSE_OFF)
 8001f0e:	6863      	ldr	r3, [r4, #4]
 8001f10:	b343      	cbz	r3, 8001f64 <HAL_RCC_OscConfig+0x118>
        tickstart = HAL_GetTick();
 8001f12:	f7ff fa37 	bl	8001384 <HAL_GetTick>
 8001f16:	4605      	mov	r5, r0
        while (__HAL_RCC_GET_FLAG(RCC_FLAG_HSERDY) == RESET)
 8001f18:	4b6b      	ldr	r3, [pc, #428]	@ (80020c8 <HAL_RCC_OscConfig+0x27c>)
 8001f1a:	681b      	ldr	r3, [r3, #0]
 8001f1c:	f413 3f00 	tst.w	r3, #131072	@ 0x20000
 8001f20:	d1cb      	bne.n	8001eba <HAL_RCC_OscConfig+0x6e>
          if ((HAL_GetTick() - tickstart) > HSE_TIMEOUT_VALUE)
 8001f22:	f7ff fa2f 	bl	8001384 <HAL_GetTick>
 8001f26:	1b40      	subs	r0, r0, r5
 8001f28:	2864      	cmp	r0, #100	@ 0x64
 8001f2a:	d9f5      	bls.n	8001f18 <HAL_RCC_OscConfig+0xcc>
            return HAL_TIMEOUT;
 8001f2c:	2003      	movs	r0, #3
 8001f2e:	e188      	b.n	8002242 <HAL_RCC_OscConfig+0x3f6>
      __HAL_RCC_HSE_CONFIG(RCC_OscInitStruct->HSEState);
 8001f30:	f5b3 2fa0 	cmp.w	r3, #327680	@ 0x50000
 8001f34:	d009      	beq.n	8001f4a <HAL_RCC_OscConfig+0xfe>
 8001f36:	4b64      	ldr	r3, [pc, #400]	@ (80020c8 <HAL_RCC_OscConfig+0x27c>)
 8001f38:	681a      	ldr	r2, [r3, #0]
 8001f3a:	f422 3280 	bic.w	r2, r2, #65536	@ 0x10000
 8001f3e:	601a      	str	r2, [r3, #0]
 8001f40:	681a      	ldr	r2, [r3, #0]
 8001f42:	f422 2280 	bic.w	r2, r2, #262144	@ 0x40000
 8001f46:	601a      	str	r2, [r3, #0]
 8001f48:	e7e1      	b.n	8001f0e <HAL_RCC_OscConfig+0xc2>
 8001f4a:	f103 4380 	add.w	r3, r3, #1073741824	@ 0x40000000
 8001f4e:	f5a3 333c 	sub.w	r3, r3, #192512	@ 0x2f000
 8001f52:	681a      	ldr	r2, [r3, #0]
 8001f54:	f442 2280 	orr.w	r2, r2, #262144	@ 0x40000
 8001f58:	601a      	str	r2, [r3, #0]
 8001f5a:	681a      	ldr	r2, [r3, #0]
 8001f5c:	f442 3280 	orr.w	r2, r2, #65536	@ 0x10000
 8001f60:	601a      	str	r2, [r3, #0]
 8001f62:	e7d4      	b.n	8001f0e <HAL_RCC_OscConfig+0xc2>
        tickstart = HAL_GetTick();
 8001f64:	f7ff fa0e 	bl	8001384 <HAL_GetTick>
 8001f68:	4605      	mov	r5, r0
        while (__HAL_RCC_GET_FLAG(RCC_FLAG_HSERDY) != RESET)
 8001f6a:	4b57      	ldr	r3, [pc, #348]	@ (80020c8 <HAL_RCC_OscConfig+0x27c>)
 8001f6c:	681b      	ldr	r3, [r3, #0]
 8001f6e:	f413 3f00 	tst.w	r3, #131072	@ 0x20000
 8001f72:	d0a2      	beq.n	8001eba <HAL_RCC_OscConfig+0x6e>
          if ((HAL_GetTick() - tickstart) > HSE_TIMEOUT_VALUE)
 8001f74:	f7ff fa06 	bl	8001384 <HAL_GetTick>
 8001f78:	1b40      	subs	r0, r0, r5
 8001f7a:	2864      	cmp	r0, #100	@ 0x64
 8001f7c:	d9f5      	bls.n	8001f6a <HAL_RCC_OscConfig+0x11e>
            return HAL_TIMEOUT;
 8001f7e:	2003      	movs	r0, #3
 8001f80:	e15f      	b.n	8002242 <HAL_RCC_OscConfig+0x3f6>
        || ((__HAL_RCC_GET_SYSCLK_SOURCE() == RCC_SYSCLKSOURCE_STATUS_PLLCLK) && (__HAL_RCC_GET_PLL_OSCSOURCE() == RCC_PLLSOURCE_HSI_DIV2)))
 8001f82:	4b51      	ldr	r3, [pc, #324]	@ (80020c8 <HAL_RCC_OscConfig+0x27c>)
 8001f84:	685b      	ldr	r3, [r3, #4]
 8001f86:	f413 3f80 	tst.w	r3, #65536	@ 0x10000
 8001f8a:	d1a5      	bne.n	8001ed8 <HAL_RCC_OscConfig+0x8c>
      if ((__HAL_RCC_GET_FLAG(RCC_FLAG_HSIRDY) != RESET) && (RCC_OscInitStruct->HSIState != RCC_HSI_ON))
 8001f8c:	4b4e      	ldr	r3, [pc, #312]	@ (80020c8 <HAL_RCC_OscConfig+0x27c>)
 8001f8e:	681b      	ldr	r3, [r3, #0]
 8001f90:	f013 0f02 	tst.w	r3, #2
 8001f94:	d003      	beq.n	8001f9e <HAL_RCC_OscConfig+0x152>
 8001f96:	6923      	ldr	r3, [r4, #16]
 8001f98:	2b01      	cmp	r3, #1
 8001f9a:	f040 814f 	bne.w	800223c <HAL_RCC_OscConfig+0x3f0>
        __HAL_RCC_HSI_CALIBRATIONVALUE_ADJUST(RCC_OscInitStruct->HSICalibrationValue);
 8001f9e:	4a4a      	ldr	r2, [pc, #296]	@ (80020c8 <HAL_RCC_OscConfig+0x27c>)
 8001fa0:	6813      	ldr	r3, [r2, #0]
 8001fa2:	f023 03f8 	bic.w	r3, r3, #248	@ 0xf8
 8001fa6:	6961      	ldr	r1, [r4, #20]
 8001fa8:	ea43 03c1 	orr.w	r3, r3, r1, lsl #3
 8001fac:	6013      	str	r3, [r2, #0]
  if (((RCC_OscInitStruct->OscillatorType) & RCC_OSCILLATORTYPE_LSI) == RCC_OSCILLATORTYPE_LSI)
 8001fae:	6823      	ldr	r3, [r4, #0]
 8001fb0:	f013 0f08 	tst.w	r3, #8
 8001fb4:	d033      	beq.n	800201e <HAL_RCC_OscConfig+0x1d2>
    if (RCC_OscInitStruct->LSIState != RCC_LSI_OFF)
 8001fb6:	69a3      	ldr	r3, [r4, #24]
 8001fb8:	2b00      	cmp	r3, #0
 8001fba:	d05c      	beq.n	8002076 <HAL_RCC_OscConfig+0x22a>
      __HAL_RCC_LSI_ENABLE();
 8001fbc:	4b43      	ldr	r3, [pc, #268]	@ (80020cc <HAL_RCC_OscConfig+0x280>)
 8001fbe:	2201      	movs	r2, #1
 8001fc0:	f8c3 2480 	str.w	r2, [r3, #1152]	@ 0x480
      tickstart = HAL_GetTick();
 8001fc4:	f7ff f9de 	bl	8001384 <HAL_GetTick>
 8001fc8:	4605      	mov	r5, r0
      while (__HAL_RCC_GET_FLAG(RCC_FLAG_LSIRDY) == RESET)
 8001fca:	4b3f      	ldr	r3, [pc, #252]	@ (80020c8 <HAL_RCC_OscConfig+0x27c>)
 8001fcc:	6a5b      	ldr	r3, [r3, #36]	@ 0x24
 8001fce:	f013 0f02 	tst.w	r3, #2
 8001fd2:	d121      	bne.n	8002018 <HAL_RCC_OscConfig+0x1cc>
        if ((HAL_GetTick() - tickstart) > LSI_TIMEOUT_VALUE)
 8001fd4:	f7ff f9d6 	bl	8001384 <HAL_GetTick>
 8001fd8:	1b40      	subs	r0, r0, r5
 8001fda:	2802      	cmp	r0, #2
 8001fdc:	d9f5      	bls.n	8001fca <HAL_RCC_OscConfig+0x17e>
          return HAL_TIMEOUT;
 8001fde:	2003      	movs	r0, #3
 8001fe0:	e12f      	b.n	8002242 <HAL_RCC_OscConfig+0x3f6>
        __HAL_RCC_HSI_CALIBRATIONVALUE_ADJUST(RCC_OscInitStruct->HSICalibrationValue);
 8001fe2:	4a39      	ldr	r2, [pc, #228]	@ (80020c8 <HAL_RCC_OscConfig+0x27c>)
 8001fe4:	6813      	ldr	r3, [r2, #0]
 8001fe6:	f023 03f8 	bic.w	r3, r3, #248	@ 0xf8
 8001fea:	6961      	ldr	r1, [r4, #20]
 8001fec:	ea43 03c1 	orr.w	r3, r3, r1, lsl #3
 8001ff0:	6013      	str	r3, [r2, #0]
 8001ff2:	e7dc      	b.n	8001fae <HAL_RCC_OscConfig+0x162>
        __HAL_RCC_HSI_DISABLE();
 8001ff4:	4b35      	ldr	r3, [pc, #212]	@ (80020cc <HAL_RCC_OscConfig+0x280>)
 8001ff6:	2200      	movs	r2, #0
 8001ff8:	601a      	str	r2, [r3, #0]
        tickstart = HAL_GetTick();
 8001ffa:	f7ff f9c3 	bl	8001384 <HAL_GetTick>
 8001ffe:	4605      	mov	r5, r0
        while (__HAL_RCC_GET_FLAG(RCC_FLAG_HSIRDY) != RESET)
 8002000:	4b31      	ldr	r3, [pc, #196]	@ (80020c8 <HAL_RCC_OscConfig+0x27c>)
 8002002:	681b      	ldr	r3, [r3, #0]
 8002004:	f013 0f02 	tst.w	r3, #2
 8002008:	d0d1      	beq.n	8001fae <HAL_RCC_OscConfig+0x162>
          if ((HAL_GetTick() - tickstart) > HSI_TIMEOUT_VALUE)
 800200a:	f7ff f9bb 	bl	8001384 <HAL_GetTick>
 800200e:	1b40      	subs	r0, r0, r5
 8002010:	2802      	cmp	r0, #2
 8002012:	d9f5      	bls.n	8002000 <HAL_RCC_OscConfig+0x1b4>
            return HAL_TIMEOUT;
 8002014:	2003      	movs	r0, #3
 8002016:	e114      	b.n	8002242 <HAL_RCC_OscConfig+0x3f6>
      RCC_Delay(1);
 8002018:	2001      	movs	r0, #1
 800201a:	f7ff ff01 	bl	8001e20 <RCC_Delay>
  if (((RCC_OscInitStruct->OscillatorType) & RCC_OSCILLATORTYPE_LSE) == RCC_OSCILLATORTYPE_LSE)
 800201e:	6823      	ldr	r3, [r4, #0]
 8002020:	f013 0f04 	tst.w	r3, #4
 8002024:	f000 8096 	beq.w	8002154 <HAL_RCC_OscConfig+0x308>
    if (__HAL_RCC_PWR_IS_CLK_DISABLED())
 8002028:	4b27      	ldr	r3, [pc, #156]	@ (80020c8 <HAL_RCC_OscConfig+0x27c>)
 800202a:	69db      	ldr	r3, [r3, #28]
 800202c:	f013 5f80 	tst.w	r3, #268435456	@ 0x10000000
 8002030:	d134      	bne.n	800209c <HAL_RCC_OscConfig+0x250>
      __HAL_RCC_PWR_CLK_ENABLE();
 8002032:	4b25      	ldr	r3, [pc, #148]	@ (80020c8 <HAL_RCC_OscConfig+0x27c>)
 8002034:	69da      	ldr	r2, [r3, #28]
 8002036:	f042 5280 	orr.w	r2, r2, #268435456	@ 0x10000000
 800203a:	61da      	str	r2, [r3, #28]
 800203c:	69db      	ldr	r3, [r3, #28]
 800203e:	f003 5380 	and.w	r3, r3, #268435456	@ 0x10000000
 8002042:	9301      	str	r3, [sp, #4]
 8002044:	9b01      	ldr	r3, [sp, #4]
      pwrclkchanged = SET;
 8002046:	2501      	movs	r5, #1
    if (HAL_IS_BIT_CLR(PWR->CR, PWR_CR_DBP))
 8002048:	4b21      	ldr	r3, [pc, #132]	@ (80020d0 <HAL_RCC_OscConfig+0x284>)
 800204a:	681b      	ldr	r3, [r3, #0]
 800204c:	f413 7f80 	tst.w	r3, #256	@ 0x100
 8002050:	d026      	beq.n	80020a0 <HAL_RCC_OscConfig+0x254>
    __HAL_RCC_LSE_CONFIG(RCC_OscInitStruct->LSEState);
 8002052:	68e3      	ldr	r3, [r4, #12]
 8002054:	2b01      	cmp	r3, #1
 8002056:	d03d      	beq.n	80020d4 <HAL_RCC_OscConfig+0x288>
 8002058:	2b00      	cmp	r3, #0
 800205a:	d153      	bne.n	8002104 <HAL_RCC_OscConfig+0x2b8>
 800205c:	f103 4380 	add.w	r3, r3, #1073741824	@ 0x40000000
 8002060:	f503 3304 	add.w	r3, r3, #135168	@ 0x21000
 8002064:	6a1a      	ldr	r2, [r3, #32]
 8002066:	f022 0201 	bic.w	r2, r2, #1
 800206a:	621a      	str	r2, [r3, #32]
 800206c:	6a1a      	ldr	r2, [r3, #32]
 800206e:	f022 0204 	bic.w	r2, r2, #4
 8002072:	621a      	str	r2, [r3, #32]
 8002074:	e033      	b.n	80020de <HAL_RCC_OscConfig+0x292>
      __HAL_RCC_LSI_DISABLE();
 8002076:	4b15      	ldr	r3, [pc, #84]	@ (80020cc <HAL_RCC_OscConfig+0x280>)
 8002078:	2200      	movs	r2, #0
 800207a:	f8c3 2480 	str.w	r2, [r3, #1152]	@ 0x480
      tickstart = HAL_GetTick();
 800207e:	f7ff f981 	bl	8001384 <HAL_GetTick>
 8002082:	4605      	mov	r5, r0
      while (__HAL_RCC_GET_FLAG(RCC_FLAG_LSIRDY) != RESET)
 8002084:	4b10      	ldr	r3, [pc, #64]	@ (80020c8 <HAL_RCC_OscConfig+0x27c>)
 8002086:	6a5b      	ldr	r3, [r3, #36]	@ 0x24
 8002088:	f013 0f02 	tst.w	r3, #2
 800208c:	d0c7      	beq.n	800201e <HAL_RCC_OscConfig+0x1d2>
        if ((HAL_GetTick() - tickstart) > LSI_TIMEOUT_VALUE)
 800208e:	f7ff f979 	bl	8001384 <HAL_GetTick>
 8002092:	1b40      	subs	r0, r0, r5
 8002094:	2802      	cmp	r0, #2
 8002096:	d9f5      	bls.n	8002084 <HAL_RCC_OscConfig+0x238>
          return HAL_TIMEOUT;
 8002098:	2003      	movs	r0, #3
 800209a:	e0d2      	b.n	8002242 <HAL_RCC_OscConfig+0x3f6>
    FlagStatus       pwrclkchanged = RESET;
 800209c:	2500      	movs	r5, #0
 800209e:	e7d3      	b.n	8002048 <HAL_RCC_OscConfig+0x1fc>
      SET_BIT(PWR->CR, PWR_CR_DBP);
 80020a0:	4a0b      	ldr	r2, [pc, #44]	@ (80020d0 <HAL_RCC_OscConfig+0x284>)
 80020a2:	6813      	ldr	r3, [r2, #0]
 80020a4:	f443 7380 	orr.w	r3, r3, #256	@ 0x100
 80020a8:	6013      	str	r3, [r2, #0]
      tickstart = HAL_GetTick();
 80020aa:	f7ff f96b 	bl	8001384 <HAL_GetTick>
 80020ae:	4606      	mov	r6, r0
      while (HAL_IS_BIT_CLR(PWR->CR, PWR_CR_DBP))
 80020b0:	4b07      	ldr	r3, [pc, #28]	@ (80020d0 <HAL_RCC_OscConfig+0x284>)
 80020b2:	681b      	ldr	r3, [r3, #0]
 80020b4:	f413 7f80 	tst.w	r3, #256	@ 0x100
 80020b8:	d1cb      	bne.n	8002052 <HAL_RCC_OscConfig+0x206>
        if ((HAL_GetTick() - tickstart) > RCC_DBP_TIMEOUT_VALUE)
 80020ba:	f7ff f963 	bl	8001384 <HAL_GetTick>
 80020be:	1b80      	subs	r0, r0, r6
 80020c0:	2864      	cmp	r0, #100	@ 0x64
 80020c2:	d9f5      	bls.n	80020b0 <HAL_RCC_OscConfig+0x264>
          return HAL_TIMEOUT;
 80020c4:	2003      	movs	r0, #3
 80020c6:	e0bc      	b.n	8002242 <HAL_RCC_OscConfig+0x3f6>
 80020c8:	40021000 	.word	0x40021000
 80020cc:	42420000 	.word	0x42420000
 80020d0:	40007000 	.word	0x40007000
    __HAL_RCC_LSE_CONFIG(RCC_OscInitStruct->LSEState);
 80020d4:	4a5f      	ldr	r2, [pc, #380]	@ (8002254 <HAL_RCC_OscConfig+0x408>)
 80020d6:	6a13      	ldr	r3, [r2, #32]
 80020d8:	f043 0301 	orr.w	r3, r3, #1
 80020dc:	6213      	str	r3, [r2, #32]
    if (RCC_OscInitStruct->LSEState != RCC_LSE_OFF)
 80020de:	68e3      	ldr	r3, [r4, #12]
 80020e0:	b333      	cbz	r3, 8002130 <HAL_RCC_OscConfig+0x2e4>
      tickstart = HAL_GetTick();
 80020e2:	f7ff f94f 	bl	8001384 <HAL_GetTick>
 80020e6:	4606      	mov	r6, r0
      while (__HAL_RCC_GET_FLAG(RCC_FLAG_LSERDY) == RESET)
 80020e8:	4b5a      	ldr	r3, [pc, #360]	@ (8002254 <HAL_RCC_OscConfig+0x408>)
 80020ea:	6a1b      	ldr	r3, [r3, #32]
 80020ec:	f013 0f02 	tst.w	r3, #2
 80020f0:	d12f      	bne.n	8002152 <HAL_RCC_OscConfig+0x306>
        if ((HAL_GetTick() - tickstart) > RCC_LSE_TIMEOUT_VALUE)
 80020f2:	f7ff f947 	bl	8001384 <HAL_GetTick>
 80020f6:	1b80      	subs	r0, r0, r6
 80020f8:	f241 3388 	movw	r3, #5000	@ 0x1388
 80020fc:	4298      	cmp	r0, r3
 80020fe:	d9f3      	bls.n	80020e8 <HAL_RCC_OscConfig+0x29c>
          return HAL_TIMEOUT;
 8002100:	2003      	movs	r0, #3
 8002102:	e09e      	b.n	8002242 <HAL_RCC_OscConfig+0x3f6>
    __HAL_RCC_LSE_CONFIG(RCC_OscInitStruct->LSEState);
 8002104:	2b05      	cmp	r3, #5
 8002106:	d009      	beq.n	800211c <HAL_RCC_OscConfig+0x2d0>
 8002108:	4b52      	ldr	r3, [pc, #328]	@ (8002254 <HAL_RCC_OscConfig+0x408>)
 800210a:	6a1a      	ldr	r2, [r3, #32]
 800210c:	f022 0201 	bic.w	r2, r2, #1
 8002110:	621a      	str	r2, [r3, #32]
 8002112:	6a1a      	ldr	r2, [r3, #32]
 8002114:	f022 0204 	bic.w	r2, r2, #4
 8002118:	621a      	str	r2, [r3, #32]
 800211a:	e7e0      	b.n	80020de <HAL_RCC_OscConfig+0x292>
 800211c:	4b4d      	ldr	r3, [pc, #308]	@ (8002254 <HAL_RCC_OscConfig+0x408>)
 800211e:	6a1a      	ldr	r2, [r3, #32]
 8002120:	f042 0204 	orr.w	r2, r2, #4
 8002124:	621a      	str	r2, [r3, #32]
 8002126:	6a1a      	ldr	r2, [r3, #32]
 8002128:	f042 0201 	orr.w	r2, r2, #1
 800212c:	621a      	str	r2, [r3, #32]
 800212e:	e7d6      	b.n	80020de <HAL_RCC_OscConfig+0x292>
      tickstart = HAL_GetTick();
 8002130:	f7ff f928 	bl	8001384 <HAL_GetTick>
 8002134:	4606      	mov	r6, r0
      while (__HAL_RCC_GET_FLAG(RCC_FLAG_LSERDY) != RESET)
 8002136:	4b47      	ldr	r3, [pc, #284]	@ (8002254 <HAL_RCC_OscConfig+0x408>)
 8002138:	6a1b      	ldr	r3, [r3, #32]
 800213a:	f013 0f02 	tst.w	r3, #2
 800213e:	d008      	beq.n	8002152 <HAL_RCC_OscConfig+0x306>
        if ((HAL_GetTick() - tickstart) > RCC_LSE_TIMEOUT_VALUE)
 8002140:	f7ff f920 	bl	8001384 <HAL_GetTick>
 8002144:	1b80      	subs	r0, r0, r6
 8002146:	f241 3388 	movw	r3, #5000	@ 0x1388
 800214a:	4298      	cmp	r0, r3
 800214c:	d9f3      	bls.n	8002136 <HAL_RCC_OscConfig+0x2ea>
          return HAL_TIMEOUT;
 800214e:	2003      	movs	r0, #3
 8002150:	e077      	b.n	8002242 <HAL_RCC_OscConfig+0x3f6>
    if (pwrclkchanged == SET)
 8002152:	b9e5      	cbnz	r5, 800218e <HAL_RCC_OscConfig+0x342>
  if ((RCC_OscInitStruct->PLL.PLLState) != RCC_PLL_NONE)
 8002154:	69e3      	ldr	r3, [r4, #28]
 8002156:	2b00      	cmp	r3, #0
 8002158:	d072      	beq.n	8002240 <HAL_RCC_OscConfig+0x3f4>
    if (__HAL_RCC_GET_SYSCLK_SOURCE() != RCC_SYSCLKSOURCE_STATUS_PLLCLK)
 800215a:	4a3e      	ldr	r2, [pc, #248]	@ (8002254 <HAL_RCC_OscConfig+0x408>)
 800215c:	6852      	ldr	r2, [r2, #4]
 800215e:	f002 020c 	and.w	r2, r2, #12
 8002162:	2a08      	cmp	r2, #8
 8002164:	d056      	beq.n	8002214 <HAL_RCC_OscConfig+0x3c8>
      if ((RCC_OscInitStruct->PLL.PLLState) == RCC_PLL_ON)
 8002166:	2b02      	cmp	r3, #2
 8002168:	d017      	beq.n	800219a <HAL_RCC_OscConfig+0x34e>
        __HAL_RCC_PLL_DISABLE();
 800216a:	4b3b      	ldr	r3, [pc, #236]	@ (8002258 <HAL_RCC_OscConfig+0x40c>)
 800216c:	2200      	movs	r2, #0
 800216e:	661a      	str	r2, [r3, #96]	@ 0x60
        tickstart = HAL_GetTick();
 8002170:	f7ff f908 	bl	8001384 <HAL_GetTick>
 8002174:	4604      	mov	r4, r0
        while (__HAL_RCC_GET_FLAG(RCC_FLAG_PLLRDY)  != RESET)
 8002176:	4b37      	ldr	r3, [pc, #220]	@ (8002254 <HAL_RCC_OscConfig+0x408>)
 8002178:	681b      	ldr	r3, [r3, #0]
 800217a:	f013 7f00 	tst.w	r3, #33554432	@ 0x2000000
 800217e:	d047      	beq.n	8002210 <HAL_RCC_OscConfig+0x3c4>
          if ((HAL_GetTick() - tickstart) > PLL_TIMEOUT_VALUE)
 8002180:	f7ff f900 	bl	8001384 <HAL_GetTick>
 8002184:	1b00      	subs	r0, r0, r4
 8002186:	2802      	cmp	r0, #2
 8002188:	d9f5      	bls.n	8002176 <HAL_RCC_OscConfig+0x32a>
            return HAL_TIMEOUT;
 800218a:	2003      	movs	r0, #3
 800218c:	e059      	b.n	8002242 <HAL_RCC_OscConfig+0x3f6>
      __HAL_RCC_PWR_CLK_DISABLE();
 800218e:	4a31      	ldr	r2, [pc, #196]	@ (8002254 <HAL_RCC_OscConfig+0x408>)
 8002190:	69d3      	ldr	r3, [r2, #28]
 8002192:	f023 5380 	bic.w	r3, r3, #268435456	@ 0x10000000
 8002196:	61d3      	str	r3, [r2, #28]
 8002198:	e7dc      	b.n	8002154 <HAL_RCC_OscConfig+0x308>
        __HAL_RCC_PLL_DISABLE();
 800219a:	4b2f      	ldr	r3, [pc, #188]	@ (8002258 <HAL_RCC_OscConfig+0x40c>)
 800219c:	2200      	movs	r2, #0
 800219e:	661a      	str	r2, [r3, #96]	@ 0x60
        tickstart = HAL_GetTick();
 80021a0:	f7ff f8f0 	bl	8001384 <HAL_GetTick>
 80021a4:	4605      	mov	r5, r0
        while (__HAL_RCC_GET_FLAG(RCC_FLAG_PLLRDY)  != RESET)
 80021a6:	4b2b      	ldr	r3, [pc, #172]	@ (8002254 <HAL_RCC_OscConfig+0x408>)
 80021a8:	681b      	ldr	r3, [r3, #0]
 80021aa:	f013 7f00 	tst.w	r3, #33554432	@ 0x2000000
 80021ae:	d006      	beq.n	80021be <HAL_RCC_OscConfig+0x372>
          if ((HAL_GetTick() - tickstart) > PLL_TIMEOUT_VALUE)
 80021b0:	f7ff f8e8 	bl	8001384 <HAL_GetTick>
 80021b4:	1b40      	subs	r0, r0, r5
 80021b6:	2802      	cmp	r0, #2
 80021b8:	d9f5      	bls.n	80021a6 <HAL_RCC_OscConfig+0x35a>
            return HAL_TIMEOUT;
 80021ba:	2003      	movs	r0, #3
 80021bc:	e041      	b.n	8002242 <HAL_RCC_OscConfig+0x3f6>
        if (RCC_OscInitStruct->PLL.PLLSource == RCC_PLLSOURCE_HSE)
 80021be:	6a23      	ldr	r3, [r4, #32]
 80021c0:	f5b3 3f80 	cmp.w	r3, #65536	@ 0x10000
 80021c4:	d01a      	beq.n	80021fc <HAL_RCC_OscConfig+0x3b0>
        __HAL_RCC_PLL_CONFIG(RCC_OscInitStruct->PLL.PLLSource,
 80021c6:	4923      	ldr	r1, [pc, #140]	@ (8002254 <HAL_RCC_OscConfig+0x408>)
 80021c8:	684b      	ldr	r3, [r1, #4]
 80021ca:	f423 1374 	bic.w	r3, r3, #3997696	@ 0x3d0000
 80021ce:	6a22      	ldr	r2, [r4, #32]
 80021d0:	6a60      	ldr	r0, [r4, #36]	@ 0x24
 80021d2:	4302      	orrs	r2, r0
 80021d4:	4313      	orrs	r3, r2
 80021d6:	604b      	str	r3, [r1, #4]
        __HAL_RCC_PLL_ENABLE();
 80021d8:	4b1f      	ldr	r3, [pc, #124]	@ (8002258 <HAL_RCC_OscConfig+0x40c>)
 80021da:	2201      	movs	r2, #1
 80021dc:	661a      	str	r2, [r3, #96]	@ 0x60
        tickstart = HAL_GetTick();
 80021de:	f7ff f8d1 	bl	8001384 <HAL_GetTick>
 80021e2:	4604      	mov	r4, r0
        while (__HAL_RCC_GET_FLAG(RCC_FLAG_PLLRDY)  == RESET)
 80021e4:	4b1b      	ldr	r3, [pc, #108]	@ (8002254 <HAL_RCC_OscConfig+0x408>)
 80021e6:	681b      	ldr	r3, [r3, #0]
 80021e8:	f013 7f00 	tst.w	r3, #33554432	@ 0x2000000
 80021ec:	d10e      	bne.n	800220c <HAL_RCC_OscConfig+0x3c0>
          if ((HAL_GetTick() - tickstart) > PLL_TIMEOUT_VALUE)
 80021ee:	f7ff f8c9 	bl	8001384 <HAL_GetTick>
 80021f2:	1b00      	subs	r0, r0, r4
 80021f4:	2802      	cmp	r0, #2
 80021f6:	d9f5      	bls.n	80021e4 <HAL_RCC_OscConfig+0x398>
            return HAL_TIMEOUT;
 80021f8:	2003      	movs	r0, #3
 80021fa:	e022      	b.n	8002242 <HAL_RCC_OscConfig+0x3f6>
          __HAL_RCC_HSE_PREDIV_CONFIG(RCC_OscInitStruct->HSEPredivValue);
 80021fc:	4a15      	ldr	r2, [pc, #84]	@ (8002254 <HAL_RCC_OscConfig+0x408>)
 80021fe:	6853      	ldr	r3, [r2, #4]
 8002200:	f423 3300 	bic.w	r3, r3, #131072	@ 0x20000
 8002204:	68a1      	ldr	r1, [r4, #8]
 8002206:	430b      	orrs	r3, r1
 8002208:	6053      	str	r3, [r2, #4]
 800220a:	e7dc      	b.n	80021c6 <HAL_RCC_OscConfig+0x37a>
  return HAL_OK;
 800220c:	2000      	movs	r0, #0
 800220e:	e018      	b.n	8002242 <HAL_RCC_OscConfig+0x3f6>
 8002210:	2000      	movs	r0, #0
 8002212:	e016      	b.n	8002242 <HAL_RCC_OscConfig+0x3f6>
      if ((RCC_OscInitStruct->PLL.PLLState) == RCC_PLL_OFF)
 8002214:	2b01      	cmp	r3, #1
 8002216:	d016      	beq.n	8002246 <HAL_RCC_OscConfig+0x3fa>
        pll_config = RCC->CFGR;
 8002218:	4b0e      	ldr	r3, [pc, #56]	@ (8002254 <HAL_RCC_OscConfig+0x408>)
 800221a:	685b      	ldr	r3, [r3, #4]
        if ((READ_BIT(pll_config, RCC_CFGR_PLLSRC) != RCC_OscInitStruct->PLL.PLLSource) ||
 800221c:	f403 3180 	and.w	r1, r3, #65536	@ 0x10000
 8002220:	6a22      	ldr	r2, [r4, #32]
 8002222:	4291      	cmp	r1, r2
 8002224:	d111      	bne.n	800224a <HAL_RCC_OscConfig+0x3fe>
            (READ_BIT(pll_config, RCC_CFGR_PLLMULL) != RCC_OscInitStruct->PLL.PLLMUL))
 8002226:	f403 1370 	and.w	r3, r3, #3932160	@ 0x3c0000
 800222a:	6a62      	ldr	r2, [r4, #36]	@ 0x24
        if ((READ_BIT(pll_config, RCC_CFGR_PLLSRC) != RCC_OscInitStruct->PLL.PLLSource) ||
 800222c:	4293      	cmp	r3, r2
 800222e:	d10e      	bne.n	800224e <HAL_RCC_OscConfig+0x402>
  return HAL_OK;
 8002230:	2000      	movs	r0, #0
 8002232:	e006      	b.n	8002242 <HAL_RCC_OscConfig+0x3f6>
    return HAL_ERROR;
 8002234:	2001      	movs	r0, #1
}
 8002236:	4770      	bx	lr
        return HAL_ERROR;
 8002238:	2001      	movs	r0, #1
 800223a:	e002      	b.n	8002242 <HAL_RCC_OscConfig+0x3f6>
        return HAL_ERROR;
 800223c:	2001      	movs	r0, #1
 800223e:	e000      	b.n	8002242 <HAL_RCC_OscConfig+0x3f6>
  return HAL_OK;
 8002240:	2000      	movs	r0, #0
}
 8002242:	b002      	add	sp, #8
 8002244:	bd70      	pop	{r4, r5, r6, pc}
        return HAL_ERROR;
 8002246:	2001      	movs	r0, #1
 8002248:	e7fb      	b.n	8002242 <HAL_RCC_OscConfig+0x3f6>
          return HAL_ERROR;
 800224a:	2001      	movs	r0, #1
 800224c:	e7f9      	b.n	8002242 <HAL_RCC_OscConfig+0x3f6>
 800224e:	2001      	movs	r0, #1
 8002250:	e7f7      	b.n	8002242 <HAL_RCC_OscConfig+0x3f6>
 8002252:	bf00      	nop
 8002254:	40021000 	.word	0x40021000
 8002258:	42420000 	.word	0x42420000

0800225c <HAL_RCC_GetSysClockFreq>:
  tmpreg = RCC->CFGR;
 800225c:	4b0f      	ldr	r3, [pc, #60]	@ (800229c <HAL_RCC_GetSysClockFreq+0x40>)
 800225e:	685b      	ldr	r3, [r3, #4]
  switch (tmpreg & RCC_CFGR_SWS)
 8002260:	f003 020c 	and.w	r2, r3, #12
 8002264:	2a08      	cmp	r2, #8
 8002266:	d001      	beq.n	800226c <HAL_RCC_GetSysClockFreq+0x10>
      sysclockfreq = HSE_VALUE;
 8002268:	480d      	ldr	r0, [pc, #52]	@ (80022a0 <HAL_RCC_GetSysClockFreq+0x44>)
}
 800226a:	4770      	bx	lr
      pllmul = aPLLMULFactorTable[(uint32_t)(tmpreg & RCC_CFGR_PLLMULL) >> RCC_CFGR_PLLMULL_Pos];
 800226c:	f3c3 4283 	ubfx	r2, r3, #18, #4
 8002270:	490c      	ldr	r1, [pc, #48]	@ (80022a4 <HAL_RCC_GetSysClockFreq+0x48>)
 8002272:	5c88      	ldrb	r0, [r1, r2]
      if ((tmpreg & RCC_CFGR_PLLSRC) != RCC_PLLSOURCE_HSI_DIV2)
 8002274:	f413 3f80 	tst.w	r3, #65536	@ 0x10000
 8002278:	d00b      	beq.n	8002292 <HAL_RCC_GetSysClockFreq+0x36>
        prediv = aPredivFactorTable[(uint32_t)(RCC->CFGR & RCC_CFGR_PLLXTPRE) >> RCC_CFGR_PLLXTPRE_Pos];
 800227a:	4b08      	ldr	r3, [pc, #32]	@ (800229c <HAL_RCC_GetSysClockFreq+0x40>)
 800227c:	685b      	ldr	r3, [r3, #4]
 800227e:	f3c3 4340 	ubfx	r3, r3, #17, #1
 8002282:	4a09      	ldr	r2, [pc, #36]	@ (80022a8 <HAL_RCC_GetSysClockFreq+0x4c>)
 8002284:	5cd3      	ldrb	r3, [r2, r3]
        pllclk = (uint32_t)((HSE_VALUE  * pllmul) / prediv);
 8002286:	4a06      	ldr	r2, [pc, #24]	@ (80022a0 <HAL_RCC_GetSysClockFreq+0x44>)
 8002288:	fb02 f000 	mul.w	r0, r2, r0
 800228c:	fbb0 f0f3 	udiv	r0, r0, r3
 8002290:	4770      	bx	lr
        pllclk = (uint32_t)((HSI_VALUE >> 1) * pllmul);
 8002292:	4b06      	ldr	r3, [pc, #24]	@ (80022ac <HAL_RCC_GetSysClockFreq+0x50>)
 8002294:	fb03 f000 	mul.w	r0, r3, r0
 8002298:	4770      	bx	lr
 800229a:	bf00      	nop
 800229c:	40021000 	.word	0x40021000
 80022a0:	007a1200 	.word	0x007a1200
 80022a4:	08003974 	.word	0x08003974
 80022a8:	08003970 	.word	0x08003970
 80022ac:	003d0900 	.word	0x003d0900

080022b0 <HAL_RCC_ClockConfig>:
  if (RCC_ClkInitStruct == NULL)
 80022b0:	2800      	cmp	r0, #0
 80022b2:	f000 80a0 	beq.w	80023f6 <HAL_RCC_ClockConfig+0x146>
{
 80022b6:	b570      	push	{r4, r5, r6, lr}
 80022b8:	460d      	mov	r5, r1
 80022ba:	4604      	mov	r4, r0
  if (FLatency > __HAL_FLASH_GET_LATENCY())
 80022bc:	4b52      	ldr	r3, [pc, #328]	@ (8002408 <HAL_RCC_ClockConfig+0x158>)
 80022be:	681b      	ldr	r3, [r3, #0]
 80022c0:	f003 0307 	and.w	r3, r3, #7
 80022c4:	428b      	cmp	r3, r1
 80022c6:	d20b      	bcs.n	80022e0 <HAL_RCC_ClockConfig+0x30>
    __HAL_FLASH_SET_LATENCY(FLatency);
 80022c8:	4a4f      	ldr	r2, [pc, #316]	@ (8002408 <HAL_RCC_ClockConfig+0x158>)
 80022ca:	6813      	ldr	r3, [r2, #0]
 80022cc:	f023 0307 	bic.w	r3, r3, #7
 80022d0:	430b      	orrs	r3, r1
 80022d2:	6013      	str	r3, [r2, #0]
    if (__HAL_FLASH_GET_LATENCY() != FLatency)
 80022d4:	6813      	ldr	r3, [r2, #0]
 80022d6:	f003 0307 	and.w	r3, r3, #7
 80022da:	428b      	cmp	r3, r1
 80022dc:	f040 808d 	bne.w	80023fa <HAL_RCC_ClockConfig+0x14a>
if (((RCC_ClkInitStruct->ClockType) & RCC_CLOCKTYPE_HCLK) == RCC_CLOCKTYPE_HCLK)
 80022e0:	6823      	ldr	r3, [r4, #0]
 80022e2:	f013 0f02 	tst.w	r3, #2
 80022e6:	d017      	beq.n	8002318 <HAL_RCC_ClockConfig+0x68>
    if (((RCC_ClkInitStruct->ClockType) & RCC_CLOCKTYPE_PCLK1) == RCC_CLOCKTYPE_PCLK1)
 80022e8:	f013 0f04 	tst.w	r3, #4
 80022ec:	d004      	beq.n	80022f8 <HAL_RCC_ClockConfig+0x48>
      MODIFY_REG(RCC->CFGR, RCC_CFGR_PPRE1, RCC_HCLK_DIV16);
 80022ee:	4a47      	ldr	r2, [pc, #284]	@ (800240c <HAL_RCC_ClockConfig+0x15c>)
 80022f0:	6853      	ldr	r3, [r2, #4]
 80022f2:	f443 63e0 	orr.w	r3, r3, #1792	@ 0x700
 80022f6:	6053      	str	r3, [r2, #4]
    if (((RCC_ClkInitStruct->ClockType) & RCC_CLOCKTYPE_PCLK2) == RCC_CLOCKTYPE_PCLK2)
 80022f8:	6823      	ldr	r3, [r4, #0]
 80022fa:	f013 0f08 	tst.w	r3, #8
 80022fe:	d004      	beq.n	800230a <HAL_RCC_ClockConfig+0x5a>
      MODIFY_REG(RCC->CFGR, RCC_CFGR_PPRE2, (RCC_HCLK_DIV16 << 3));
 8002300:	4a42      	ldr	r2, [pc, #264]	@ (800240c <HAL_RCC_ClockConfig+0x15c>)
 8002302:	6853      	ldr	r3, [r2, #4]
 8002304:	f443 5360 	orr.w	r3, r3, #14336	@ 0x3800
 8002308:	6053      	str	r3, [r2, #4]
    MODIFY_REG(RCC->CFGR, RCC_CFGR_HPRE, RCC_ClkInitStruct->AHBCLKDivider);
 800230a:	4a40      	ldr	r2, [pc, #256]	@ (800240c <HAL_RCC_ClockConfig+0x15c>)
 800230c:	6853      	ldr	r3, [r2, #4]
 800230e:	f023 03f0 	bic.w	r3, r3, #240	@ 0xf0
 8002312:	68a1      	ldr	r1, [r4, #8]
 8002314:	430b      	orrs	r3, r1
 8002316:	6053      	str	r3, [r2, #4]
  if (((RCC_ClkInitStruct->ClockType) & RCC_CLOCKTYPE_SYSCLK) == RCC_CLOCKTYPE_SYSCLK)
 8002318:	6823      	ldr	r3, [r4, #0]
 800231a:	f013 0f01 	tst.w	r3, #1
 800231e:	d031      	beq.n	8002384 <HAL_RCC_ClockConfig+0xd4>
    if (RCC_ClkInitStruct->SYSCLKSource == RCC_SYSCLKSOURCE_HSE)
 8002320:	6863      	ldr	r3, [r4, #4]
 8002322:	2b01      	cmp	r3, #1
 8002324:	d020      	beq.n	8002368 <HAL_RCC_ClockConfig+0xb8>
    else if (RCC_ClkInitStruct->SYSCLKSource == RCC_SYSCLKSOURCE_PLLCLK)
 8002326:	2b02      	cmp	r3, #2
 8002328:	d025      	beq.n	8002376 <HAL_RCC_ClockConfig+0xc6>
      if (__HAL_RCC_GET_FLAG(RCC_FLAG_HSIRDY) == RESET)
 800232a:	4a38      	ldr	r2, [pc, #224]	@ (800240c <HAL_RCC_ClockConfig+0x15c>)
 800232c:	6812      	ldr	r2, [r2, #0]
 800232e:	f012 0f02 	tst.w	r2, #2
 8002332:	d064      	beq.n	80023fe <HAL_RCC_ClockConfig+0x14e>
    __HAL_RCC_SYSCLK_CONFIG(RCC_ClkInitStruct->SYSCLKSource);
 8002334:	4935      	ldr	r1, [pc, #212]	@ (800240c <HAL_RCC_ClockConfig+0x15c>)
 8002336:	684a      	ldr	r2, [r1, #4]
 8002338:	f022 0203 	bic.w	r2, r2, #3
 800233c:	4313      	orrs	r3, r2
 800233e:	604b      	str	r3, [r1, #4]
    tickstart = HAL_GetTick();
 8002340:	f7ff f820 	bl	8001384 <HAL_GetTick>
 8002344:	4606      	mov	r6, r0
    while (__HAL_RCC_GET_SYSCLK_SOURCE() != (RCC_ClkInitStruct->SYSCLKSource << RCC_CFGR_SWS_Pos))
 8002346:	4b31      	ldr	r3, [pc, #196]	@ (800240c <HAL_RCC_ClockConfig+0x15c>)
 8002348:	685b      	ldr	r3, [r3, #4]
 800234a:	f003 030c 	and.w	r3, r3, #12
 800234e:	6862      	ldr	r2, [r4, #4]
 8002350:	ebb3 0f82 	cmp.w	r3, r2, lsl #2
 8002354:	d016      	beq.n	8002384 <HAL_RCC_ClockConfig+0xd4>
      if ((HAL_GetTick() - tickstart) > CLOCKSWITCH_TIMEOUT_VALUE)
 8002356:	f7ff f815 	bl	8001384 <HAL_GetTick>
 800235a:	1b80      	subs	r0, r0, r6
 800235c:	f241 3388 	movw	r3, #5000	@ 0x1388
 8002360:	4298      	cmp	r0, r3
 8002362:	d9f0      	bls.n	8002346 <HAL_RCC_ClockConfig+0x96>
        return HAL_TIMEOUT;
 8002364:	2003      	movs	r0, #3
 8002366:	e045      	b.n	80023f4 <HAL_RCC_ClockConfig+0x144>
      if (__HAL_RCC_GET_FLAG(RCC_FLAG_HSERDY) == RESET)
 8002368:	4a28      	ldr	r2, [pc, #160]	@ (800240c <HAL_RCC_ClockConfig+0x15c>)
 800236a:	6812      	ldr	r2, [r2, #0]
 800236c:	f412 3f00 	tst.w	r2, #131072	@ 0x20000
 8002370:	d1e0      	bne.n	8002334 <HAL_RCC_ClockConfig+0x84>
        return HAL_ERROR;
 8002372:	2001      	movs	r0, #1
 8002374:	e03e      	b.n	80023f4 <HAL_RCC_ClockConfig+0x144>
      if (__HAL_RCC_GET_FLAG(RCC_FLAG_PLLRDY) == RESET)
 8002376:	4a25      	ldr	r2, [pc, #148]	@ (800240c <HAL_RCC_ClockConfig+0x15c>)
 8002378:	6812      	ldr	r2, [r2, #0]
 800237a:	f012 7f00 	tst.w	r2, #33554432	@ 0x2000000
 800237e:	d1d9      	bne.n	8002334 <HAL_RCC_ClockConfig+0x84>
        return HAL_ERROR;
 8002380:	2001      	movs	r0, #1
 8002382:	e037      	b.n	80023f4 <HAL_RCC_ClockConfig+0x144>
  if (FLatency < __HAL_FLASH_GET_LATENCY())
 8002384:	4b20      	ldr	r3, [pc, #128]	@ (8002408 <HAL_RCC_ClockConfig+0x158>)
 8002386:	681b      	ldr	r3, [r3, #0]
 8002388:	f003 0307 	and.w	r3, r3, #7
 800238c:	42ab      	cmp	r3, r5
 800238e:	d90a      	bls.n	80023a6 <HAL_RCC_ClockConfig+0xf6>
    __HAL_FLASH_SET_LATENCY(FLatency);
 8002390:	4a1d      	ldr	r2, [pc, #116]	@ (8002408 <HAL_RCC_ClockConfig+0x158>)
 8002392:	6813      	ldr	r3, [r2, #0]
 8002394:	f023 0307 	bic.w	r3, r3, #7
 8002398:	432b      	orrs	r3, r5
 800239a:	6013      	str	r3, [r2, #0]
    if (__HAL_FLASH_GET_LATENCY() != FLatency)
 800239c:	6813      	ldr	r3, [r2, #0]
 800239e:	f003 0307 	and.w	r3, r3, #7
 80023a2:	42ab      	cmp	r3, r5
 80023a4:	d12d      	bne.n	8002402 <HAL_RCC_ClockConfig+0x152>
if (((RCC_ClkInitStruct->ClockType) & RCC_CLOCKTYPE_PCLK1) == RCC_CLOCKTYPE_PCLK1)
 80023a6:	6823      	ldr	r3, [r4, #0]
 80023a8:	f013 0f04 	tst.w	r3, #4
 80023ac:	d006      	beq.n	80023bc <HAL_RCC_ClockConfig+0x10c>
    MODIFY_REG(RCC->CFGR, RCC_CFGR_PPRE1, RCC_ClkInitStruct->APB1CLKDivider);
 80023ae:	4a17      	ldr	r2, [pc, #92]	@ (800240c <HAL_RCC_ClockConfig+0x15c>)
 80023b0:	6853      	ldr	r3, [r2, #4]
 80023b2:	f423 63e0 	bic.w	r3, r3, #1792	@ 0x700
 80023b6:	68e1      	ldr	r1, [r4, #12]
 80023b8:	430b      	orrs	r3, r1
 80023ba:	6053      	str	r3, [r2, #4]
  if (((RCC_ClkInitStruct->ClockType) & RCC_CLOCKTYPE_PCLK2) == RCC_CLOCKTYPE_PCLK2)
 80023bc:	6823      	ldr	r3, [r4, #0]
 80023be:	f013 0f08 	tst.w	r3, #8
 80023c2:	d007      	beq.n	80023d4 <HAL_RCC_ClockConfig+0x124>
    MODIFY_REG(RCC->CFGR, RCC_CFGR_PPRE2, ((RCC_ClkInitStruct->APB2CLKDivider) << 3));
 80023c4:	4a11      	ldr	r2, [pc, #68]	@ (800240c <HAL_RCC_ClockConfig+0x15c>)
 80023c6:	6853      	ldr	r3, [r2, #4]
 80023c8:	f423 5360 	bic.w	r3, r3, #14336	@ 0x3800
 80023cc:	6921      	ldr	r1, [r4, #16]
 80023ce:	ea43 03c1 	orr.w	r3, r3, r1, lsl #3
 80023d2:	6053      	str	r3, [r2, #4]
  SystemCoreClock = HAL_RCC_GetSysClockFreq() >> AHBPrescTable[(RCC->CFGR & RCC_CFGR_HPRE) >> RCC_CFGR_HPRE_Pos];
 80023d4:	f7ff ff42 	bl	800225c <HAL_RCC_GetSysClockFreq>
 80023d8:	4b0c      	ldr	r3, [pc, #48]	@ (800240c <HAL_RCC_ClockConfig+0x15c>)
 80023da:	685b      	ldr	r3, [r3, #4]
 80023dc:	f3c3 1303 	ubfx	r3, r3, #4, #4
 80023e0:	4a0b      	ldr	r2, [pc, #44]	@ (8002410 <HAL_RCC_ClockConfig+0x160>)
 80023e2:	5cd3      	ldrb	r3, [r2, r3]
 80023e4:	40d8      	lsrs	r0, r3
 80023e6:	4b0b      	ldr	r3, [pc, #44]	@ (8002414 <HAL_RCC_ClockConfig+0x164>)
 80023e8:	6018      	str	r0, [r3, #0]
  HAL_InitTick(uwTickPrio);
 80023ea:	4b0b      	ldr	r3, [pc, #44]	@ (8002418 <HAL_RCC_ClockConfig+0x168>)
 80023ec:	6818      	ldr	r0, [r3, #0]
 80023ee:	f7fe ff85 	bl	80012fc <HAL_InitTick>
  return HAL_OK;
 80023f2:	2000      	movs	r0, #0
}
 80023f4:	bd70      	pop	{r4, r5, r6, pc}
    return HAL_ERROR;
 80023f6:	2001      	movs	r0, #1
}
 80023f8:	4770      	bx	lr
    return HAL_ERROR;
 80023fa:	2001      	movs	r0, #1
 80023fc:	e7fa      	b.n	80023f4 <HAL_RCC_ClockConfig+0x144>
        return HAL_ERROR;
 80023fe:	2001      	movs	r0, #1
 8002400:	e7f8      	b.n	80023f4 <HAL_RCC_ClockConfig+0x144>
    return HAL_ERROR;
 8002402:	2001      	movs	r0, #1
 8002404:	e7f6      	b.n	80023f4 <HAL_RCC_ClockConfig+0x144>
 8002406:	bf00      	nop
 8002408:	40022000 	.word	0x40022000
 800240c:	40021000 	.word	0x40021000
 8002410:	08003960 	.word	0x08003960
 8002414:	2000007c 	.word	0x2000007c
 8002418:	20000084 	.word	0x20000084

0800241c <HAL_RCC_GetHCLKFreq>:
}
 800241c:	4b01      	ldr	r3, [pc, #4]	@ (8002424 <HAL_RCC_GetHCLKFreq+0x8>)
 800241e:	6818      	ldr	r0, [r3, #0]
 8002420:	4770      	bx	lr
 8002422:	bf00      	nop
 8002424:	2000007c 	.word	0x2000007c

08002428 <HAL_RCC_GetPCLK1Freq>:
{
 8002428:	b508      	push	{r3, lr}
  return (HAL_RCC_GetHCLKFreq() >> APBPrescTable[(RCC->CFGR & RCC_CFGR_PPRE1) >> RCC_CFGR_PPRE1_Pos]);
 800242a:	f7ff fff7 	bl	800241c <HAL_RCC_GetHCLKFreq>
 800242e:	4b04      	ldr	r3, [pc, #16]	@ (8002440 <HAL_RCC_GetPCLK1Freq+0x18>)
 8002430:	685b      	ldr	r3, [r3, #4]
 8002432:	f3c3 2302 	ubfx	r3, r3, #8, #3
 8002436:	4a03      	ldr	r2, [pc, #12]	@ (8002444 <HAL_RCC_GetPCLK1Freq+0x1c>)
 8002438:	5cd3      	ldrb	r3, [r2, r3]
}
 800243a:	40d8      	lsrs	r0, r3
 800243c:	bd08      	pop	{r3, pc}
 800243e:	bf00      	nop
 8002440:	40021000 	.word	0x40021000
 8002444:	08003958 	.word	0x08003958

08002448 <HAL_RCC_GetPCLK2Freq>:
{
 8002448:	b508      	push	{r3, lr}
  return (HAL_RCC_GetHCLKFreq() >> APBPrescTable[(RCC->CFGR & RCC_CFGR_PPRE2) >> RCC_CFGR_PPRE2_Pos]);
 800244a:	f7ff ffe7 	bl	800241c <HAL_RCC_GetHCLKFreq>
 800244e:	4b04      	ldr	r3, [pc, #16]	@ (8002460 <HAL_RCC_GetPCLK2Freq+0x18>)
 8002450:	685b      	ldr	r3, [r3, #4]
 8002452:	f3c3 23c2 	ubfx	r3, r3, #11, #3
 8002456:	4a03      	ldr	r2, [pc, #12]	@ (8002464 <HAL_RCC_GetPCLK2Freq+0x1c>)
 8002458:	5cd3      	ldrb	r3, [r2, r3]
}
 800245a:	40d8      	lsrs	r0, r3
 800245c:	bd08      	pop	{r3, pc}
 800245e:	bf00      	nop
 8002460:	40021000 	.word	0x40021000
 8002464:	08003958 	.word	0x08003958

08002468 <HAL_RCCEx_PeriphCLKConfig>:
  *         manually disable it.
  *
  * @retval HAL status
  */
HAL_StatusTypeDef HAL_RCCEx_PeriphCLKConfig(RCC_PeriphCLKInitTypeDef  *PeriphClkInit)
{
 8002468:	b570      	push	{r4, r5, r6, lr}
 800246a:	b082      	sub	sp, #8
 800246c:	4604      	mov	r4, r0

  /* Check the parameters */
  assert_param(IS_RCC_PERIPHCLOCK(PeriphClkInit->PeriphClockSelection));

  /*------------------------------- RTC/LCD Configuration ------------------------*/
  if ((((PeriphClkInit->PeriphClockSelection) & RCC_PERIPHCLK_RTC) == RCC_PERIPHCLK_RTC))
 800246e:	6803      	ldr	r3, [r0, #0]
 8002470:	f013 0f01 	tst.w	r3, #1
 8002474:	d036      	beq.n	80024e4 <HAL_RCCEx_PeriphCLKConfig+0x7c>
    assert_param(IS_RCC_RTCCLKSOURCE(PeriphClkInit->RTCClockSelection));

    /* As soon as function is called to change RTC clock source, activation of the
       power domain is done. */
    /* Requires to enable write access to Backup Domain of necessary */
    if (__HAL_RCC_PWR_IS_CLK_DISABLED())
 8002476:	4b3f      	ldr	r3, [pc, #252]	@ (8002574 <HAL_RCCEx_PeriphCLKConfig+0x10c>)
 8002478:	69db      	ldr	r3, [r3, #28]
 800247a:	f013 5f80 	tst.w	r3, #268435456	@ 0x10000000
 800247e:	d149      	bne.n	8002514 <HAL_RCCEx_PeriphCLKConfig+0xac>
    {
      __HAL_RCC_PWR_CLK_ENABLE();
 8002480:	4b3c      	ldr	r3, [pc, #240]	@ (8002574 <HAL_RCCEx_PeriphCLKConfig+0x10c>)
 8002482:	69da      	ldr	r2, [r3, #28]
 8002484:	f042 5280 	orr.w	r2, r2, #268435456	@ 0x10000000
 8002488:	61da      	str	r2, [r3, #28]
 800248a:	69db      	ldr	r3, [r3, #28]
 800248c:	f003 5380 	and.w	r3, r3, #268435456	@ 0x10000000
 8002490:	9301      	str	r3, [sp, #4]
 8002492:	9b01      	ldr	r3, [sp, #4]
      pwrclkchanged = SET;
 8002494:	2501      	movs	r5, #1
    }

    if (HAL_IS_BIT_CLR(PWR->CR, PWR_CR_DBP))
 8002496:	4b38      	ldr	r3, [pc, #224]	@ (8002578 <HAL_RCCEx_PeriphCLKConfig+0x110>)
 8002498:	681b      	ldr	r3, [r3, #0]
 800249a:	f413 7f80 	tst.w	r3, #256	@ 0x100
 800249e:	d03b      	beq.n	8002518 <HAL_RCCEx_PeriphCLKConfig+0xb0>
        }
      }
    }

    /* Reset the Backup domain only if the RTC Clock source selection is modified from reset value */
    temp_reg = (RCC->BDCR & RCC_BDCR_RTCSEL);
 80024a0:	4b34      	ldr	r3, [pc, #208]	@ (8002574 <HAL_RCCEx_PeriphCLKConfig+0x10c>)
 80024a2:	6a1b      	ldr	r3, [r3, #32]
    if ((temp_reg != 0x00000000U) && (temp_reg != (PeriphClkInit->RTCClockSelection & RCC_BDCR_RTCSEL)))
 80024a4:	f413 7340 	ands.w	r3, r3, #768	@ 0x300
 80024a8:	d013      	beq.n	80024d2 <HAL_RCCEx_PeriphCLKConfig+0x6a>
 80024aa:	6862      	ldr	r2, [r4, #4]
 80024ac:	f402 7240 	and.w	r2, r2, #768	@ 0x300
 80024b0:	429a      	cmp	r2, r3
 80024b2:	d00e      	beq.n	80024d2 <HAL_RCCEx_PeriphCLKConfig+0x6a>
    {
      /* Store the content of BDCR register before the reset of Backup Domain */
      temp_reg = (RCC->BDCR & ~(RCC_BDCR_RTCSEL));
 80024b4:	4a2f      	ldr	r2, [pc, #188]	@ (8002574 <HAL_RCCEx_PeriphCLKConfig+0x10c>)
 80024b6:	6a13      	ldr	r3, [r2, #32]
 80024b8:	f423 7040 	bic.w	r0, r3, #768	@ 0x300
      /* RTC Clock selection can be changed only if the Backup Domain is reset */
      __HAL_RCC_BACKUPRESET_FORCE();
 80024bc:	492f      	ldr	r1, [pc, #188]	@ (800257c <HAL_RCCEx_PeriphCLKConfig+0x114>)
 80024be:	2601      	movs	r6, #1
 80024c0:	f8c1 6440 	str.w	r6, [r1, #1088]	@ 0x440
      __HAL_RCC_BACKUPRESET_RELEASE();
 80024c4:	2600      	movs	r6, #0
 80024c6:	f8c1 6440 	str.w	r6, [r1, #1088]	@ 0x440
      /* Restore the Content of BDCR register */
      RCC->BDCR = temp_reg;
 80024ca:	6210      	str	r0, [r2, #32]

      /* Wait for LSERDY if LSE was enabled */
      if (HAL_IS_BIT_SET(temp_reg, RCC_BDCR_LSEON))
 80024cc:	f013 0f01 	tst.w	r3, #1
 80024d0:	d136      	bne.n	8002540 <HAL_RCCEx_PeriphCLKConfig+0xd8>
            return HAL_TIMEOUT;
          }
        }
      }
    }
    __HAL_RCC_RTC_CONFIG(PeriphClkInit->RTCClockSelection);
 80024d2:	4a28      	ldr	r2, [pc, #160]	@ (8002574 <HAL_RCCEx_PeriphCLKConfig+0x10c>)
 80024d4:	6a13      	ldr	r3, [r2, #32]
 80024d6:	f423 7340 	bic.w	r3, r3, #768	@ 0x300
 80024da:	6861      	ldr	r1, [r4, #4]
 80024dc:	430b      	orrs	r3, r1
 80024de:	6213      	str	r3, [r2, #32]

    /* Require to disable power clock if necessary */
    if (pwrclkchanged == SET)
 80024e0:	2d00      	cmp	r5, #0
 80024e2:	d13e      	bne.n	8002562 <HAL_RCCEx_PeriphCLKConfig+0xfa>
      __HAL_RCC_PWR_CLK_DISABLE();
    }
  }

  /*------------------------------ ADC clock Configuration ------------------*/
  if (((PeriphClkInit->PeriphClockSelection) & RCC_PERIPHCLK_ADC) == RCC_PERIPHCLK_ADC)
 80024e4:	6823      	ldr	r3, [r4, #0]
 80024e6:	f013 0f02 	tst.w	r3, #2
 80024ea:	d006      	beq.n	80024fa <HAL_RCCEx_PeriphCLKConfig+0x92>
  {
    /* Check the parameters */
    assert_param(IS_RCC_ADCPLLCLK_DIV(PeriphClkInit->AdcClockSelection));

    /* Configure the ADC clock source */
    __HAL_RCC_ADC_CONFIG(PeriphClkInit->AdcClockSelection);
 80024ec:	4a21      	ldr	r2, [pc, #132]	@ (8002574 <HAL_RCCEx_PeriphCLKConfig+0x10c>)
 80024ee:	6853      	ldr	r3, [r2, #4]
 80024f0:	f423 4340 	bic.w	r3, r3, #49152	@ 0xc000
 80024f4:	68a1      	ldr	r1, [r4, #8]
 80024f6:	430b      	orrs	r3, r1
 80024f8:	6053      	str	r3, [r2, #4]

#if defined(STM32F102x6) || defined(STM32F102xB) || defined(STM32F103x6)\
 || defined(STM32F103xB) || defined(STM32F103xE) || defined(STM32F103xG)\
 || defined(STM32F105xC) || defined(STM32F107xC)
  /*------------------------------ USB clock Configuration ------------------*/
  if (((PeriphClkInit->PeriphClockSelection) & RCC_PERIPHCLK_USB) == RCC_PERIPHCLK_USB)
 80024fa:	6823      	ldr	r3, [r4, #0]
 80024fc:	f013 0f10 	tst.w	r3, #16
 8002500:	d034      	beq.n	800256c <HAL_RCCEx_PeriphCLKConfig+0x104>
  {
    /* Check the parameters */
    assert_param(IS_RCC_USBPLLCLK_DIV(PeriphClkInit->UsbClockSelection));

    /* Configure the USB clock source */
    __HAL_RCC_USB_CONFIG(PeriphClkInit->UsbClockSelection);
 8002502:	4a1c      	ldr	r2, [pc, #112]	@ (8002574 <HAL_RCCEx_PeriphCLKConfig+0x10c>)
 8002504:	6853      	ldr	r3, [r2, #4]
 8002506:	f423 0380 	bic.w	r3, r3, #4194304	@ 0x400000
 800250a:	68e1      	ldr	r1, [r4, #12]
 800250c:	430b      	orrs	r3, r1
 800250e:	6053      	str	r3, [r2, #4]
  }
#endif /* STM32F102x6 || STM32F102xB || STM32F103x6 || STM32F103xB || STM32F103xE || STM32F103xG || STM32F105xC || STM32F107xC */

  return HAL_OK;
 8002510:	2000      	movs	r0, #0
 8002512:	e02c      	b.n	800256e <HAL_RCCEx_PeriphCLKConfig+0x106>
    FlagStatus pwrclkchanged = RESET;
 8002514:	2500      	movs	r5, #0
 8002516:	e7be      	b.n	8002496 <HAL_RCCEx_PeriphCLKConfig+0x2e>
      SET_BIT(PWR->CR, PWR_CR_DBP);
 8002518:	4a17      	ldr	r2, [pc, #92]	@ (8002578 <HAL_RCCEx_PeriphCLKConfig+0x110>)
 800251a:	6813      	ldr	r3, [r2, #0]
 800251c:	f443 7380 	orr.w	r3, r3, #256	@ 0x100
 8002520:	6013      	str	r3, [r2, #0]
      tickstart = HAL_GetTick();
 8002522:	f7fe ff2f 	bl	8001384 <HAL_GetTick>
 8002526:	4606      	mov	r6, r0
      while (HAL_IS_BIT_CLR(PWR->CR, PWR_CR_DBP))
 8002528:	4b13      	ldr	r3, [pc, #76]	@ (8002578 <HAL_RCCEx_PeriphCLKConfig+0x110>)
 800252a:	681b      	ldr	r3, [r3, #0]
 800252c:	f413 7f80 	tst.w	r3, #256	@ 0x100
 8002530:	d1b6      	bne.n	80024a0 <HAL_RCCEx_PeriphCLKConfig+0x38>
        if ((HAL_GetTick() - tickstart) > RCC_DBP_TIMEOUT_VALUE)
 8002532:	f7fe ff27 	bl	8001384 <HAL_GetTick>
 8002536:	1b80      	subs	r0, r0, r6
 8002538:	2864      	cmp	r0, #100	@ 0x64
 800253a:	d9f5      	bls.n	8002528 <HAL_RCCEx_PeriphCLKConfig+0xc0>
          return HAL_TIMEOUT;
 800253c:	2003      	movs	r0, #3
 800253e:	e016      	b.n	800256e <HAL_RCCEx_PeriphCLKConfig+0x106>
        tickstart = HAL_GetTick();
 8002540:	f7fe ff20 	bl	8001384 <HAL_GetTick>
 8002544:	4606      	mov	r6, r0
        while (__HAL_RCC_GET_FLAG(RCC_FLAG_LSERDY) == RESET)
 8002546:	4b0b      	ldr	r3, [pc, #44]	@ (8002574 <HAL_RCCEx_PeriphCLKConfig+0x10c>)
 8002548:	6a1b      	ldr	r3, [r3, #32]
 800254a:	f013 0f02 	tst.w	r3, #2
 800254e:	d1c0      	bne.n	80024d2 <HAL_RCCEx_PeriphCLKConfig+0x6a>
          if ((HAL_GetTick() - tickstart) > RCC_LSE_TIMEOUT_VALUE)
 8002550:	f7fe ff18 	bl	8001384 <HAL_GetTick>
 8002554:	1b80      	subs	r0, r0, r6
 8002556:	f241 3388 	movw	r3, #5000	@ 0x1388
 800255a:	4298      	cmp	r0, r3
 800255c:	d9f3      	bls.n	8002546 <HAL_RCCEx_PeriphCLKConfig+0xde>
            return HAL_TIMEOUT;
 800255e:	2003      	movs	r0, #3
 8002560:	e005      	b.n	800256e <HAL_RCCEx_PeriphCLKConfig+0x106>
      __HAL_RCC_PWR_CLK_DISABLE();
 8002562:	69d3      	ldr	r3, [r2, #28]
 8002564:	f023 5380 	bic.w	r3, r3, #268435456	@ 0x10000000
 8002568:	61d3      	str	r3, [r2, #28]
 800256a:	e7bb      	b.n	80024e4 <HAL_RCCEx_PeriphCLKConfig+0x7c>
  return HAL_OK;
 800256c:	2000      	movs	r0, #0
}
 800256e:	b002      	add	sp, #8
 8002570:	bd70      	pop	{r4, r5, r6, pc}
 8002572:	bf00      	nop
 8002574:	40021000 	.word	0x40021000
 8002578:	40007000 	.word	0x40007000
 800257c:	42420000 	.word	0x42420000

08002580 <HAL_RCCEx_GetPeriphCLKFreq>:
  *            @arg @ref RCC_PERIPHCLK_USB  USB peripheral clock
  @endif
  * @retval Frequency in Hz (0: means that no available frequency for the peripheral)
  */
uint32_t HAL_RCCEx_GetPeriphCLKFreq(uint32_t PeriphClk)
{
 8002580:	b508      	push	{r3, lr}
  uint32_t temp_reg = 0U, frequency = 0U;

  /* Check the parameters */
  assert_param(IS_RCC_PERIPHCLOCK(PeriphClk));

  switch (PeriphClk)
 8002582:	2802      	cmp	r0, #2
 8002584:	d04e      	beq.n	8002624 <HAL_RCCEx_GetPeriphCLKFreq+0xa4>
 8002586:	2810      	cmp	r0, #16
 8002588:	d003      	beq.n	8002592 <HAL_RCCEx_GetPeriphCLKFreq+0x12>
 800258a:	2801      	cmp	r0, #1
 800258c:	d028      	beq.n	80025e0 <HAL_RCCEx_GetPeriphCLKFreq+0x60>
 800258e:	2000      	movs	r0, #0
 8002590:	e052      	b.n	8002638 <HAL_RCCEx_GetPeriphCLKFreq+0xb8>
 || defined(STM32F103xB) || defined(STM32F103xE) || defined(STM32F103xG)\
 || defined(STM32F105xC) || defined(STM32F107xC)
    case RCC_PERIPHCLK_USB:
    {
      /* Get RCC configuration ------------------------------------------------------*/
      temp_reg = RCC->CFGR;
 8002592:	4b2b      	ldr	r3, [pc, #172]	@ (8002640 <HAL_RCCEx_GetPeriphCLKFreq+0xc0>)
 8002594:	685a      	ldr	r2, [r3, #4]

      /* Check if PLL is enabled */
      if (HAL_IS_BIT_SET(RCC->CR, RCC_CR_PLLON))
 8002596:	6818      	ldr	r0, [r3, #0]
 8002598:	f010 7080 	ands.w	r0, r0, #16777216	@ 0x1000000
 800259c:	d04c      	beq.n	8002638 <HAL_RCCEx_GetPeriphCLKFreq+0xb8>
      {
        pllmul = aPLLMULFactorTable[(uint32_t)(temp_reg & RCC_CFGR_PLLMULL) >> RCC_CFGR_PLLMULL_Pos];
 800259e:	f3c2 4383 	ubfx	r3, r2, #18, #4
 80025a2:	4928      	ldr	r1, [pc, #160]	@ (8002644 <HAL_RCCEx_GetPeriphCLKFreq+0xc4>)
 80025a4:	5cc8      	ldrb	r0, [r1, r3]
        if ((temp_reg & RCC_CFGR_PLLSRC) != RCC_PLLSOURCE_HSI_DIV2)
 80025a6:	f412 3f80 	tst.w	r2, #65536	@ 0x10000
 80025aa:	d015      	beq.n	80025d8 <HAL_RCCEx_GetPeriphCLKFreq+0x58>
        {
#if defined(STM32F105xC) || defined(STM32F107xC) || defined(STM32F100xB)\
 || defined(STM32F100xE)
          prediv1 = aPredivFactorTable[(uint32_t)(RCC->CFGR2 & RCC_CFGR2_PREDIV1) >> RCC_CFGR2_PREDIV1_Pos];
#else
          prediv1 = aPredivFactorTable[(uint32_t)(RCC->CFGR & RCC_CFGR_PLLXTPRE) >> RCC_CFGR_PLLXTPRE_Pos];
 80025ac:	4b24      	ldr	r3, [pc, #144]	@ (8002640 <HAL_RCCEx_GetPeriphCLKFreq+0xc0>)
 80025ae:	685b      	ldr	r3, [r3, #4]
 80025b0:	f3c3 4340 	ubfx	r3, r3, #17, #1
 80025b4:	4a24      	ldr	r2, [pc, #144]	@ (8002648 <HAL_RCCEx_GetPeriphCLKFreq+0xc8>)
 80025b6:	5cd2      	ldrb	r2, [r2, r3]
          }
#else
          if ((temp_reg & RCC_CFGR_PLLSRC) != RCC_PLLSOURCE_HSI_DIV2)
          {
            /* HSE used as PLL clock source : PLLCLK = HSE/PREDIV1 * PLLMUL */
            pllclk = (uint32_t)((HSE_VALUE / prediv1) * pllmul);
 80025b8:	4b24      	ldr	r3, [pc, #144]	@ (800264c <HAL_RCCEx_GetPeriphCLKFreq+0xcc>)
 80025ba:	fbb3 f3f2 	udiv	r3, r3, r2
 80025be:	fb03 f000 	mul.w	r0, r3, r0
          /* Prescaler of 3 selected for USB */
          frequency = (2 * pllclk) / 3;
        }
#else
        /* USBCLK = PLLCLK / USB prescaler */
        if (__HAL_RCC_GET_USB_SOURCE() == RCC_USBCLKSOURCE_PLL)
 80025c2:	4b1f      	ldr	r3, [pc, #124]	@ (8002640 <HAL_RCCEx_GetPeriphCLKFreq+0xc0>)
 80025c4:	685b      	ldr	r3, [r3, #4]
 80025c6:	f413 0f80 	tst.w	r3, #4194304	@ 0x400000
 80025ca:	d135      	bne.n	8002638 <HAL_RCCEx_GetPeriphCLKFreq+0xb8>
          frequency = pllclk;
        }
        else
        {
          /* Prescaler of 1.5 selected for USB */
          frequency = (pllclk * 2) / 3;
 80025cc:	0040      	lsls	r0, r0, #1
 80025ce:	4b20      	ldr	r3, [pc, #128]	@ (8002650 <HAL_RCCEx_GetPeriphCLKFreq+0xd0>)
 80025d0:	fba3 3000 	umull	r3, r0, r3, r0
 80025d4:	0840      	lsrs	r0, r0, #1
 80025d6:	e02f      	b.n	8002638 <HAL_RCCEx_GetPeriphCLKFreq+0xb8>
          pllclk = (uint32_t)((HSI_VALUE >> 1) * pllmul);
 80025d8:	4b1e      	ldr	r3, [pc, #120]	@ (8002654 <HAL_RCCEx_GetPeriphCLKFreq+0xd4>)
 80025da:	fb03 f000 	mul.w	r0, r3, r0
 80025de:	e7f0      	b.n	80025c2 <HAL_RCCEx_GetPeriphCLKFreq+0x42>
    }
#endif /* STM32F103xE || STM32F103xG || STM32F105xC || STM32F107xC */
    case RCC_PERIPHCLK_RTC:
    {
      /* Get RCC BDCR configuration ------------------------------------------------------*/
      temp_reg = RCC->BDCR;
 80025e0:	4b17      	ldr	r3, [pc, #92]	@ (8002640 <HAL_RCCEx_GetPeriphCLKFreq+0xc0>)
 80025e2:	6a1b      	ldr	r3, [r3, #32]

      /* Check if LSE is ready if RTC clock selection is LSE */
      if (((temp_reg & RCC_BDCR_RTCSEL) == RCC_RTCCLKSOURCE_LSE) && (HAL_IS_BIT_SET(temp_reg, RCC_BDCR_LSERDY)))
 80025e4:	f240 3202 	movw	r2, #770	@ 0x302
 80025e8:	401a      	ands	r2, r3
 80025ea:	f5b2 7f81 	cmp.w	r2, #258	@ 0x102
 80025ee:	d024      	beq.n	800263a <HAL_RCCEx_GetPeriphCLKFreq+0xba>
      {
        frequency = LSE_VALUE;
      }
      /* Check if LSI is ready if RTC clock selection is LSI */
      else if (((temp_reg & RCC_BDCR_RTCSEL) == RCC_RTCCLKSOURCE_LSI) && (HAL_IS_BIT_SET(RCC->CSR, RCC_CSR_LSIRDY)))
 80025f0:	f403 7340 	and.w	r3, r3, #768	@ 0x300
 80025f4:	f5b3 7f00 	cmp.w	r3, #512	@ 0x200
 80025f8:	d004      	beq.n	8002604 <HAL_RCCEx_GetPeriphCLKFreq+0x84>
      {
        frequency = LSI_VALUE;
      }
      else if (((temp_reg & RCC_BDCR_RTCSEL) == RCC_RTCCLKSOURCE_HSE_DIV128) && (HAL_IS_BIT_SET(RCC->CR, RCC_CR_HSERDY)))
 80025fa:	f5b3 7f40 	cmp.w	r3, #768	@ 0x300
 80025fe:	d009      	beq.n	8002614 <HAL_RCCEx_GetPeriphCLKFreq+0x94>
  uint32_t temp_reg = 0U, frequency = 0U;
 8002600:	2000      	movs	r0, #0
 8002602:	e019      	b.n	8002638 <HAL_RCCEx_GetPeriphCLKFreq+0xb8>
      else if (((temp_reg & RCC_BDCR_RTCSEL) == RCC_RTCCLKSOURCE_LSI) && (HAL_IS_BIT_SET(RCC->CSR, RCC_CSR_LSIRDY)))
 8002604:	4a0e      	ldr	r2, [pc, #56]	@ (8002640 <HAL_RCCEx_GetPeriphCLKFreq+0xc0>)
 8002606:	6a52      	ldr	r2, [r2, #36]	@ 0x24
 8002608:	f012 0f02 	tst.w	r2, #2
 800260c:	d0f5      	beq.n	80025fa <HAL_RCCEx_GetPeriphCLKFreq+0x7a>
        frequency = LSI_VALUE;
 800260e:	f649 4040 	movw	r0, #40000	@ 0x9c40
 8002612:	e011      	b.n	8002638 <HAL_RCCEx_GetPeriphCLKFreq+0xb8>
      else if (((temp_reg & RCC_BDCR_RTCSEL) == RCC_RTCCLKSOURCE_HSE_DIV128) && (HAL_IS_BIT_SET(RCC->CR, RCC_CR_HSERDY)))
 8002614:	4b0a      	ldr	r3, [pc, #40]	@ (8002640 <HAL_RCCEx_GetPeriphCLKFreq+0xc0>)
 8002616:	6818      	ldr	r0, [r3, #0]
 8002618:	f410 3000 	ands.w	r0, r0, #131072	@ 0x20000
 800261c:	d00c      	beq.n	8002638 <HAL_RCCEx_GetPeriphCLKFreq+0xb8>
      {
        frequency = HSE_VALUE / 128U;
 800261e:	f24f 4024 	movw	r0, #62500	@ 0xf424
    default:
    {
      break;
    }
  }
  return (frequency);
 8002622:	e009      	b.n	8002638 <HAL_RCCEx_GetPeriphCLKFreq+0xb8>
      frequency = HAL_RCC_GetPCLK2Freq() / (((__HAL_RCC_GET_ADC_SOURCE() >> RCC_CFGR_ADCPRE_Pos) + 1) * 2);
 8002624:	f7ff ff10 	bl	8002448 <HAL_RCC_GetPCLK2Freq>
 8002628:	4b05      	ldr	r3, [pc, #20]	@ (8002640 <HAL_RCCEx_GetPeriphCLKFreq+0xc0>)
 800262a:	685b      	ldr	r3, [r3, #4]
 800262c:	f3c3 3381 	ubfx	r3, r3, #14, #2
 8002630:	3301      	adds	r3, #1
 8002632:	005b      	lsls	r3, r3, #1
 8002634:	fbb0 f0f3 	udiv	r0, r0, r3
}
 8002638:	bd08      	pop	{r3, pc}
        frequency = LSE_VALUE;
 800263a:	f44f 4000 	mov.w	r0, #32768	@ 0x8000
 800263e:	e7fb      	b.n	8002638 <HAL_RCCEx_GetPeriphCLKFreq+0xb8>
 8002640:	40021000 	.word	0x40021000
 8002644:	08003988 	.word	0x08003988
 8002648:	08003984 	.word	0x08003984
 800264c:	007a1200 	.word	0x007a1200
 8002650:	aaaaaaab 	.word	0xaaaaaaab
 8002654:	003d0900 	.word	0x003d0900

08002658 <RTC_ReadTimeCounter>:
  * @param  hrtc   pointer to a RTC_HandleTypeDef structure that contains
  *                the configuration information for RTC.
  * @retval Time counter
  */
static uint32_t RTC_ReadTimeCounter(RTC_HandleTypeDef *hrtc)
{
 8002658:	b500      	push	{lr}
  uint16_t high1 = 0U, high2 = 0U, low = 0U;
  uint32_t timecounter = 0U;

  high1 = READ_REG(hrtc->Instance->CNTH & RTC_CNTH_RTC_CNT);
 800265a:	6803      	ldr	r3, [r0, #0]
 800265c:	6999      	ldr	r1, [r3, #24]
 800265e:	fa1f fe81 	uxth.w	lr, r1
  low   = READ_REG(hrtc->Instance->CNTL & RTC_CNTL_RTC_CNT);
 8002662:	69d8      	ldr	r0, [r3, #28]
  high2 = READ_REG(hrtc->Instance->CNTH & RTC_CNTH_RTC_CNT);
 8002664:	699a      	ldr	r2, [r3, #24]
 8002666:	fa1f fc82 	uxth.w	ip, r2

  if (high1 != high2)
 800266a:	45e6      	cmp	lr, ip
 800266c:	d005      	beq.n	800267a <RTC_ReadTimeCounter+0x22>
  {
    /* In this case the counter roll over during reading of CNTL and CNTH registers,
       read again CNTL register then return the counter value */
    timecounter = (((uint32_t) high2 << 16U) | READ_REG(hrtc->Instance->CNTL & RTC_CNTL_RTC_CNT));
 800266e:	69d8      	ldr	r0, [r3, #28]
 8002670:	b280      	uxth	r0, r0
 8002672:	ea40 4002 	orr.w	r0, r0, r2, lsl #16
       value is equal to first value of CNTL and CNTH */
    timecounter = (((uint32_t) high1 << 16U) | low);
  }

  return timecounter;
}
 8002676:	f85d fb04 	ldr.w	pc, [sp], #4
    timecounter = (((uint32_t) high1 << 16U) | low);
 800267a:	b280      	uxth	r0, r0
 800267c:	ea40 4001 	orr.w	r0, r0, r1, lsl #16
  return timecounter;
 8002680:	e7f9      	b.n	8002676 <RTC_ReadTimeCounter+0x1e>

08002682 <RTC_ReadAlarmCounter>:
  */
static uint32_t RTC_ReadAlarmCounter(RTC_HandleTypeDef *hrtc)
{
  uint16_t high1 = 0U, low = 0U;

  high1 = READ_REG(hrtc->Instance->ALRH & RTC_CNTH_RTC_CNT);
 8002682:	6803      	ldr	r3, [r0, #0]
 8002684:	6a18      	ldr	r0, [r3, #32]
  low   = READ_REG(hrtc->Instance->ALRL & RTC_CNTL_RTC_CNT);
 8002686:	6a5b      	ldr	r3, [r3, #36]	@ 0x24

  return (((uint32_t) high1 << 16U) | low);
 8002688:	b29b      	uxth	r3, r3
}
 800268a:	ea43 4000 	orr.w	r0, r3, r0, lsl #16
 800268e:	4770      	bx	lr

08002690 <RTC_Bcd2ToByte>:
  * @retval Converted word
  */
static uint8_t RTC_Bcd2ToByte(uint8_t Value)
{
  uint32_t tmp = 0U;
  tmp = ((uint8_t)(Value & (uint8_t)0xF0) >> (uint8_t)0x4) * 10U;
 8002690:	0903      	lsrs	r3, r0, #4
 8002692:	eb03 0383 	add.w	r3, r3, r3, lsl #2
  return (tmp + (Value & (uint8_t)0x0F));
 8002696:	f000 000f 	and.w	r0, r0, #15
 800269a:	eb00 0043 	add.w	r0, r0, r3, lsl #1
}
 800269e:	b2c0      	uxtb	r0, r0
 80026a0:	4770      	bx	lr
	...

080026a4 <RTC_WeekDayNum>:
  */
static uint8_t RTC_WeekDayNum(uint32_t nYear, uint8_t nMonth, uint8_t nDay)
{
  uint32_t year = 0U, weekday = 0U;

  year = 2000U + nYear;
 80026a4:	f500 6cfa 	add.w	ip, r0, #2000	@ 0x7d0

  if (nMonth < 3U)
 80026a8:	2902      	cmp	r1, #2
 80026aa:	d821      	bhi.n	80026f0 <RTC_WeekDayNum+0x4c>
  {
    /*D = { [(23 x month)/9] + day + 4 + year + [(year-1)/4] - [(year-1)/100] + [(year-1)/400] } mod 7*/
    weekday = (((23U * nMonth) / 9U) + nDay + 4U + year + ((year - 1U) / 4U) - ((year - 1U) / 100U) + ((year - 1U) / 400U)) % 7U;
 80026ac:	eb01 0341 	add.w	r3, r1, r1, lsl #1
 80026b0:	ebc1 01c3 	rsb	r1, r1, r3, lsl #3
 80026b4:	4b1e      	ldr	r3, [pc, #120]	@ (8002730 <RTC_WeekDayNum+0x8c>)
 80026b6:	fba3 3101 	umull	r3, r1, r3, r1
 80026ba:	eb02 0351 	add.w	r3, r2, r1, lsr #1
 80026be:	4463      	add	r3, ip
 80026c0:	f200 70cf 	addw	r0, r0, #1999	@ 0x7cf
 80026c4:	eb03 0390 	add.w	r3, r3, r0, lsr #2
 80026c8:	4a1a      	ldr	r2, [pc, #104]	@ (8002734 <RTC_WeekDayNum+0x90>)
 80026ca:	fba2 2000 	umull	r2, r0, r2, r0
 80026ce:	eba3 1350 	sub.w	r3, r3, r0, lsr #5
 80026d2:	eb03 13d0 	add.w	r3, r3, r0, lsr #7
 80026d6:	3304      	adds	r3, #4
 80026d8:	4817      	ldr	r0, [pc, #92]	@ (8002738 <RTC_WeekDayNum+0x94>)
 80026da:	fba0 2003 	umull	r2, r0, r0, r3
 80026de:	1a1a      	subs	r2, r3, r0
 80026e0:	eb00 0052 	add.w	r0, r0, r2, lsr #1
 80026e4:	0880      	lsrs	r0, r0, #2
 80026e6:	ebc0 00c0 	rsb	r0, r0, r0, lsl #3
 80026ea:	1a18      	subs	r0, r3, r0
    /*D = { [(23 x month)/9] + day + 4 + year + [year/4] - [year/100] + [year/400] - 2 } mod 7*/
    weekday = (((23U * nMonth) / 9U) + nDay + 4U + year + (year / 4U) - (year / 100U) + (year / 400U) - 2U) % 7U;
  }

  return (uint8_t)weekday;
}
 80026ec:	b2c0      	uxtb	r0, r0
 80026ee:	4770      	bx	lr
    weekday = (((23U * nMonth) / 9U) + nDay + 4U + year + (year / 4U) - (year / 100U) + (year / 400U) - 2U) % 7U;
 80026f0:	eb01 0341 	add.w	r3, r1, r1, lsl #1
 80026f4:	ebc1 01c3 	rsb	r1, r1, r3, lsl #3
 80026f8:	4b0d      	ldr	r3, [pc, #52]	@ (8002730 <RTC_WeekDayNum+0x8c>)
 80026fa:	fba3 3101 	umull	r3, r1, r3, r1
 80026fe:	eb02 0351 	add.w	r3, r2, r1, lsr #1
 8002702:	4463      	add	r3, ip
 8002704:	eb03 039c 	add.w	r3, r3, ip, lsr #2
 8002708:	4a0a      	ldr	r2, [pc, #40]	@ (8002734 <RTC_WeekDayNum+0x90>)
 800270a:	fba2 120c 	umull	r1, r2, r2, ip
 800270e:	eba3 1352 	sub.w	r3, r3, r2, lsr #5
 8002712:	eb03 13d2 	add.w	r3, r3, r2, lsr #7
 8002716:	3302      	adds	r3, #2
 8002718:	4807      	ldr	r0, [pc, #28]	@ (8002738 <RTC_WeekDayNum+0x94>)
 800271a:	fba0 2003 	umull	r2, r0, r0, r3
 800271e:	1a1a      	subs	r2, r3, r0
 8002720:	eb00 0052 	add.w	r0, r0, r2, lsr #1
 8002724:	0880      	lsrs	r0, r0, #2
 8002726:	ebc0 00c0 	rsb	r0, r0, r0, lsl #3
 800272a:	1a18      	subs	r0, r3, r0
 800272c:	e7de      	b.n	80026ec <RTC_WeekDayNum+0x48>
 800272e:	bf00      	nop
 8002730:	38e38e39 	.word	0x38e38e39
 8002734:	51eb851f 	.word	0x51eb851f
 8002738:	24924925 	.word	0x24924925

0800273c <RTC_EnterInitMode>:
{
 800273c:	b538      	push	{r3, r4, r5, lr}
 800273e:	4604      	mov	r4, r0
  tickstart = HAL_GetTick();
 8002740:	f7fe fe20 	bl	8001384 <HAL_GetTick>
 8002744:	4605      	mov	r5, r0
  while ((hrtc->Instance->CRL & RTC_CRL_RTOFF) == (uint32_t)RESET)
 8002746:	6823      	ldr	r3, [r4, #0]
 8002748:	685a      	ldr	r2, [r3, #4]
 800274a:	f012 0f20 	tst.w	r2, #32
 800274e:	d107      	bne.n	8002760 <RTC_EnterInitMode+0x24>
    if ((HAL_GetTick() - tickstart) >  RTC_TIMEOUT_VALUE)
 8002750:	f7fe fe18 	bl	8001384 <HAL_GetTick>
 8002754:	1b40      	subs	r0, r0, r5
 8002756:	f5b0 7f7a 	cmp.w	r0, #1000	@ 0x3e8
 800275a:	d9f4      	bls.n	8002746 <RTC_EnterInitMode+0xa>
      return HAL_TIMEOUT;
 800275c:	2003      	movs	r0, #3
 800275e:	e004      	b.n	800276a <RTC_EnterInitMode+0x2e>
  __HAL_RTC_WRITEPROTECTION_DISABLE(hrtc);
 8002760:	685a      	ldr	r2, [r3, #4]
 8002762:	f042 0210 	orr.w	r2, r2, #16
 8002766:	605a      	str	r2, [r3, #4]
  return HAL_OK;
 8002768:	2000      	movs	r0, #0
}
 800276a:	bd38      	pop	{r3, r4, r5, pc}

0800276c <RTC_ExitInitMode>:
{
 800276c:	b538      	push	{r3, r4, r5, lr}
 800276e:	4604      	mov	r4, r0
  __HAL_RTC_WRITEPROTECTION_ENABLE(hrtc);
 8002770:	6802      	ldr	r2, [r0, #0]
 8002772:	6853      	ldr	r3, [r2, #4]
 8002774:	f023 0310 	bic.w	r3, r3, #16
 8002778:	6053      	str	r3, [r2, #4]
  tickstart = HAL_GetTick();
 800277a:	f7fe fe03 	bl	8001384 <HAL_GetTick>
 800277e:	4605      	mov	r5, r0
  while ((hrtc->Instance->CRL & RTC_CRL_RTOFF) == (uint32_t)RESET)
 8002780:	6823      	ldr	r3, [r4, #0]
 8002782:	685b      	ldr	r3, [r3, #4]
 8002784:	f013 0f20 	tst.w	r3, #32
 8002788:	d107      	bne.n	800279a <RTC_ExitInitMode+0x2e>
    if ((HAL_GetTick() - tickstart) >  RTC_TIMEOUT_VALUE)
 800278a:	f7fe fdfb 	bl	8001384 <HAL_GetTick>
 800278e:	1b40      	subs	r0, r0, r5
 8002790:	f5b0 7f7a 	cmp.w	r0, #1000	@ 0x3e8
 8002794:	d9f4      	bls.n	8002780 <RTC_ExitInitMode+0x14>
      return HAL_TIMEOUT;
 8002796:	2003      	movs	r0, #3
 8002798:	e000      	b.n	800279c <RTC_ExitInitMode+0x30>
  return HAL_OK;
 800279a:	2000      	movs	r0, #0
}
 800279c:	bd38      	pop	{r3, r4, r5, pc}

0800279e <RTC_WriteTimeCounter>:
{
 800279e:	b538      	push	{r3, r4, r5, lr}
 80027a0:	4605      	mov	r5, r0
 80027a2:	460c      	mov	r4, r1
  if (RTC_EnterInitMode(hrtc) != HAL_OK)
 80027a4:	f7ff ffca 	bl	800273c <RTC_EnterInitMode>
 80027a8:	b108      	cbz	r0, 80027ae <RTC_WriteTimeCounter+0x10>
    status = HAL_ERROR;
 80027aa:	2001      	movs	r0, #1
}
 80027ac:	bd38      	pop	{r3, r4, r5, pc}
    WRITE_REG(hrtc->Instance->CNTH, (TimeCounter >> 16U));
 80027ae:	682b      	ldr	r3, [r5, #0]
 80027b0:	0c22      	lsrs	r2, r4, #16
 80027b2:	619a      	str	r2, [r3, #24]
    WRITE_REG(hrtc->Instance->CNTL, (TimeCounter & RTC_CNTL_RTC_CNT));
 80027b4:	682b      	ldr	r3, [r5, #0]
 80027b6:	b2a4      	uxth	r4, r4
 80027b8:	61dc      	str	r4, [r3, #28]
    if (RTC_ExitInitMode(hrtc) != HAL_OK)
 80027ba:	4628      	mov	r0, r5
 80027bc:	f7ff ffd6 	bl	800276c <RTC_ExitInitMode>
 80027c0:	2800      	cmp	r0, #0
 80027c2:	d0f3      	beq.n	80027ac <RTC_WriteTimeCounter+0xe>
      status = HAL_ERROR;
 80027c4:	2001      	movs	r0, #1
 80027c6:	e7f1      	b.n	80027ac <RTC_WriteTimeCounter+0xe>

080027c8 <RTC_WriteAlarmCounter>:
{
 80027c8:	b538      	push	{r3, r4, r5, lr}
 80027ca:	4605      	mov	r5, r0
 80027cc:	460c      	mov	r4, r1
  if (RTC_EnterInitMode(hrtc) != HAL_OK)
 80027ce:	f7ff ffb5 	bl	800273c <RTC_EnterInitMode>
 80027d2:	b108      	cbz	r0, 80027d8 <RTC_WriteAlarmCounter+0x10>
    status = HAL_ERROR;
 80027d4:	2001      	movs	r0, #1
}
 80027d6:	bd38      	pop	{r3, r4, r5, pc}
    WRITE_REG(hrtc->Instance->ALRH, (AlarmCounter >> 16U));
 80027d8:	682b      	ldr	r3, [r5, #0]
 80027da:	0c22      	lsrs	r2, r4, #16
 80027dc:	621a      	str	r2, [r3, #32]
    WRITE_REG(hrtc->Instance->ALRL, (AlarmCounter & RTC_ALRL_RTC_ALR));
 80027de:	682b      	ldr	r3, [r5, #0]
 80027e0:	b2a4      	uxth	r4, r4
 80027e2:	625c      	str	r4, [r3, #36]	@ 0x24
    if (RTC_ExitInitMode(hrtc) != HAL_OK)
 80027e4:	4628      	mov	r0, r5
 80027e6:	f7ff ffc1 	bl	800276c <RTC_ExitInitMode>
 80027ea:	2800      	cmp	r0, #0
 80027ec:	d0f3      	beq.n	80027d6 <RTC_WriteAlarmCounter+0xe>
      status = HAL_ERROR;
 80027ee:	2001      	movs	r0, #1
 80027f0:	e7f1      	b.n	80027d6 <RTC_WriteAlarmCounter+0xe>

080027f2 <HAL_RTC_SetTime>:
{
 80027f2:	b570      	push	{r4, r5, r6, lr}
  if ((hrtc == NULL) || (sTime == NULL))
 80027f4:	2800      	cmp	r0, #0
 80027f6:	d057      	beq.n	80028a8 <HAL_RTC_SetTime+0xb6>
 80027f8:	460d      	mov	r5, r1
 80027fa:	4606      	mov	r6, r0
 80027fc:	2900      	cmp	r1, #0
 80027fe:	d055      	beq.n	80028ac <HAL_RTC_SetTime+0xba>
  __HAL_LOCK(hrtc);
 8002800:	7c03      	ldrb	r3, [r0, #16]
 8002802:	2b01      	cmp	r3, #1
 8002804:	d054      	beq.n	80028b0 <HAL_RTC_SetTime+0xbe>
 8002806:	2301      	movs	r3, #1
 8002808:	7403      	strb	r3, [r0, #16]
  hrtc->State = HAL_RTC_STATE_BUSY;
 800280a:	2302      	movs	r3, #2
 800280c:	7443      	strb	r3, [r0, #17]
  if (Format == RTC_FORMAT_BIN)
 800280e:	b9ba      	cbnz	r2, 8002840 <HAL_RTC_SetTime+0x4e>
    counter_time = (uint32_t)(((uint32_t)sTime->Hours * 3600U) + \
 8002810:	780b      	ldrb	r3, [r1, #0]
                              ((uint32_t)sTime->Minutes * 60U) + \
 8002812:	784c      	ldrb	r4, [r1, #1]
 8002814:	ebc4 1404 	rsb	r4, r4, r4, lsl #4
 8002818:	00a4      	lsls	r4, r4, #2
    counter_time = (uint32_t)(((uint32_t)sTime->Hours * 3600U) + \
 800281a:	f44f 6261 	mov.w	r2, #3600	@ 0xe10
 800281e:	fb02 4403 	mla	r4, r2, r3, r4
                              ((uint32_t)sTime->Seconds));
 8002822:	788b      	ldrb	r3, [r1, #2]
    counter_time = (uint32_t)(((uint32_t)sTime->Hours * 3600U) + \
 8002824:	441c      	add	r4, r3
  if (RTC_WriteTimeCounter(hrtc, counter_time) != HAL_OK)
 8002826:	4621      	mov	r1, r4
 8002828:	4630      	mov	r0, r6
 800282a:	f7ff ffb8 	bl	800279e <RTC_WriteTimeCounter>
 800282e:	4605      	mov	r5, r0
 8002830:	b1c8      	cbz	r0, 8002866 <HAL_RTC_SetTime+0x74>
    hrtc->State = HAL_RTC_STATE_ERROR;
 8002832:	2304      	movs	r3, #4
 8002834:	7473      	strb	r3, [r6, #17]
    __HAL_UNLOCK(hrtc);
 8002836:	2300      	movs	r3, #0
 8002838:	7433      	strb	r3, [r6, #16]
    return HAL_ERROR;
 800283a:	2501      	movs	r5, #1
}
 800283c:	4628      	mov	r0, r5
 800283e:	bd70      	pop	{r4, r5, r6, pc}
    counter_time = (((uint32_t)(RTC_Bcd2ToByte(sTime->Hours)) * 3600U) + \
 8002840:	7808      	ldrb	r0, [r1, #0]
 8002842:	f7ff ff25 	bl	8002690 <RTC_Bcd2ToByte>
 8002846:	f44f 6361 	mov.w	r3, #3600	@ 0xe10
 800284a:	fb03 f400 	mul.w	r4, r3, r0
                    ((uint32_t)(RTC_Bcd2ToByte(sTime->Minutes)) * 60U) + \
 800284e:	7868      	ldrb	r0, [r5, #1]
 8002850:	f7ff ff1e 	bl	8002690 <RTC_Bcd2ToByte>
 8002854:	ebc0 1000 	rsb	r0, r0, r0, lsl #4
    counter_time = (((uint32_t)(RTC_Bcd2ToByte(sTime->Hours)) * 3600U) + \
 8002858:	eb04 0480 	add.w	r4, r4, r0, lsl #2
                    ((uint32_t)(RTC_Bcd2ToByte(sTime->Seconds))));
 800285c:	78a8      	ldrb	r0, [r5, #2]
 800285e:	f7ff ff17 	bl	8002690 <RTC_Bcd2ToByte>
    counter_time = (((uint32_t)(RTC_Bcd2ToByte(sTime->Hours)) * 3600U) + \
 8002862:	4404      	add	r4, r0
 8002864:	e7df      	b.n	8002826 <HAL_RTC_SetTime+0x34>
    CLEAR_BIT(hrtc->Instance->CRL, (RTC_FLAG_SEC | RTC_FLAG_OW));
 8002866:	6832      	ldr	r2, [r6, #0]
 8002868:	6853      	ldr	r3, [r2, #4]
 800286a:	f023 0305 	bic.w	r3, r3, #5
 800286e:	6053      	str	r3, [r2, #4]
    counter_alarm = RTC_ReadAlarmCounter(hrtc);
 8002870:	4630      	mov	r0, r6
 8002872:	f7ff ff06 	bl	8002682 <RTC_ReadAlarmCounter>
    if (counter_alarm != RTC_ALARM_RESETVALUE)
 8002876:	f1b0 3fff 	cmp.w	r0, #4294967295
 800287a:	d001      	beq.n	8002880 <HAL_RTC_SetTime+0x8e>
      if (counter_alarm < counter_time)
 800287c:	4284      	cmp	r4, r0
 800287e:	d804      	bhi.n	800288a <HAL_RTC_SetTime+0x98>
    hrtc->State = HAL_RTC_STATE_READY;
 8002880:	2301      	movs	r3, #1
 8002882:	7473      	strb	r3, [r6, #17]
    __HAL_UNLOCK(hrtc);
 8002884:	2300      	movs	r3, #0
 8002886:	7433      	strb	r3, [r6, #16]
    return HAL_OK;
 8002888:	e7d8      	b.n	800283c <HAL_RTC_SetTime+0x4a>
        if (RTC_WriteAlarmCounter(hrtc, counter_alarm) != HAL_OK)
 800288a:	f500 31a8 	add.w	r1, r0, #86016	@ 0x15000
 800288e:	f501 71c0 	add.w	r1, r1, #384	@ 0x180
 8002892:	4630      	mov	r0, r6
 8002894:	f7ff ff98 	bl	80027c8 <RTC_WriteAlarmCounter>
 8002898:	2800      	cmp	r0, #0
 800289a:	d0f1      	beq.n	8002880 <HAL_RTC_SetTime+0x8e>
          hrtc->State = HAL_RTC_STATE_ERROR;
 800289c:	2304      	movs	r3, #4
 800289e:	7473      	strb	r3, [r6, #17]
          __HAL_UNLOCK(hrtc);
 80028a0:	2300      	movs	r3, #0
 80028a2:	7433      	strb	r3, [r6, #16]
          return HAL_ERROR;
 80028a4:	2501      	movs	r5, #1
 80028a6:	e7c9      	b.n	800283c <HAL_RTC_SetTime+0x4a>
    return HAL_ERROR;
 80028a8:	2501      	movs	r5, #1
 80028aa:	e7c7      	b.n	800283c <HAL_RTC_SetTime+0x4a>
 80028ac:	2501      	movs	r5, #1
 80028ae:	e7c5      	b.n	800283c <HAL_RTC_SetTime+0x4a>
  __HAL_LOCK(hrtc);
 80028b0:	2502      	movs	r5, #2
 80028b2:	e7c3      	b.n	800283c <HAL_RTC_SetTime+0x4a>

080028b4 <HAL_RTC_SetDate>:
  if ((hrtc == NULL) || (sDate == NULL))
 80028b4:	2800      	cmp	r0, #0
 80028b6:	d05a      	beq.n	800296e <HAL_RTC_SetDate+0xba>
{
 80028b8:	b538      	push	{r3, r4, r5, lr}
 80028ba:	460d      	mov	r5, r1
 80028bc:	4604      	mov	r4, r0
  if ((hrtc == NULL) || (sDate == NULL))
 80028be:	2900      	cmp	r1, #0
 80028c0:	d057      	beq.n	8002972 <HAL_RTC_SetDate+0xbe>
  __HAL_LOCK(hrtc);
 80028c2:	7c03      	ldrb	r3, [r0, #16]
 80028c4:	2b01      	cmp	r3, #1
 80028c6:	d056      	beq.n	8002976 <HAL_RTC_SetDate+0xc2>
 80028c8:	2301      	movs	r3, #1
 80028ca:	7403      	strb	r3, [r0, #16]
  hrtc->State = HAL_RTC_STATE_BUSY;
 80028cc:	2302      	movs	r3, #2
 80028ce:	7443      	strb	r3, [r0, #17]
  if (Format == RTC_FORMAT_BIN)
 80028d0:	b9ba      	cbnz	r2, 8002902 <HAL_RTC_SetDate+0x4e>
    hrtc->DateToUpdate.Year  = sDate->Year;
 80028d2:	78cb      	ldrb	r3, [r1, #3]
 80028d4:	73c3      	strb	r3, [r0, #15]
    hrtc->DateToUpdate.Month = sDate->Month;
 80028d6:	784b      	ldrb	r3, [r1, #1]
 80028d8:	7343      	strb	r3, [r0, #13]
    hrtc->DateToUpdate.Date  = sDate->Date;
 80028da:	788b      	ldrb	r3, [r1, #2]
 80028dc:	7383      	strb	r3, [r0, #14]
  hrtc->DateToUpdate.WeekDay = RTC_WeekDayNum(hrtc->DateToUpdate.Year, hrtc->DateToUpdate.Month, hrtc->DateToUpdate.Date);
 80028de:	7ba2      	ldrb	r2, [r4, #14]
 80028e0:	7b61      	ldrb	r1, [r4, #13]
 80028e2:	7be0      	ldrb	r0, [r4, #15]
 80028e4:	f7ff fede 	bl	80026a4 <RTC_WeekDayNum>
 80028e8:	7320      	strb	r0, [r4, #12]
  sDate->WeekDay = hrtc->DateToUpdate.WeekDay;
 80028ea:	7028      	strb	r0, [r5, #0]
  counter_time = RTC_ReadTimeCounter(hrtc);
 80028ec:	4620      	mov	r0, r4
 80028ee:	f7ff feb3 	bl	8002658 <RTC_ReadTimeCounter>
  if (hours > 24U)
 80028f2:	4b22      	ldr	r3, [pc, #136]	@ (800297c <HAL_RTC_SetDate+0xc8>)
 80028f4:	4298      	cmp	r0, r3
 80028f6:	d811      	bhi.n	800291c <HAL_RTC_SetDate+0x68>
  hrtc->State = HAL_RTC_STATE_READY ;
 80028f8:	2301      	movs	r3, #1
 80028fa:	7463      	strb	r3, [r4, #17]
  __HAL_UNLOCK(hrtc);
 80028fc:	2000      	movs	r0, #0
 80028fe:	7420      	strb	r0, [r4, #16]
}
 8002900:	bd38      	pop	{r3, r4, r5, pc}
    hrtc->DateToUpdate.Year  = RTC_Bcd2ToByte(sDate->Year);
 8002902:	78c8      	ldrb	r0, [r1, #3]
 8002904:	f7ff fec4 	bl	8002690 <RTC_Bcd2ToByte>
 8002908:	73e0      	strb	r0, [r4, #15]
    hrtc->DateToUpdate.Month = RTC_Bcd2ToByte(sDate->Month);
 800290a:	7868      	ldrb	r0, [r5, #1]
 800290c:	f7ff fec0 	bl	8002690 <RTC_Bcd2ToByte>
 8002910:	7360      	strb	r0, [r4, #13]
    hrtc->DateToUpdate.Date  = RTC_Bcd2ToByte(sDate->Date);
 8002912:	78a8      	ldrb	r0, [r5, #2]
 8002914:	f7ff febc 	bl	8002690 <RTC_Bcd2ToByte>
 8002918:	73a0      	strb	r0, [r4, #14]
 800291a:	e7e0      	b.n	80028de <HAL_RTC_SetDate+0x2a>
    counter_time -= ((hours / 24U) * 24U * 3600U);
 800291c:	4d18      	ldr	r5, [pc, #96]	@ (8002980 <HAL_RTC_SetDate+0xcc>)
 800291e:	fba5 3500 	umull	r3, r5, r5, r0
 8002922:	0c2d      	lsrs	r5, r5, #16
 8002924:	4b17      	ldr	r3, [pc, #92]	@ (8002984 <HAL_RTC_SetDate+0xd0>)
 8002926:	fb03 0515 	mls	r5, r3, r5, r0
    if (RTC_WriteTimeCounter(hrtc, counter_time) != HAL_OK)
 800292a:	4629      	mov	r1, r5
 800292c:	4620      	mov	r0, r4
 800292e:	f7ff ff36 	bl	800279e <RTC_WriteTimeCounter>
 8002932:	b128      	cbz	r0, 8002940 <HAL_RTC_SetDate+0x8c>
      hrtc->State = HAL_RTC_STATE_ERROR;
 8002934:	2304      	movs	r3, #4
 8002936:	7463      	strb	r3, [r4, #17]
      __HAL_UNLOCK(hrtc);
 8002938:	2300      	movs	r3, #0
 800293a:	7423      	strb	r3, [r4, #16]
      return HAL_ERROR;
 800293c:	2001      	movs	r0, #1
 800293e:	e7df      	b.n	8002900 <HAL_RTC_SetDate+0x4c>
    counter_alarm = RTC_ReadAlarmCounter(hrtc);
 8002940:	4620      	mov	r0, r4
 8002942:	f7ff fe9e 	bl	8002682 <RTC_ReadAlarmCounter>
    if (counter_alarm != RTC_ALARM_RESETVALUE)
 8002946:	f1b0 3fff 	cmp.w	r0, #4294967295
 800294a:	d0d5      	beq.n	80028f8 <HAL_RTC_SetDate+0x44>
      if (counter_alarm < counter_time)
 800294c:	4285      	cmp	r5, r0
 800294e:	d9d3      	bls.n	80028f8 <HAL_RTC_SetDate+0x44>
        if (RTC_WriteAlarmCounter(hrtc, counter_alarm) != HAL_OK)
 8002950:	f500 31a8 	add.w	r1, r0, #86016	@ 0x15000
 8002954:	f501 71c0 	add.w	r1, r1, #384	@ 0x180
 8002958:	4620      	mov	r0, r4
 800295a:	f7ff ff35 	bl	80027c8 <RTC_WriteAlarmCounter>
 800295e:	2800      	cmp	r0, #0
 8002960:	d0ca      	beq.n	80028f8 <HAL_RTC_SetDate+0x44>
          hrtc->State = HAL_RTC_STATE_ERROR;
 8002962:	2304      	movs	r3, #4
 8002964:	7463      	strb	r3, [r4, #17]
          __HAL_UNLOCK(hrtc);
 8002966:	2300      	movs	r3, #0
 8002968:	7423      	strb	r3, [r4, #16]
          return HAL_ERROR;
 800296a:	2001      	movs	r0, #1
 800296c:	e7c8      	b.n	8002900 <HAL_RTC_SetDate+0x4c>
    return HAL_ERROR;
 800296e:	2001      	movs	r0, #1
}
 8002970:	4770      	bx	lr
    return HAL_ERROR;
 8002972:	2001      	movs	r0, #1
 8002974:	e7c4      	b.n	8002900 <HAL_RTC_SetDate+0x4c>
  __HAL_LOCK(hrtc);
 8002976:	2002      	movs	r0, #2
 8002978:	e7c2      	b.n	8002900 <HAL_RTC_SetDate+0x4c>
 800297a:	bf00      	nop
 800297c:	00015f8f 	.word	0x00015f8f
 8002980:	c22e4507 	.word	0xc22e4507
 8002984:	00015180 	.word	0x00015180

08002988 <HAL_RTC_WaitForSynchro>:
  if (hrtc == NULL)
 8002988:	b1c0      	cbz	r0, 80029bc <HAL_RTC_WaitForSynchro+0x34>
{
 800298a:	b538      	push	{r3, r4, r5, lr}
 800298c:	4605      	mov	r5, r0
  CLEAR_BIT(hrtc->Instance->CRL, RTC_FLAG_RSF);
 800298e:	6802      	ldr	r2, [r0, #0]
 8002990:	6853      	ldr	r3, [r2, #4]
 8002992:	f023 0308 	bic.w	r3, r3, #8
 8002996:	6053      	str	r3, [r2, #4]
  tickstart = HAL_GetTick();
 8002998:	f7fe fcf4 	bl	8001384 <HAL_GetTick>
 800299c:	4604      	mov	r4, r0
  while ((hrtc->Instance->CRL & RTC_FLAG_RSF) == (uint32_t)RESET)
 800299e:	682b      	ldr	r3, [r5, #0]
 80029a0:	685b      	ldr	r3, [r3, #4]
 80029a2:	f013 0f08 	tst.w	r3, #8
 80029a6:	d107      	bne.n	80029b8 <HAL_RTC_WaitForSynchro+0x30>
    if ((HAL_GetTick() - tickstart) >  RTC_TIMEOUT_VALUE)
 80029a8:	f7fe fcec 	bl	8001384 <HAL_GetTick>
 80029ac:	1b00      	subs	r0, r0, r4
 80029ae:	f5b0 7f7a 	cmp.w	r0, #1000	@ 0x3e8
 80029b2:	d9f4      	bls.n	800299e <HAL_RTC_WaitForSynchro+0x16>
      return HAL_TIMEOUT;
 80029b4:	2003      	movs	r0, #3
 80029b6:	e000      	b.n	80029ba <HAL_RTC_WaitForSynchro+0x32>
  return HAL_OK;
 80029b8:	2000      	movs	r0, #0
}
 80029ba:	bd38      	pop	{r3, r4, r5, pc}
    return HAL_ERROR;
 80029bc:	2001      	movs	r0, #1
}
 80029be:	4770      	bx	lr

080029c0 <HAL_RTC_Init>:
  if (hrtc == NULL)
 80029c0:	2800      	cmp	r0, #0
 80029c2:	d050      	beq.n	8002a66 <HAL_RTC_Init+0xa6>
{
 80029c4:	b510      	push	{r4, lr}
 80029c6:	4604      	mov	r4, r0
  if (hrtc->State == HAL_RTC_STATE_RESET)
 80029c8:	7c43      	ldrb	r3, [r0, #17]
 80029ca:	b14b      	cbz	r3, 80029e0 <HAL_RTC_Init+0x20>
  hrtc->State = HAL_RTC_STATE_BUSY;
 80029cc:	2302      	movs	r3, #2
 80029ce:	7463      	strb	r3, [r4, #17]
  if (HAL_RTC_WaitForSynchro(hrtc) != HAL_OK)
 80029d0:	4620      	mov	r0, r4
 80029d2:	f7ff ffd9 	bl	8002988 <HAL_RTC_WaitForSynchro>
 80029d6:	b138      	cbz	r0, 80029e8 <HAL_RTC_Init+0x28>
    hrtc->State = HAL_RTC_STATE_ERROR;
 80029d8:	2304      	movs	r3, #4
 80029da:	7463      	strb	r3, [r4, #17]
    return HAL_ERROR;
 80029dc:	2001      	movs	r0, #1
}
 80029de:	bd10      	pop	{r4, pc}
    hrtc->Lock = HAL_UNLOCKED;
 80029e0:	7403      	strb	r3, [r0, #16]
    HAL_RTC_MspInit(hrtc);
 80029e2:	f7fe f8fb 	bl	8000bdc <HAL_RTC_MspInit>
 80029e6:	e7f1      	b.n	80029cc <HAL_RTC_Init+0xc>
  if (RTC_EnterInitMode(hrtc) != HAL_OK)
 80029e8:	4620      	mov	r0, r4
 80029ea:	f7ff fea7 	bl	800273c <RTC_EnterInitMode>
 80029ee:	bb28      	cbnz	r0, 8002a3c <HAL_RTC_Init+0x7c>
    CLEAR_BIT(hrtc->Instance->CRL, (RTC_FLAG_OW | RTC_FLAG_ALRAF | RTC_FLAG_SEC));
 80029f0:	6822      	ldr	r2, [r4, #0]
 80029f2:	6853      	ldr	r3, [r2, #4]
 80029f4:	f023 0307 	bic.w	r3, r3, #7
 80029f8:	6053      	str	r3, [r2, #4]
    if (hrtc->Init.OutPut != RTC_OUTPUTSOURCE_NONE)
 80029fa:	68a3      	ldr	r3, [r4, #8]
 80029fc:	b123      	cbz	r3, 8002a08 <HAL_RTC_Init+0x48>
      CLEAR_BIT(BKP->CR, BKP_CR_TPE);
 80029fe:	4a1b      	ldr	r2, [pc, #108]	@ (8002a6c <HAL_RTC_Init+0xac>)
 8002a00:	6b13      	ldr	r3, [r2, #48]	@ 0x30
 8002a02:	f023 0301 	bic.w	r3, r3, #1
 8002a06:	6313      	str	r3, [r2, #48]	@ 0x30
    MODIFY_REG(BKP->RTCCR, (BKP_RTCCR_CCO | BKP_RTCCR_ASOE | BKP_RTCCR_ASOS), hrtc->Init.OutPut);
 8002a08:	4a18      	ldr	r2, [pc, #96]	@ (8002a6c <HAL_RTC_Init+0xac>)
 8002a0a:	6ad3      	ldr	r3, [r2, #44]	@ 0x2c
 8002a0c:	f423 7360 	bic.w	r3, r3, #896	@ 0x380
 8002a10:	68a1      	ldr	r1, [r4, #8]
 8002a12:	430b      	orrs	r3, r1
 8002a14:	62d3      	str	r3, [r2, #44]	@ 0x2c
    if (hrtc->Init.AsynchPrediv != RTC_AUTO_1_SECOND)
 8002a16:	6863      	ldr	r3, [r4, #4]
 8002a18:	f1b3 3fff 	cmp.w	r3, #4294967295
 8002a1c:	d012      	beq.n	8002a44 <HAL_RTC_Init+0x84>
    WRITE_REG(hrtc->Instance->PRLH, ((prescaler >> 16U) & RTC_PRLH_PRL));
 8002a1e:	6822      	ldr	r2, [r4, #0]
 8002a20:	f3c3 4103 	ubfx	r1, r3, #16, #4
 8002a24:	6091      	str	r1, [r2, #8]
    WRITE_REG(hrtc->Instance->PRLL, (prescaler & RTC_PRLL_PRL));
 8002a26:	6822      	ldr	r2, [r4, #0]
 8002a28:	b29b      	uxth	r3, r3
 8002a2a:	60d3      	str	r3, [r2, #12]
    if (RTC_ExitInitMode(hrtc) != HAL_OK)
 8002a2c:	4620      	mov	r0, r4
 8002a2e:	f7ff fe9d 	bl	800276c <RTC_ExitInitMode>
 8002a32:	b188      	cbz	r0, 8002a58 <HAL_RTC_Init+0x98>
      hrtc->State = HAL_RTC_STATE_ERROR;
 8002a34:	2304      	movs	r3, #4
 8002a36:	7463      	strb	r3, [r4, #17]
      return HAL_ERROR;
 8002a38:	2001      	movs	r0, #1
 8002a3a:	e7d0      	b.n	80029de <HAL_RTC_Init+0x1e>
    hrtc->State = HAL_RTC_STATE_ERROR;
 8002a3c:	2304      	movs	r3, #4
 8002a3e:	7463      	strb	r3, [r4, #17]
    return HAL_ERROR;
 8002a40:	2001      	movs	r0, #1
 8002a42:	e7cc      	b.n	80029de <HAL_RTC_Init+0x1e>
      prescaler = HAL_RCCEx_GetPeriphCLKFreq(RCC_PERIPHCLK_RTC);
 8002a44:	2001      	movs	r0, #1
 8002a46:	f7ff fd9b 	bl	8002580 <HAL_RCCEx_GetPeriphCLKFreq>
      if (prescaler == 0U)
 8002a4a:	b108      	cbz	r0, 8002a50 <HAL_RTC_Init+0x90>
        prescaler = prescaler - 1U;
 8002a4c:	1e43      	subs	r3, r0, #1
 8002a4e:	e7e6      	b.n	8002a1e <HAL_RTC_Init+0x5e>
        hrtc->State = HAL_RTC_STATE_ERROR;
 8002a50:	2304      	movs	r3, #4
 8002a52:	7463      	strb	r3, [r4, #17]
        return HAL_ERROR;
 8002a54:	2001      	movs	r0, #1
 8002a56:	e7c2      	b.n	80029de <HAL_RTC_Init+0x1e>
    hrtc->DateToUpdate.Year = 0x00U;
 8002a58:	2300      	movs	r3, #0
 8002a5a:	73e3      	strb	r3, [r4, #15]
    hrtc->DateToUpdate.Month = RTC_MONTH_JANUARY;
 8002a5c:	2301      	movs	r3, #1
 8002a5e:	7363      	strb	r3, [r4, #13]
    hrtc->DateToUpdate.Date = 0x01U;
 8002a60:	73a3      	strb	r3, [r4, #14]
    hrtc->State = HAL_RTC_STATE_READY;
 8002a62:	7463      	strb	r3, [r4, #17]
    return HAL_OK;
 8002a64:	e7bb      	b.n	80029de <HAL_RTC_Init+0x1e>
    return HAL_ERROR;
 8002a66:	2001      	movs	r0, #1
}
 8002a68:	4770      	bx	lr
 8002a6a:	bf00      	nop
 8002a6c:	40006c00 	.word	0x40006c00

08002a70 <SPI_WaitFlagStateUntilTimeout>:
  * @param  Tickstart tick start value
  * @retval HAL status
  */
static HAL_StatusTypeDef SPI_WaitFlagStateUntilTimeout(SPI_HandleTypeDef *hspi, uint32_t Flag, FlagStatus State,
                                                       uint32_t Timeout, uint32_t Tickstart)
{
 8002a70:	e92d 47f0 	stmdb	sp!, {r4, r5, r6, r7, r8, r9, sl, lr}
 8002a74:	b082      	sub	sp, #8
 8002a76:	4605      	mov	r5, r0
 8002a78:	4688      	mov	r8, r1
 8002a7a:	4617      	mov	r7, r2
 8002a7c:	461e      	mov	r6, r3
  __IO uint32_t count;
  uint32_t tmp_timeout;
  uint32_t tmp_tickstart;

  /* Adjust Timeout value  in case of end of transfer */
  tmp_timeout   = Timeout - (HAL_GetTick() - Tickstart);
 8002a7e:	f7fe fc81 	bl	8001384 <HAL_GetTick>
 8002a82:	9b0a      	ldr	r3, [sp, #40]	@ 0x28
 8002a84:	1a1b      	subs	r3, r3, r0
 8002a86:	eb03 0906 	add.w	r9, r3, r6
  tmp_tickstart = HAL_GetTick();
 8002a8a:	f7fe fc7b 	bl	8001384 <HAL_GetTick>
 8002a8e:	4682      	mov	sl, r0

  /* Calculate Timeout based on a software loop to avoid blocking issue if Systick is disabled */
  count = tmp_timeout * ((SystemCoreClock * 32U) >> 20U);
 8002a90:	4b28      	ldr	r3, [pc, #160]	@ (8002b34 <SPI_WaitFlagStateUntilTimeout+0xc4>)
 8002a92:	681b      	ldr	r3, [r3, #0]
 8002a94:	f3c3 33cb 	ubfx	r3, r3, #15, #12
 8002a98:	fb09 f303 	mul.w	r3, r9, r3
 8002a9c:	9301      	str	r3, [sp, #4]

  while ((__HAL_SPI_GET_FLAG(hspi, Flag) ? SET : RESET) != State)
 8002a9e:	682b      	ldr	r3, [r5, #0]
 8002aa0:	689c      	ldr	r4, [r3, #8]
 8002aa2:	ea38 0404 	bics.w	r4, r8, r4
 8002aa6:	bf0c      	ite	eq
 8002aa8:	2301      	moveq	r3, #1
 8002aaa:	2300      	movne	r3, #0
 8002aac:	42bb      	cmp	r3, r7
 8002aae:	d03d      	beq.n	8002b2c <SPI_WaitFlagStateUntilTimeout+0xbc>
  {
    if (Timeout != HAL_MAX_DELAY)
 8002ab0:	f1b6 3fff 	cmp.w	r6, #4294967295
 8002ab4:	d0f3      	beq.n	8002a9e <SPI_WaitFlagStateUntilTimeout+0x2e>
    {
      if (((HAL_GetTick() - tmp_tickstart) >= tmp_timeout) || (tmp_timeout == 0U))
 8002ab6:	f7fe fc65 	bl	8001384 <HAL_GetTick>
 8002aba:	eba0 000a 	sub.w	r0, r0, sl
 8002abe:	4548      	cmp	r0, r9
 8002ac0:	d207      	bcs.n	8002ad2 <SPI_WaitFlagStateUntilTimeout+0x62>
        __HAL_UNLOCK(hspi);

        return HAL_TIMEOUT;
      }
      /* If Systick is disabled or not incremented, deactivate timeout to go in disable loop procedure */
      if (count == 0U)
 8002ac2:	9a01      	ldr	r2, [sp, #4]
 8002ac4:	b102      	cbz	r2, 8002ac8 <SPI_WaitFlagStateUntilTimeout+0x58>
 8002ac6:	464a      	mov	r2, r9
      {
        tmp_timeout = 0U;
      }
      count--;
 8002ac8:	9b01      	ldr	r3, [sp, #4]
 8002aca:	3b01      	subs	r3, #1
 8002acc:	9301      	str	r3, [sp, #4]
 8002ace:	4691      	mov	r9, r2
 8002ad0:	e7e5      	b.n	8002a9e <SPI_WaitFlagStateUntilTimeout+0x2e>
        __HAL_SPI_DISABLE_IT(hspi, (SPI_IT_TXE | SPI_IT_RXNE | SPI_IT_ERR));
 8002ad2:	682a      	ldr	r2, [r5, #0]
 8002ad4:	6853      	ldr	r3, [r2, #4]
 8002ad6:	f023 03e0 	bic.w	r3, r3, #224	@ 0xe0
 8002ada:	6053      	str	r3, [r2, #4]
        if ((hspi->Init.Mode == SPI_MODE_MASTER) && ((hspi->Init.Direction == SPI_DIRECTION_1LINE)
 8002adc:	686b      	ldr	r3, [r5, #4]
 8002ade:	f5b3 7f82 	cmp.w	r3, #260	@ 0x104
 8002ae2:	d00b      	beq.n	8002afc <SPI_WaitFlagStateUntilTimeout+0x8c>
        if (hspi->Init.CRCCalculation == SPI_CRCCALCULATION_ENABLE)
 8002ae4:	6aab      	ldr	r3, [r5, #40]	@ 0x28
 8002ae6:	f5b3 5f00 	cmp.w	r3, #8192	@ 0x2000
 8002aea:	d014      	beq.n	8002b16 <SPI_WaitFlagStateUntilTimeout+0xa6>
        hspi->State = HAL_SPI_STATE_READY;
 8002aec:	2301      	movs	r3, #1
 8002aee:	f885 3051 	strb.w	r3, [r5, #81]	@ 0x51
        __HAL_UNLOCK(hspi);
 8002af2:	2300      	movs	r3, #0
 8002af4:	f885 3050 	strb.w	r3, [r5, #80]	@ 0x50
        return HAL_TIMEOUT;
 8002af8:	2003      	movs	r0, #3
 8002afa:	e018      	b.n	8002b2e <SPI_WaitFlagStateUntilTimeout+0xbe>
        if ((hspi->Init.Mode == SPI_MODE_MASTER) && ((hspi->Init.Direction == SPI_DIRECTION_1LINE)
 8002afc:	68ab      	ldr	r3, [r5, #8]
 8002afe:	f5b3 4f00 	cmp.w	r3, #32768	@ 0x8000
 8002b02:	d002      	beq.n	8002b0a <SPI_WaitFlagStateUntilTimeout+0x9a>
                                                     || (hspi->Init.Direction == SPI_DIRECTION_2LINES_RXONLY)))
 8002b04:	f5b3 6f80 	cmp.w	r3, #1024	@ 0x400
 8002b08:	d1ec      	bne.n	8002ae4 <SPI_WaitFlagStateUntilTimeout+0x74>
          __HAL_SPI_DISABLE(hspi);
 8002b0a:	682a      	ldr	r2, [r5, #0]
 8002b0c:	6813      	ldr	r3, [r2, #0]
 8002b0e:	f023 0340 	bic.w	r3, r3, #64	@ 0x40
 8002b12:	6013      	str	r3, [r2, #0]
 8002b14:	e7e6      	b.n	8002ae4 <SPI_WaitFlagStateUntilTimeout+0x74>
          SPI_RESET_CRC(hspi);
 8002b16:	682a      	ldr	r2, [r5, #0]
 8002b18:	6813      	ldr	r3, [r2, #0]
 8002b1a:	f423 5300 	bic.w	r3, r3, #8192	@ 0x2000
 8002b1e:	6013      	str	r3, [r2, #0]
 8002b20:	682a      	ldr	r2, [r5, #0]
 8002b22:	6813      	ldr	r3, [r2, #0]
 8002b24:	f443 5300 	orr.w	r3, r3, #8192	@ 0x2000
 8002b28:	6013      	str	r3, [r2, #0]
 8002b2a:	e7df      	b.n	8002aec <SPI_WaitFlagStateUntilTimeout+0x7c>
    }
  }

  return HAL_OK;
 8002b2c:	2000      	movs	r0, #0
}
 8002b2e:	b002      	add	sp, #8
 8002b30:	e8bd 87f0 	ldmia.w	sp!, {r4, r5, r6, r7, r8, r9, sl, pc}
 8002b34:	2000007c 	.word	0x2000007c

08002b38 <SPI_EndRxTxTransaction>:
  * @param  Timeout Timeout duration
  * @param  Tickstart tick start value
  * @retval HAL status
  */
static HAL_StatusTypeDef SPI_EndRxTxTransaction(SPI_HandleTypeDef *hspi, uint32_t Timeout, uint32_t Tickstart)
{
 8002b38:	b570      	push	{r4, r5, r6, lr}
 8002b3a:	b082      	sub	sp, #8
 8002b3c:	4606      	mov	r6, r0
 8002b3e:	460c      	mov	r4, r1
 8002b40:	4615      	mov	r5, r2
  /* Wait until TXE flag */
  if (SPI_WaitFlagStateUntilTimeout(hspi, SPI_FLAG_TXE, SET, Timeout, Tickstart) != HAL_OK)
 8002b42:	9200      	str	r2, [sp, #0]
 8002b44:	460b      	mov	r3, r1
 8002b46:	2201      	movs	r2, #1
 8002b48:	2102      	movs	r1, #2
 8002b4a:	f7ff ff91 	bl	8002a70 <SPI_WaitFlagStateUntilTimeout>
 8002b4e:	b948      	cbnz	r0, 8002b64 <SPI_EndRxTxTransaction+0x2c>
    SET_BIT(hspi->ErrorCode, HAL_SPI_ERROR_FLAG);
    return HAL_TIMEOUT;
  }

  /* Control the BSY flag */
  if (SPI_WaitFlagStateUntilTimeout(hspi, SPI_FLAG_BSY, RESET, Timeout, Tickstart) != HAL_OK)
 8002b50:	9500      	str	r5, [sp, #0]
 8002b52:	4623      	mov	r3, r4
 8002b54:	2200      	movs	r2, #0
 8002b56:	2180      	movs	r1, #128	@ 0x80
 8002b58:	4630      	mov	r0, r6
 8002b5a:	f7ff ff89 	bl	8002a70 <SPI_WaitFlagStateUntilTimeout>
 8002b5e:	b938      	cbnz	r0, 8002b70 <SPI_EndRxTxTransaction+0x38>
  {
    SET_BIT(hspi->ErrorCode, HAL_SPI_ERROR_FLAG);
    return HAL_TIMEOUT;
  }
  return HAL_OK;
}
 8002b60:	b002      	add	sp, #8
 8002b62:	bd70      	pop	{r4, r5, r6, pc}
    SET_BIT(hspi->ErrorCode, HAL_SPI_ERROR_FLAG);
 8002b64:	6d73      	ldr	r3, [r6, #84]	@ 0x54
 8002b66:	f043 0320 	orr.w	r3, r3, #32
 8002b6a:	6573      	str	r3, [r6, #84]	@ 0x54
    return HAL_TIMEOUT;
 8002b6c:	2003      	movs	r0, #3
 8002b6e:	e7f7      	b.n	8002b60 <SPI_EndRxTxTransaction+0x28>
    SET_BIT(hspi->ErrorCode, HAL_SPI_ERROR_FLAG);
 8002b70:	6d73      	ldr	r3, [r6, #84]	@ 0x54
 8002b72:	f043 0320 	orr.w	r3, r3, #32
 8002b76:	6573      	str	r3, [r6, #84]	@ 0x54
    return HAL_TIMEOUT;
 8002b78:	2003      	movs	r0, #3
 8002b7a:	e7f1      	b.n	8002b60 <SPI_EndRxTxTransaction+0x28>

08002b7c <HAL_SPI_Init>:
  if (hspi == NULL)
 8002b7c:	2800      	cmp	r0, #0
 8002b7e:	d056      	beq.n	8002c2e <HAL_SPI_Init+0xb2>
{
 8002b80:	b510      	push	{r4, lr}
 8002b82:	4604      	mov	r4, r0
  if (hspi->Init.TIMode == SPI_TIMODE_DISABLE)
 8002b84:	6a43      	ldr	r3, [r0, #36]	@ 0x24
 8002b86:	b933      	cbnz	r3, 8002b96 <HAL_SPI_Init+0x1a>
    if (hspi->Init.Mode == SPI_MODE_MASTER)
 8002b88:	6843      	ldr	r3, [r0, #4]
 8002b8a:	f5b3 7f82 	cmp.w	r3, #260	@ 0x104
 8002b8e:	d005      	beq.n	8002b9c <HAL_SPI_Init+0x20>
      hspi->Init.BaudRatePrescaler = SPI_BAUDRATEPRESCALER_2;
 8002b90:	2300      	movs	r3, #0
 8002b92:	61c3      	str	r3, [r0, #28]
 8002b94:	e002      	b.n	8002b9c <HAL_SPI_Init+0x20>
    hspi->Init.CLKPolarity = SPI_POLARITY_LOW;
 8002b96:	2300      	movs	r3, #0
 8002b98:	6103      	str	r3, [r0, #16]
    hspi->Init.CLKPhase    = SPI_PHASE_1EDGE;
 8002b9a:	6143      	str	r3, [r0, #20]
  hspi->Init.CRCCalculation = SPI_CRCCALCULATION_DISABLE;
 8002b9c:	2300      	movs	r3, #0
 8002b9e:	62a3      	str	r3, [r4, #40]	@ 0x28
  if (hspi->State == HAL_SPI_STATE_RESET)
 8002ba0:	f894 3051 	ldrb.w	r3, [r4, #81]	@ 0x51
 8002ba4:	2b00      	cmp	r3, #0
 8002ba6:	d03c      	beq.n	8002c22 <HAL_SPI_Init+0xa6>
  hspi->State = HAL_SPI_STATE_BUSY;
 8002ba8:	2302      	movs	r3, #2
 8002baa:	f884 3051 	strb.w	r3, [r4, #81]	@ 0x51
  __HAL_SPI_DISABLE(hspi);
 8002bae:	6822      	ldr	r2, [r4, #0]
 8002bb0:	6813      	ldr	r3, [r2, #0]
 8002bb2:	f023 0340 	bic.w	r3, r3, #64	@ 0x40
 8002bb6:	6013      	str	r3, [r2, #0]
  WRITE_REG(hspi->Instance->CR1, ((hspi->Init.Mode & (SPI_CR1_MSTR | SPI_CR1_SSI)) |
 8002bb8:	6863      	ldr	r3, [r4, #4]
 8002bba:	f403 7382 	and.w	r3, r3, #260	@ 0x104
 8002bbe:	68a2      	ldr	r2, [r4, #8]
 8002bc0:	f402 4204 	and.w	r2, r2, #33792	@ 0x8400
 8002bc4:	4313      	orrs	r3, r2
 8002bc6:	68e2      	ldr	r2, [r4, #12]
 8002bc8:	f402 6200 	and.w	r2, r2, #2048	@ 0x800
 8002bcc:	4313      	orrs	r3, r2
 8002bce:	6922      	ldr	r2, [r4, #16]
 8002bd0:	f002 0202 	and.w	r2, r2, #2
 8002bd4:	4313      	orrs	r3, r2
 8002bd6:	6962      	ldr	r2, [r4, #20]
 8002bd8:	f002 0201 	and.w	r2, r2, #1
 8002bdc:	4313      	orrs	r3, r2
 8002bde:	69a2      	ldr	r2, [r4, #24]
 8002be0:	f402 7200 	and.w	r2, r2, #512	@ 0x200
 8002be4:	4313      	orrs	r3, r2
 8002be6:	69e2      	ldr	r2, [r4, #28]
 8002be8:	f002 0238 	and.w	r2, r2, #56	@ 0x38
 8002bec:	4313      	orrs	r3, r2
 8002bee:	6a22      	ldr	r2, [r4, #32]
 8002bf0:	f002 0280 	and.w	r2, r2, #128	@ 0x80
 8002bf4:	4313      	orrs	r3, r2
 8002bf6:	6aa2      	ldr	r2, [r4, #40]	@ 0x28
 8002bf8:	f402 5200 	and.w	r2, r2, #8192	@ 0x2000
 8002bfc:	6821      	ldr	r1, [r4, #0]
 8002bfe:	4313      	orrs	r3, r2
 8002c00:	600b      	str	r3, [r1, #0]
  WRITE_REG(hspi->Instance->CR2, ((hspi->Init.NSS >> 16U) & SPI_CR2_SSOE));
 8002c02:	8b63      	ldrh	r3, [r4, #26]
 8002c04:	6822      	ldr	r2, [r4, #0]
 8002c06:	f003 0304 	and.w	r3, r3, #4
 8002c0a:	6053      	str	r3, [r2, #4]
  CLEAR_BIT(hspi->Instance->I2SCFGR, SPI_I2SCFGR_I2SMOD);
 8002c0c:	6822      	ldr	r2, [r4, #0]
 8002c0e:	69d3      	ldr	r3, [r2, #28]
 8002c10:	f423 6300 	bic.w	r3, r3, #2048	@ 0x800
 8002c14:	61d3      	str	r3, [r2, #28]
  hspi->ErrorCode = HAL_SPI_ERROR_NONE;
 8002c16:	2000      	movs	r0, #0
 8002c18:	6560      	str	r0, [r4, #84]	@ 0x54
  hspi->State     = HAL_SPI_STATE_READY;
 8002c1a:	2301      	movs	r3, #1
 8002c1c:	f884 3051 	strb.w	r3, [r4, #81]	@ 0x51
}
 8002c20:	bd10      	pop	{r4, pc}
    hspi->Lock = HAL_UNLOCKED;
 8002c22:	f884 3050 	strb.w	r3, [r4, #80]	@ 0x50
    HAL_SPI_MspInit(hspi);
 8002c26:	4620      	mov	r0, r4
 8002c28:	f7fe f81c 	bl	8000c64 <HAL_SPI_MspInit>
 8002c2c:	e7bc      	b.n	8002ba8 <HAL_SPI_Init+0x2c>
    return HAL_ERROR;
 8002c2e:	2001      	movs	r0, #1
}
 8002c30:	4770      	bx	lr

08002c32 <HAL_SPI_TransmitReceive>:
{
 8002c32:	e92d 43f0 	stmdb	sp!, {r4, r5, r6, r7, r8, r9, lr}
 8002c36:	b083      	sub	sp, #12
 8002c38:	4604      	mov	r4, r0
 8002c3a:	4688      	mov	r8, r1
 8002c3c:	4691      	mov	r9, r2
 8002c3e:	461f      	mov	r7, r3
 8002c40:	9d0a      	ldr	r5, [sp, #40]	@ 0x28
  tickstart = HAL_GetTick();
 8002c42:	f7fe fb9f 	bl	8001384 <HAL_GetTick>
 8002c46:	4606      	mov	r6, r0
  tmp_state           = hspi->State;
 8002c48:	f894 3051 	ldrb.w	r3, [r4, #81]	@ 0x51
 8002c4c:	b2db      	uxtb	r3, r3
  tmp_mode            = hspi->Init.Mode;
 8002c4e:	6862      	ldr	r2, [r4, #4]
  if (!((tmp_state == HAL_SPI_STATE_READY) || \
 8002c50:	2b01      	cmp	r3, #1
 8002c52:	d00a      	beq.n	8002c6a <HAL_SPI_TransmitReceive+0x38>
 8002c54:	f5b2 7f82 	cmp.w	r2, #260	@ 0x104
 8002c58:	f040 8105 	bne.w	8002e66 <HAL_SPI_TransmitReceive+0x234>
        ((tmp_mode == SPI_MODE_MASTER) && (hspi->Init.Direction == SPI_DIRECTION_2LINES) &&
 8002c5c:	68a2      	ldr	r2, [r4, #8]
 8002c5e:	2a00      	cmp	r2, #0
 8002c60:	f040 8105 	bne.w	8002e6e <HAL_SPI_TransmitReceive+0x23c>
 8002c64:	2b04      	cmp	r3, #4
 8002c66:	f040 8104 	bne.w	8002e72 <HAL_SPI_TransmitReceive+0x240>
  if ((pTxData == NULL) || (pRxData == NULL) || (Size == 0U))
 8002c6a:	f1b8 0f00 	cmp.w	r8, #0
 8002c6e:	f000 8102 	beq.w	8002e76 <HAL_SPI_TransmitReceive+0x244>
 8002c72:	f1b9 0f00 	cmp.w	r9, #0
 8002c76:	f000 8100 	beq.w	8002e7a <HAL_SPI_TransmitReceive+0x248>
 8002c7a:	2f00      	cmp	r7, #0
 8002c7c:	f000 80ff 	beq.w	8002e7e <HAL_SPI_TransmitReceive+0x24c>
  __HAL_LOCK(hspi);
 8002c80:	f894 3050 	ldrb.w	r3, [r4, #80]	@ 0x50
 8002c84:	2b01      	cmp	r3, #1
 8002c86:	f000 80fc 	beq.w	8002e82 <HAL_SPI_TransmitReceive+0x250>
 8002c8a:	2301      	movs	r3, #1
 8002c8c:	f884 3050 	strb.w	r3, [r4, #80]	@ 0x50
  if (hspi->State != HAL_SPI_STATE_BUSY_RX)
 8002c90:	f894 3051 	ldrb.w	r3, [r4, #81]	@ 0x51
 8002c94:	b2db      	uxtb	r3, r3
 8002c96:	2b04      	cmp	r3, #4
 8002c98:	d002      	beq.n	8002ca0 <HAL_SPI_TransmitReceive+0x6e>
    hspi->State = HAL_SPI_STATE_BUSY_TX_RX;
 8002c9a:	2305      	movs	r3, #5
 8002c9c:	f884 3051 	strb.w	r3, [r4, #81]	@ 0x51
  hspi->ErrorCode   = HAL_SPI_ERROR_NONE;
 8002ca0:	2300      	movs	r3, #0
 8002ca2:	6563      	str	r3, [r4, #84]	@ 0x54
  hspi->pRxBuffPtr  = (uint8_t *)pRxData;
 8002ca4:	f8c4 9038 	str.w	r9, [r4, #56]	@ 0x38
  hspi->RxXferCount = Size;
 8002ca8:	87e7      	strh	r7, [r4, #62]	@ 0x3e
  hspi->RxXferSize  = Size;
 8002caa:	87a7      	strh	r7, [r4, #60]	@ 0x3c
  hspi->pTxBuffPtr  = (const uint8_t *)pTxData;
 8002cac:	f8c4 8030 	str.w	r8, [r4, #48]	@ 0x30
  hspi->TxXferCount = Size;
 8002cb0:	86e7      	strh	r7, [r4, #54]	@ 0x36
  hspi->TxXferSize  = Size;
 8002cb2:	86a7      	strh	r7, [r4, #52]	@ 0x34
  hspi->RxISR       = NULL;
 8002cb4:	6423      	str	r3, [r4, #64]	@ 0x40
  hspi->TxISR       = NULL;
 8002cb6:	6463      	str	r3, [r4, #68]	@ 0x44
  if ((hspi->Instance->CR1 & SPI_CR1_SPE) != SPI_CR1_SPE)
 8002cb8:	6823      	ldr	r3, [r4, #0]
 8002cba:	681a      	ldr	r2, [r3, #0]
 8002cbc:	f012 0f40 	tst.w	r2, #64	@ 0x40
 8002cc0:	d103      	bne.n	8002cca <HAL_SPI_TransmitReceive+0x98>
    __HAL_SPI_ENABLE(hspi);
 8002cc2:	681a      	ldr	r2, [r3, #0]
 8002cc4:	f042 0240 	orr.w	r2, r2, #64	@ 0x40
 8002cc8:	601a      	str	r2, [r3, #0]
  if (hspi->Init.DataSize == SPI_DATASIZE_16BIT)
 8002cca:	68e3      	ldr	r3, [r4, #12]
 8002ccc:	f5b3 6f00 	cmp.w	r3, #2048	@ 0x800
 8002cd0:	d011      	beq.n	8002cf6 <HAL_SPI_TransmitReceive+0xc4>
    if ((hspi->Init.Mode == SPI_MODE_SLAVE) || (initial_TxXferCount == 0x01U))
 8002cd2:	6863      	ldr	r3, [r4, #4]
 8002cd4:	b10b      	cbz	r3, 8002cda <HAL_SPI_TransmitReceive+0xa8>
 8002cd6:	2f01      	cmp	r7, #1
 8002cd8:	d10b      	bne.n	8002cf2 <HAL_SPI_TransmitReceive+0xc0>
      *((__IO uint8_t *)&hspi->Instance->DR) = *((const uint8_t *)hspi->pTxBuffPtr);
 8002cda:	6b22      	ldr	r2, [r4, #48]	@ 0x30
 8002cdc:	6823      	ldr	r3, [r4, #0]
 8002cde:	7812      	ldrb	r2, [r2, #0]
 8002ce0:	731a      	strb	r2, [r3, #12]
      hspi->pTxBuffPtr += sizeof(uint8_t);
 8002ce2:	6b23      	ldr	r3, [r4, #48]	@ 0x30
 8002ce4:	3301      	adds	r3, #1
 8002ce6:	6323      	str	r3, [r4, #48]	@ 0x30
      hspi->TxXferCount--;
 8002ce8:	8ee3      	ldrh	r3, [r4, #54]	@ 0x36
 8002cea:	b29b      	uxth	r3, r3
 8002cec:	3b01      	subs	r3, #1
 8002cee:	b29b      	uxth	r3, r3
 8002cf0:	86e3      	strh	r3, [r4, #54]	@ 0x36
        txallowed = 1U;
 8002cf2:	2701      	movs	r7, #1
 8002cf4:	e071      	b.n	8002dda <HAL_SPI_TransmitReceive+0x1a8>
    if ((hspi->Init.Mode == SPI_MODE_SLAVE) || (initial_TxXferCount == 0x01U))
 8002cf6:	6863      	ldr	r3, [r4, #4]
 8002cf8:	b10b      	cbz	r3, 8002cfe <HAL_SPI_TransmitReceive+0xcc>
 8002cfa:	2f01      	cmp	r7, #1
 8002cfc:	d10b      	bne.n	8002d16 <HAL_SPI_TransmitReceive+0xe4>
      hspi->Instance->DR = *((const uint16_t *)hspi->pTxBuffPtr);
 8002cfe:	6b22      	ldr	r2, [r4, #48]	@ 0x30
 8002d00:	6823      	ldr	r3, [r4, #0]
 8002d02:	8812      	ldrh	r2, [r2, #0]
 8002d04:	60da      	str	r2, [r3, #12]
      hspi->pTxBuffPtr += sizeof(uint16_t);
 8002d06:	6b23      	ldr	r3, [r4, #48]	@ 0x30
 8002d08:	3302      	adds	r3, #2
 8002d0a:	6323      	str	r3, [r4, #48]	@ 0x30
      hspi->TxXferCount--;
 8002d0c:	8ee3      	ldrh	r3, [r4, #54]	@ 0x36
 8002d0e:	b29b      	uxth	r3, r3
 8002d10:	3b01      	subs	r3, #1
 8002d12:	b29b      	uxth	r3, r3
 8002d14:	86e3      	strh	r3, [r4, #54]	@ 0x36
        txallowed = 1U;
 8002d16:	2701      	movs	r7, #1
 8002d18:	e01b      	b.n	8002d52 <HAL_SPI_TransmitReceive+0x120>
      if ((__HAL_SPI_GET_FLAG(hspi, SPI_FLAG_RXNE)) && (hspi->RxXferCount > 0U))
 8002d1a:	6823      	ldr	r3, [r4, #0]
 8002d1c:	689a      	ldr	r2, [r3, #8]
 8002d1e:	f012 0f01 	tst.w	r2, #1
 8002d22:	d00e      	beq.n	8002d42 <HAL_SPI_TransmitReceive+0x110>
 8002d24:	8fe2      	ldrh	r2, [r4, #62]	@ 0x3e
 8002d26:	b292      	uxth	r2, r2
 8002d28:	b15a      	cbz	r2, 8002d42 <HAL_SPI_TransmitReceive+0x110>
        *((uint16_t *)hspi->pRxBuffPtr) = (uint16_t)hspi->Instance->DR;
 8002d2a:	68da      	ldr	r2, [r3, #12]
 8002d2c:	6ba3      	ldr	r3, [r4, #56]	@ 0x38
 8002d2e:	801a      	strh	r2, [r3, #0]
        hspi->pRxBuffPtr += sizeof(uint16_t);
 8002d30:	6ba3      	ldr	r3, [r4, #56]	@ 0x38
 8002d32:	3302      	adds	r3, #2
 8002d34:	63a3      	str	r3, [r4, #56]	@ 0x38
        hspi->RxXferCount--;
 8002d36:	8fe3      	ldrh	r3, [r4, #62]	@ 0x3e
 8002d38:	b29b      	uxth	r3, r3
 8002d3a:	3b01      	subs	r3, #1
 8002d3c:	b29b      	uxth	r3, r3
 8002d3e:	87e3      	strh	r3, [r4, #62]	@ 0x3e
        txallowed = 1U;
 8002d40:	2701      	movs	r7, #1
      if (((HAL_GetTick() - tickstart) >=  Timeout) && (Timeout != HAL_MAX_DELAY))
 8002d42:	f7fe fb1f 	bl	8001384 <HAL_GetTick>
 8002d46:	1b80      	subs	r0, r0, r6
 8002d48:	42a8      	cmp	r0, r5
 8002d4a:	d302      	bcc.n	8002d52 <HAL_SPI_TransmitReceive+0x120>
 8002d4c:	f1b5 3fff 	cmp.w	r5, #4294967295
 8002d50:	d11e      	bne.n	8002d90 <HAL_SPI_TransmitReceive+0x15e>
    while ((hspi->TxXferCount > 0U) || (hspi->RxXferCount > 0U))
 8002d52:	8ee3      	ldrh	r3, [r4, #54]	@ 0x36
 8002d54:	b29b      	uxth	r3, r3
 8002d56:	b91b      	cbnz	r3, 8002d60 <HAL_SPI_TransmitReceive+0x12e>
 8002d58:	8fe3      	ldrh	r3, [r4, #62]	@ 0x3e
 8002d5a:	b29b      	uxth	r3, r3
 8002d5c:	2b00      	cmp	r3, #0
 8002d5e:	d062      	beq.n	8002e26 <HAL_SPI_TransmitReceive+0x1f4>
      if ((__HAL_SPI_GET_FLAG(hspi, SPI_FLAG_TXE)) && (hspi->TxXferCount > 0U) && (txallowed == 1U))
 8002d60:	6823      	ldr	r3, [r4, #0]
 8002d62:	689a      	ldr	r2, [r3, #8]
 8002d64:	f012 0f02 	tst.w	r2, #2
 8002d68:	d0d7      	beq.n	8002d1a <HAL_SPI_TransmitReceive+0xe8>
 8002d6a:	8ee2      	ldrh	r2, [r4, #54]	@ 0x36
 8002d6c:	b292      	uxth	r2, r2
 8002d6e:	2a00      	cmp	r2, #0
 8002d70:	d0d3      	beq.n	8002d1a <HAL_SPI_TransmitReceive+0xe8>
 8002d72:	2f00      	cmp	r7, #0
 8002d74:	d0d1      	beq.n	8002d1a <HAL_SPI_TransmitReceive+0xe8>
        hspi->Instance->DR = *((const uint16_t *)hspi->pTxBuffPtr);
 8002d76:	6b22      	ldr	r2, [r4, #48]	@ 0x30
 8002d78:	8812      	ldrh	r2, [r2, #0]
 8002d7a:	60da      	str	r2, [r3, #12]
        hspi->pTxBuffPtr += sizeof(uint16_t);
 8002d7c:	6b23      	ldr	r3, [r4, #48]	@ 0x30
 8002d7e:	3302      	adds	r3, #2
 8002d80:	6323      	str	r3, [r4, #48]	@ 0x30
        hspi->TxXferCount--;
 8002d82:	8ee3      	ldrh	r3, [r4, #54]	@ 0x36
 8002d84:	b29b      	uxth	r3, r3
 8002d86:	3b01      	subs	r3, #1
 8002d88:	b29b      	uxth	r3, r3
 8002d8a:	86e3      	strh	r3, [r4, #54]	@ 0x36
        txallowed = 0U;
 8002d8c:	2700      	movs	r7, #0
 8002d8e:	e7c4      	b.n	8002d1a <HAL_SPI_TransmitReceive+0xe8>
        hspi->State = HAL_SPI_STATE_READY;
 8002d90:	2301      	movs	r3, #1
 8002d92:	f884 3051 	strb.w	r3, [r4, #81]	@ 0x51
        __HAL_UNLOCK(hspi);
 8002d96:	2300      	movs	r3, #0
 8002d98:	f884 3050 	strb.w	r3, [r4, #80]	@ 0x50
        return HAL_TIMEOUT;
 8002d9c:	2003      	movs	r0, #3
 8002d9e:	e063      	b.n	8002e68 <HAL_SPI_TransmitReceive+0x236>
      if ((__HAL_SPI_GET_FLAG(hspi, SPI_FLAG_RXNE)) && (hspi->RxXferCount > 0U))
 8002da0:	6823      	ldr	r3, [r4, #0]
 8002da2:	689a      	ldr	r2, [r3, #8]
 8002da4:	f012 0f01 	tst.w	r2, #1
 8002da8:	d00e      	beq.n	8002dc8 <HAL_SPI_TransmitReceive+0x196>
 8002daa:	8fe2      	ldrh	r2, [r4, #62]	@ 0x3e
 8002dac:	b292      	uxth	r2, r2
 8002dae:	b15a      	cbz	r2, 8002dc8 <HAL_SPI_TransmitReceive+0x196>
        (*(uint8_t *)hspi->pRxBuffPtr) = hspi->Instance->DR;
 8002db0:	68da      	ldr	r2, [r3, #12]
 8002db2:	6ba3      	ldr	r3, [r4, #56]	@ 0x38
 8002db4:	701a      	strb	r2, [r3, #0]
        hspi->pRxBuffPtr++;
 8002db6:	6ba3      	ldr	r3, [r4, #56]	@ 0x38
 8002db8:	3301      	adds	r3, #1
 8002dba:	63a3      	str	r3, [r4, #56]	@ 0x38
        hspi->RxXferCount--;
 8002dbc:	8fe3      	ldrh	r3, [r4, #62]	@ 0x3e
 8002dbe:	b29b      	uxth	r3, r3
 8002dc0:	3b01      	subs	r3, #1
 8002dc2:	b29b      	uxth	r3, r3
 8002dc4:	87e3      	strh	r3, [r4, #62]	@ 0x3e
        txallowed = 1U;
 8002dc6:	2701      	movs	r7, #1
      if ((((HAL_GetTick() - tickstart) >=  Timeout) && ((Timeout != HAL_MAX_DELAY))) || (Timeout == 0U))
 8002dc8:	f7fe fadc 	bl	8001384 <HAL_GetTick>
 8002dcc:	1b83      	subs	r3, r0, r6
 8002dce:	42ab      	cmp	r3, r5
 8002dd0:	d302      	bcc.n	8002dd8 <HAL_SPI_TransmitReceive+0x1a6>
 8002dd2:	f1b5 3fff 	cmp.w	r5, #4294967295
 8002dd6:	d11e      	bne.n	8002e16 <HAL_SPI_TransmitReceive+0x1e4>
 8002dd8:	b1ed      	cbz	r5, 8002e16 <HAL_SPI_TransmitReceive+0x1e4>
    while ((hspi->TxXferCount > 0U) || (hspi->RxXferCount > 0U))
 8002dda:	8ee3      	ldrh	r3, [r4, #54]	@ 0x36
 8002ddc:	b29b      	uxth	r3, r3
 8002dde:	b913      	cbnz	r3, 8002de6 <HAL_SPI_TransmitReceive+0x1b4>
 8002de0:	8fe3      	ldrh	r3, [r4, #62]	@ 0x3e
 8002de2:	b29b      	uxth	r3, r3
 8002de4:	b1fb      	cbz	r3, 8002e26 <HAL_SPI_TransmitReceive+0x1f4>
      if ((__HAL_SPI_GET_FLAG(hspi, SPI_FLAG_TXE)) && (hspi->TxXferCount > 0U) && (txallowed == 1U))
 8002de6:	6823      	ldr	r3, [r4, #0]
 8002de8:	689a      	ldr	r2, [r3, #8]
 8002dea:	f012 0f02 	tst.w	r2, #2
 8002dee:	d0d7      	beq.n	8002da0 <HAL_SPI_TransmitReceive+0x16e>
 8002df0:	8ee2      	ldrh	r2, [r4, #54]	@ 0x36
 8002df2:	b292      	uxth	r2, r2
 8002df4:	2a00      	cmp	r2, #0
 8002df6:	d0d3      	beq.n	8002da0 <HAL_SPI_TransmitReceive+0x16e>
 8002df8:	2f00      	cmp	r7, #0
 8002dfa:	d0d1      	beq.n	8002da0 <HAL_SPI_TransmitReceive+0x16e>
        *(__IO uint8_t *)&hspi->Instance->DR = *((const uint8_t *)hspi->pTxBuffPtr);
 8002dfc:	6b22      	ldr	r2, [r4, #48]	@ 0x30
 8002dfe:	7812      	ldrb	r2, [r2, #0]
 8002e00:	731a      	strb	r2, [r3, #12]
        hspi->pTxBuffPtr++;
 8002e02:	6b23      	ldr	r3, [r4, #48]	@ 0x30
 8002e04:	3301      	adds	r3, #1
 8002e06:	6323      	str	r3, [r4, #48]	@ 0x30
        hspi->TxXferCount--;
 8002e08:	8ee3      	ldrh	r3, [r4, #54]	@ 0x36
 8002e0a:	b29b      	uxth	r3, r3
 8002e0c:	3b01      	subs	r3, #1
 8002e0e:	b29b      	uxth	r3, r3
 8002e10:	86e3      	strh	r3, [r4, #54]	@ 0x36
        txallowed = 0U;
 8002e12:	2700      	movs	r7, #0
 8002e14:	e7c4      	b.n	8002da0 <HAL_SPI_TransmitReceive+0x16e>
        hspi->State = HAL_SPI_STATE_READY;
 8002e16:	2301      	movs	r3, #1
 8002e18:	f884 3051 	strb.w	r3, [r4, #81]	@ 0x51
        __HAL_UNLOCK(hspi);
 8002e1c:	2300      	movs	r3, #0
 8002e1e:	f884 3050 	strb.w	r3, [r4, #80]	@ 0x50
        return HAL_TIMEOUT;
 8002e22:	2003      	movs	r0, #3
 8002e24:	e020      	b.n	8002e68 <HAL_SPI_TransmitReceive+0x236>
  if (SPI_EndRxTxTransaction(hspi, Timeout, tickstart) != HAL_OK)
 8002e26:	4632      	mov	r2, r6
 8002e28:	4629      	mov	r1, r5
 8002e2a:	4620      	mov	r0, r4
 8002e2c:	f7ff fe84 	bl	8002b38 <SPI_EndRxTxTransaction>
 8002e30:	b990      	cbnz	r0, 8002e58 <HAL_SPI_TransmitReceive+0x226>
  if (hspi->Init.Direction == SPI_DIRECTION_2LINES)
 8002e32:	68a3      	ldr	r3, [r4, #8]
 8002e34:	b933      	cbnz	r3, 8002e44 <HAL_SPI_TransmitReceive+0x212>
    __HAL_SPI_CLEAR_OVRFLAG(hspi);
 8002e36:	9301      	str	r3, [sp, #4]
 8002e38:	6823      	ldr	r3, [r4, #0]
 8002e3a:	68da      	ldr	r2, [r3, #12]
 8002e3c:	9201      	str	r2, [sp, #4]
 8002e3e:	689b      	ldr	r3, [r3, #8]
 8002e40:	9301      	str	r3, [sp, #4]
 8002e42:	9b01      	ldr	r3, [sp, #4]
  hspi->State = HAL_SPI_STATE_READY;
 8002e44:	2301      	movs	r3, #1
 8002e46:	f884 3051 	strb.w	r3, [r4, #81]	@ 0x51
  __HAL_UNLOCK(hspi);
 8002e4a:	2300      	movs	r3, #0
 8002e4c:	f884 3050 	strb.w	r3, [r4, #80]	@ 0x50
  if (hspi->ErrorCode != HAL_SPI_ERROR_NONE)
 8002e50:	6d63      	ldr	r3, [r4, #84]	@ 0x54
 8002e52:	b14b      	cbz	r3, 8002e68 <HAL_SPI_TransmitReceive+0x236>
    return HAL_ERROR;
 8002e54:	2001      	movs	r0, #1
 8002e56:	e007      	b.n	8002e68 <HAL_SPI_TransmitReceive+0x236>
    hspi->ErrorCode = HAL_SPI_ERROR_FLAG;
 8002e58:	2320      	movs	r3, #32
 8002e5a:	6563      	str	r3, [r4, #84]	@ 0x54
    __HAL_UNLOCK(hspi);
 8002e5c:	2300      	movs	r3, #0
 8002e5e:	f884 3050 	strb.w	r3, [r4, #80]	@ 0x50
    return HAL_ERROR;
 8002e62:	2001      	movs	r0, #1
 8002e64:	e000      	b.n	8002e68 <HAL_SPI_TransmitReceive+0x236>
    return HAL_BUSY;
 8002e66:	2002      	movs	r0, #2
}
 8002e68:	b003      	add	sp, #12
 8002e6a:	e8bd 83f0 	ldmia.w	sp!, {r4, r5, r6, r7, r8, r9, pc}
    return HAL_BUSY;
 8002e6e:	2002      	movs	r0, #2
 8002e70:	e7fa      	b.n	8002e68 <HAL_SPI_TransmitReceive+0x236>
 8002e72:	2002      	movs	r0, #2
 8002e74:	e7f8      	b.n	8002e68 <HAL_SPI_TransmitReceive+0x236>
    return HAL_ERROR;
 8002e76:	2001      	movs	r0, #1
 8002e78:	e7f6      	b.n	8002e68 <HAL_SPI_TransmitReceive+0x236>
 8002e7a:	2001      	movs	r0, #1
 8002e7c:	e7f4      	b.n	8002e68 <HAL_SPI_TransmitReceive+0x236>
 8002e7e:	2001      	movs	r0, #1
 8002e80:	e7f2      	b.n	8002e68 <HAL_SPI_TransmitReceive+0x236>
  __HAL_LOCK(hspi);
 8002e82:	2002      	movs	r0, #2
 8002e84:	e7f0      	b.n	8002e68 <HAL_SPI_TransmitReceive+0x236>
	...

08002e88 <TIM_OC1_SetConfig>:
  * @param  TIMx to select the TIM peripheral
  * @param  OC_Config The output configuration structure
  * @retval None
  */
static void TIM_OC1_SetConfig(TIM_TypeDef *TIMx, const TIM_OC_InitTypeDef *OC_Config)
{
 8002e88:	b430      	push	{r4, r5}
  uint32_t tmpccmrx;
  uint32_t tmpccer;
  uint32_t tmpcr2;

  /* Get the TIMx CCER register value */
  tmpccer = TIMx->CCER;
 8002e8a:	6a02      	ldr	r2, [r0, #32]

  /* Disable the Channel 1: Reset the CC1E Bit */
  TIMx->CCER &= ~TIM_CCER_CC1E;
 8002e8c:	6a03      	ldr	r3, [r0, #32]
 8002e8e:	f023 0301 	bic.w	r3, r3, #1
 8002e92:	6203      	str	r3, [r0, #32]

  /* Get the TIMx CR2 register value */
  tmpcr2 =  TIMx->CR2;
 8002e94:	6845      	ldr	r5, [r0, #4]

  /* Get the TIMx CCMR1 register value */
  tmpccmrx = TIMx->CCMR1;
 8002e96:	6983      	ldr	r3, [r0, #24]

  /* Reset the Output Compare Mode Bits */
  tmpccmrx &= ~TIM_CCMR1_OC1M;
  tmpccmrx &= ~TIM_CCMR1_CC1S;
 8002e98:	f023 0373 	bic.w	r3, r3, #115	@ 0x73
  /* Select the Output Compare Mode */
  tmpccmrx |= OC_Config->OCMode;
 8002e9c:	680c      	ldr	r4, [r1, #0]
 8002e9e:	431c      	orrs	r4, r3

  /* Reset the Output Polarity level */
  tmpccer &= ~TIM_CCER_CC1P;
 8002ea0:	f022 0202 	bic.w	r2, r2, #2
  /* Set the Output Compare Polarity */
  tmpccer |= OC_Config->OCPolarity;
 8002ea4:	688b      	ldr	r3, [r1, #8]
 8002ea6:	4313      	orrs	r3, r2

  if (IS_TIM_CCXN_INSTANCE(TIMx, TIM_CHANNEL_1))
 8002ea8:	4a0b      	ldr	r2, [pc, #44]	@ (8002ed8 <TIM_OC1_SetConfig+0x50>)
 8002eaa:	4290      	cmp	r0, r2
 8002eac:	d006      	beq.n	8002ebc <TIM_OC1_SetConfig+0x34>
    /* Set the Output N Idle state */
    tmpcr2 |= OC_Config->OCNIdleState;
  }

  /* Write to TIMx CR2 */
  TIMx->CR2 = tmpcr2;
 8002eae:	6045      	str	r5, [r0, #4]

  /* Write to TIMx CCMR1 */
  TIMx->CCMR1 = tmpccmrx;
 8002eb0:	6184      	str	r4, [r0, #24]

  /* Set the Capture Compare Register value */
  TIMx->CCR1 = OC_Config->Pulse;
 8002eb2:	684a      	ldr	r2, [r1, #4]
 8002eb4:	6342      	str	r2, [r0, #52]	@ 0x34

  /* Write to TIMx CCER */
  TIMx->CCER = tmpccer;
 8002eb6:	6203      	str	r3, [r0, #32]
}
 8002eb8:	bc30      	pop	{r4, r5}
 8002eba:	4770      	bx	lr
    tmpccer &= ~TIM_CCER_CC1NP;
 8002ebc:	f023 0308 	bic.w	r3, r3, #8
    tmpccer |= OC_Config->OCNPolarity;
 8002ec0:	68ca      	ldr	r2, [r1, #12]
 8002ec2:	431a      	orrs	r2, r3
    tmpccer &= ~TIM_CCER_CC1NE;
 8002ec4:	f022 0304 	bic.w	r3, r2, #4
    tmpcr2 &= ~TIM_CR2_OIS1N;
 8002ec8:	f425 7540 	bic.w	r5, r5, #768	@ 0x300
    tmpcr2 |= OC_Config->OCIdleState;
 8002ecc:	694a      	ldr	r2, [r1, #20]
 8002ece:	432a      	orrs	r2, r5
    tmpcr2 |= OC_Config->OCNIdleState;
 8002ed0:	698d      	ldr	r5, [r1, #24]
 8002ed2:	4315      	orrs	r5, r2
 8002ed4:	e7eb      	b.n	8002eae <TIM_OC1_SetConfig+0x26>
 8002ed6:	bf00      	nop
 8002ed8:	40012c00 	.word	0x40012c00

08002edc <TIM_OC3_SetConfig>:
  * @param  TIMx to select the TIM peripheral
  * @param  OC_Config The output configuration structure
  * @retval None
  */
static void TIM_OC3_SetConfig(TIM_TypeDef *TIMx, const TIM_OC_InitTypeDef *OC_Config)
{
 8002edc:	b430      	push	{r4, r5}
  uint32_t tmpccmrx;
  uint32_t tmpccer;
  uint32_t tmpcr2;

  /* Get the TIMx CCER register value */
  tmpccer = TIMx->CCER;
 8002ede:	6a03      	ldr	r3, [r0, #32]

  /* Disable the Channel 3: Reset the CC2E Bit */
  TIMx->CCER &= ~TIM_CCER_CC3E;
 8002ee0:	6a02      	ldr	r2, [r0, #32]
 8002ee2:	f422 7280 	bic.w	r2, r2, #256	@ 0x100
 8002ee6:	6202      	str	r2, [r0, #32]

  /* Get the TIMx CR2 register value */
  tmpcr2 =  TIMx->CR2;
 8002ee8:	6844      	ldr	r4, [r0, #4]

  /* Get the TIMx CCMR2 register value */
  tmpccmrx = TIMx->CCMR2;
 8002eea:	69c2      	ldr	r2, [r0, #28]

  /* Reset the Output Compare mode and Capture/Compare selection Bits */
  tmpccmrx &= ~TIM_CCMR2_OC3M;
  tmpccmrx &= ~TIM_CCMR2_CC3S;
 8002eec:	f022 0273 	bic.w	r2, r2, #115	@ 0x73
  /* Select the Output Compare Mode */
  tmpccmrx |= OC_Config->OCMode;
 8002ef0:	680d      	ldr	r5, [r1, #0]
 8002ef2:	4315      	orrs	r5, r2

  /* Reset the Output Polarity level */
  tmpccer &= ~TIM_CCER_CC3P;
 8002ef4:	f423 7300 	bic.w	r3, r3, #512	@ 0x200
  /* Set the Output Compare Polarity */
  tmpccer |= (OC_Config->OCPolarity << 8U);
 8002ef8:	688a      	ldr	r2, [r1, #8]
 8002efa:	ea43 2302 	orr.w	r3, r3, r2, lsl #8

  if (IS_TIM_CCXN_INSTANCE(TIMx, TIM_CHANNEL_3))
 8002efe:	4a0d      	ldr	r2, [pc, #52]	@ (8002f34 <TIM_OC3_SetConfig+0x58>)
 8002f00:	4290      	cmp	r0, r2
 8002f02:	d006      	beq.n	8002f12 <TIM_OC3_SetConfig+0x36>
    /* Set the Output N Idle state */
    tmpcr2 |= (OC_Config->OCNIdleState << 4U);
  }

  /* Write to TIMx CR2 */
  TIMx->CR2 = tmpcr2;
 8002f04:	6044      	str	r4, [r0, #4]

  /* Write to TIMx CCMR2 */
  TIMx->CCMR2 = tmpccmrx;
 8002f06:	61c5      	str	r5, [r0, #28]

  /* Set the Capture Compare Register value */
  TIMx->CCR3 = OC_Config->Pulse;
 8002f08:	684a      	ldr	r2, [r1, #4]
 8002f0a:	63c2      	str	r2, [r0, #60]	@ 0x3c

  /* Write to TIMx CCER */
  TIMx->CCER = tmpccer;
 8002f0c:	6203      	str	r3, [r0, #32]
}
 8002f0e:	bc30      	pop	{r4, r5}
 8002f10:	4770      	bx	lr
    tmpccer &= ~TIM_CCER_CC3NP;
 8002f12:	f423 6300 	bic.w	r3, r3, #2048	@ 0x800
    tmpccer |= (OC_Config->OCNPolarity << 8U);
 8002f16:	68ca      	ldr	r2, [r1, #12]
 8002f18:	ea43 2302 	orr.w	r3, r3, r2, lsl #8
    tmpccer &= ~TIM_CCER_CC3NE;
 8002f1c:	f423 6380 	bic.w	r3, r3, #1024	@ 0x400
    tmpcr2 &= ~TIM_CR2_OIS3N;
 8002f20:	f424 5440 	bic.w	r4, r4, #12288	@ 0x3000
    tmpcr2 |= (OC_Config->OCIdleState << 4U);
 8002f24:	694a      	ldr	r2, [r1, #20]
 8002f26:	ea44 1402 	orr.w	r4, r4, r2, lsl #4
    tmpcr2 |= (OC_Config->OCNIdleState << 4U);
 8002f2a:	698a      	ldr	r2, [r1, #24]
 8002f2c:	ea44 1402 	orr.w	r4, r4, r2, lsl #4
 8002f30:	e7e8      	b.n	8002f04 <TIM_OC3_SetConfig+0x28>
 8002f32:	bf00      	nop
 8002f34:	40012c00 	.word	0x40012c00

08002f38 <TIM_OC4_SetConfig>:
  * @param  TIMx to select the TIM peripheral
  * @param  OC_Config The output configuration structure
  * @retval None
  */
static void TIM_OC4_SetConfig(TIM_TypeDef *TIMx, const TIM_OC_InitTypeDef *OC_Config)
{
 8002f38:	b430      	push	{r4, r5}
  uint32_t tmpccmrx;
  uint32_t tmpccer;
  uint32_t tmpcr2;

  /* Get the TIMx CCER register value */
  tmpccer = TIMx->CCER;
 8002f3a:	6a03      	ldr	r3, [r0, #32]

  /* Disable the Channel 4: Reset the CC4E Bit */
  TIMx->CCER &= ~TIM_CCER_CC4E;
 8002f3c:	6a02      	ldr	r2, [r0, #32]
 8002f3e:	f422 5280 	bic.w	r2, r2, #4096	@ 0x1000
 8002f42:	6202      	str	r2, [r0, #32]

  /* Get the TIMx CR2 register value */
  tmpcr2 =  TIMx->CR2;
 8002f44:	6844      	ldr	r4, [r0, #4]

  /* Get the TIMx CCMR2 register value */
  tmpccmrx = TIMx->CCMR2;
 8002f46:	69c2      	ldr	r2, [r0, #28]

  /* Reset the Output Compare mode and Capture/Compare selection Bits */
  tmpccmrx &= ~TIM_CCMR2_OC4M;
  tmpccmrx &= ~TIM_CCMR2_CC4S;
 8002f48:	f422 42e6 	bic.w	r2, r2, #29440	@ 0x7300

  /* Select the Output Compare Mode */
  tmpccmrx |= (OC_Config->OCMode << 8U);
 8002f4c:	680d      	ldr	r5, [r1, #0]
 8002f4e:	ea42 2205 	orr.w	r2, r2, r5, lsl #8

  /* Reset the Output Polarity level */
  tmpccer &= ~TIM_CCER_CC4P;
 8002f52:	f423 5300 	bic.w	r3, r3, #8192	@ 0x2000
  /* Set the Output Compare Polarity */
  tmpccer |= (OC_Config->OCPolarity << 12U);
 8002f56:	688d      	ldr	r5, [r1, #8]
 8002f58:	ea43 3305 	orr.w	r3, r3, r5, lsl #12

  if (IS_TIM_BREAK_INSTANCE(TIMx))
 8002f5c:	4d07      	ldr	r5, [pc, #28]	@ (8002f7c <TIM_OC4_SetConfig+0x44>)
 8002f5e:	42a8      	cmp	r0, r5
 8002f60:	d006      	beq.n	8002f70 <TIM_OC4_SetConfig+0x38>
    /* Set the Output Idle state */
    tmpcr2 |= (OC_Config->OCIdleState << 6U);
  }

  /* Write to TIMx CR2 */
  TIMx->CR2 = tmpcr2;
 8002f62:	6044      	str	r4, [r0, #4]

  /* Write to TIMx CCMR2 */
  TIMx->CCMR2 = tmpccmrx;
 8002f64:	61c2      	str	r2, [r0, #28]

  /* Set the Capture Compare Register value */
  TIMx->CCR4 = OC_Config->Pulse;
 8002f66:	684a      	ldr	r2, [r1, #4]
 8002f68:	6402      	str	r2, [r0, #64]	@ 0x40

  /* Write to TIMx CCER */
  TIMx->CCER = tmpccer;
 8002f6a:	6203      	str	r3, [r0, #32]
}
 8002f6c:	bc30      	pop	{r4, r5}
 8002f6e:	4770      	bx	lr
    tmpcr2 &= ~TIM_CR2_OIS4;
 8002f70:	f424 4480 	bic.w	r4, r4, #16384	@ 0x4000
    tmpcr2 |= (OC_Config->OCIdleState << 6U);
 8002f74:	694d      	ldr	r5, [r1, #20]
 8002f76:	ea44 1485 	orr.w	r4, r4, r5, lsl #6
 8002f7a:	e7f2      	b.n	8002f62 <TIM_OC4_SetConfig+0x2a>
 8002f7c:	40012c00 	.word	0x40012c00

08002f80 <TIM_TI2_SetConfig>:
  *       (on channel1 path) is used as the input signal. Therefore CCMR1 must be
  *        protected against un-initialized filter and polarity values.
  */
static void TIM_TI2_SetConfig(TIM_TypeDef *TIMx, uint32_t TIM_ICPolarity, uint32_t TIM_ICSelection,
                              uint32_t TIM_ICFilter)
{
 8002f80:	b430      	push	{r4, r5}
  uint32_t tmpccmr1;
  uint32_t tmpccer;

  /* Disable the Channel 2: Reset the CC2E Bit */
  tmpccer = TIMx->CCER;
 8002f82:	6a05      	ldr	r5, [r0, #32]
  TIMx->CCER &= ~TIM_CCER_CC2E;
 8002f84:	6a04      	ldr	r4, [r0, #32]
 8002f86:	f024 0410 	bic.w	r4, r4, #16
 8002f8a:	6204      	str	r4, [r0, #32]
  tmpccmr1 = TIMx->CCMR1;
 8002f8c:	6984      	ldr	r4, [r0, #24]

  /* Select the Input */
  tmpccmr1 &= ~TIM_CCMR1_CC2S;
 8002f8e:	f424 7c40 	bic.w	ip, r4, #768	@ 0x300
  tmpccmr1 |= (TIM_ICSelection << 8U);
 8002f92:	ea4c 2c02 	orr.w	ip, ip, r2, lsl #8

  /* Set the filter */
  tmpccmr1 &= ~TIM_CCMR1_IC2F;
 8002f96:	f42c 4c70 	bic.w	ip, ip, #61440	@ 0xf000
  tmpccmr1 |= ((TIM_ICFilter << 12U) & TIM_CCMR1_IC2F);
 8002f9a:	031b      	lsls	r3, r3, #12
 8002f9c:	b29b      	uxth	r3, r3
 8002f9e:	ea43 030c 	orr.w	r3, r3, ip

  /* Select the Polarity and set the CC2E Bit */
  tmpccer &= ~(TIM_CCER_CC2P | TIM_CCER_CC2NP);
 8002fa2:	f025 05a0 	bic.w	r5, r5, #160	@ 0xa0
  tmpccer |= ((TIM_ICPolarity << 4U) & (TIM_CCER_CC2P | TIM_CCER_CC2NP));
 8002fa6:	0109      	lsls	r1, r1, #4
 8002fa8:	f001 01a0 	and.w	r1, r1, #160	@ 0xa0
 8002fac:	4329      	orrs	r1, r5

  /* Write to TIMx CCMR1 and CCER registers */
  TIMx->CCMR1 = tmpccmr1 ;
 8002fae:	6183      	str	r3, [r0, #24]
  TIMx->CCER = tmpccer;
 8002fb0:	6201      	str	r1, [r0, #32]
}
 8002fb2:	bc30      	pop	{r4, r5}
 8002fb4:	4770      	bx	lr

08002fb6 <TIM_TI3_SetConfig>:
  *       (on channel1 path) is used as the input signal. Therefore CCMR2 must be
  *        protected against un-initialized filter and polarity values.
  */
static void TIM_TI3_SetConfig(TIM_TypeDef *TIMx, uint32_t TIM_ICPolarity, uint32_t TIM_ICSelection,
                              uint32_t TIM_ICFilter)
{
 8002fb6:	b430      	push	{r4, r5}
  uint32_t tmpccmr2;
  uint32_t tmpccer;

  /* Disable the Channel 3: Reset the CC3E Bit */
  tmpccer = TIMx->CCER;
 8002fb8:	6a05      	ldr	r5, [r0, #32]
  TIMx->CCER &= ~TIM_CCER_CC3E;
 8002fba:	6a04      	ldr	r4, [r0, #32]
 8002fbc:	f424 7480 	bic.w	r4, r4, #256	@ 0x100
 8002fc0:	6204      	str	r4, [r0, #32]
  tmpccmr2 = TIMx->CCMR2;
 8002fc2:	69c4      	ldr	r4, [r0, #28]

  /* Select the Input */
  tmpccmr2 &= ~TIM_CCMR2_CC3S;
 8002fc4:	f024 0c03 	bic.w	ip, r4, #3
  tmpccmr2 |= TIM_ICSelection;
 8002fc8:	ea4c 0c02 	orr.w	ip, ip, r2

  /* Set the filter */
  tmpccmr2 &= ~TIM_CCMR2_IC3F;
 8002fcc:	f02c 0cf0 	bic.w	ip, ip, #240	@ 0xf0
  tmpccmr2 |= ((TIM_ICFilter << 4U) & TIM_CCMR2_IC3F);
 8002fd0:	011b      	lsls	r3, r3, #4
 8002fd2:	b2db      	uxtb	r3, r3
 8002fd4:	ea43 030c 	orr.w	r3, r3, ip

  /* Select the Polarity and set the CC3E Bit */
  tmpccer &= ~(TIM_CCER_CC3P);
 8002fd8:	f425 7500 	bic.w	r5, r5, #512	@ 0x200
  tmpccer |= ((TIM_ICPolarity << 8U) & TIM_CCER_CC3P);
 8002fdc:	0209      	lsls	r1, r1, #8
 8002fde:	f401 7100 	and.w	r1, r1, #512	@ 0x200
 8002fe2:	4329      	orrs	r1, r5

  /* Write to TIMx CCMR2 and CCER registers */
  TIMx->CCMR2 = tmpccmr2;
 8002fe4:	61c3      	str	r3, [r0, #28]
  TIMx->CCER = tmpccer;
 8002fe6:	6201      	str	r1, [r0, #32]
}
 8002fe8:	bc30      	pop	{r4, r5}
 8002fea:	4770      	bx	lr

08002fec <TIM_TI4_SetConfig>:
  *        protected against un-initialized filter and polarity values.
  * @retval None
  */
static void TIM_TI4_SetConfig(TIM_TypeDef *TIMx, uint32_t TIM_ICPolarity, uint32_t TIM_ICSelection,
                              uint32_t TIM_ICFilter)
{
 8002fec:	b430      	push	{r4, r5}
  uint32_t tmpccmr2;
  uint32_t tmpccer;

  /* Disable the Channel 4: Reset the CC4E Bit */
  tmpccer = TIMx->CCER;
 8002fee:	6a05      	ldr	r5, [r0, #32]
  TIMx->CCER &= ~TIM_CCER_CC4E;
 8002ff0:	6a04      	ldr	r4, [r0, #32]
 8002ff2:	f424 5480 	bic.w	r4, r4, #4096	@ 0x1000
 8002ff6:	6204      	str	r4, [r0, #32]
  tmpccmr2 = TIMx->CCMR2;
 8002ff8:	69c4      	ldr	r4, [r0, #28]

  /* Select the Input */
  tmpccmr2 &= ~TIM_CCMR2_CC4S;
 8002ffa:	f424 7c40 	bic.w	ip, r4, #768	@ 0x300
  tmpccmr2 |= (TIM_ICSelection << 8U);
 8002ffe:	ea4c 2c02 	orr.w	ip, ip, r2, lsl #8

  /* Set the filter */
  tmpccmr2 &= ~TIM_CCMR2_IC4F;
 8003002:	f42c 4c70 	bic.w	ip, ip, #61440	@ 0xf000
  tmpccmr2 |= ((TIM_ICFilter << 12U) & TIM_CCMR2_IC4F);
 8003006:	031b      	lsls	r3, r3, #12
 8003008:	b29b      	uxth	r3, r3
 800300a:	ea43 030c 	orr.w	r3, r3, ip

  /* Select the Polarity and set the CC4E Bit */
  tmpccer &= ~(TIM_CCER_CC4P);
 800300e:	f425 5500 	bic.w	r5, r5, #8192	@ 0x2000
  tmpccer |= ((TIM_ICPolarity << 12U) & TIM_CCER_CC4P);
 8003012:	0309      	lsls	r1, r1, #12
 8003014:	f401 5100 	and.w	r1, r1, #8192	@ 0x2000
 8003018:	4329      	orrs	r1, r5

  /* Write to TIMx CCMR2 and CCER registers */
  TIMx->CCMR2 = tmpccmr2;
 800301a:	61c3      	str	r3, [r0, #28]
  TIMx->CCER = tmpccer ;
 800301c:	6201      	str	r1, [r0, #32]
}
 800301e:	bc30      	pop	{r4, r5}
 8003020:	4770      	bx	lr
	...

08003024 <HAL_TIM_Base_Start_IT>:
  if (htim->State != HAL_TIM_STATE_READY)
 8003024:	f890 303d 	ldrb.w	r3, [r0, #61]	@ 0x3d
 8003028:	b2db      	uxtb	r3, r3
 800302a:	2b01      	cmp	r3, #1
 800302c:	d127      	bne.n	800307e <HAL_TIM_Base_Start_IT+0x5a>
  htim->State = HAL_TIM_STATE_BUSY;
 800302e:	2302      	movs	r3, #2
 8003030:	f880 303d 	strb.w	r3, [r0, #61]	@ 0x3d
  __HAL_TIM_ENABLE_IT(htim, TIM_IT_UPDATE);
 8003034:	6802      	ldr	r2, [r0, #0]
 8003036:	68d3      	ldr	r3, [r2, #12]
 8003038:	f043 0301 	orr.w	r3, r3, #1
 800303c:	60d3      	str	r3, [r2, #12]
  if (IS_TIM_SLAVE_INSTANCE(htim->Instance))
 800303e:	6803      	ldr	r3, [r0, #0]
 8003040:	4a11      	ldr	r2, [pc, #68]	@ (8003088 <HAL_TIM_Base_Start_IT+0x64>)
 8003042:	4293      	cmp	r3, r2
 8003044:	d010      	beq.n	8003068 <HAL_TIM_Base_Start_IT+0x44>
 8003046:	f1b3 4f80 	cmp.w	r3, #1073741824	@ 0x40000000
 800304a:	d00d      	beq.n	8003068 <HAL_TIM_Base_Start_IT+0x44>
 800304c:	f5a2 3294 	sub.w	r2, r2, #75776	@ 0x12800
 8003050:	4293      	cmp	r3, r2
 8003052:	d009      	beq.n	8003068 <HAL_TIM_Base_Start_IT+0x44>
 8003054:	f502 6280 	add.w	r2, r2, #1024	@ 0x400
 8003058:	4293      	cmp	r3, r2
 800305a:	d005      	beq.n	8003068 <HAL_TIM_Base_Start_IT+0x44>
    __HAL_TIM_ENABLE(htim);
 800305c:	681a      	ldr	r2, [r3, #0]
 800305e:	f042 0201 	orr.w	r2, r2, #1
 8003062:	601a      	str	r2, [r3, #0]
  return HAL_OK;
 8003064:	2000      	movs	r0, #0
 8003066:	4770      	bx	lr
    tmpsmcr = htim->Instance->SMCR & TIM_SMCR_SMS;
 8003068:	689a      	ldr	r2, [r3, #8]
 800306a:	f002 0207 	and.w	r2, r2, #7
    if (!IS_TIM_SLAVEMODE_TRIGGER_ENABLED(tmpsmcr))
 800306e:	2a06      	cmp	r2, #6
 8003070:	d007      	beq.n	8003082 <HAL_TIM_Base_Start_IT+0x5e>
      __HAL_TIM_ENABLE(htim);
 8003072:	681a      	ldr	r2, [r3, #0]
 8003074:	f042 0201 	orr.w	r2, r2, #1
 8003078:	601a      	str	r2, [r3, #0]
  return HAL_OK;
 800307a:	2000      	movs	r0, #0
 800307c:	4770      	bx	lr
    return HAL_ERROR;
 800307e:	2001      	movs	r0, #1
 8003080:	4770      	bx	lr
  return HAL_OK;
 8003082:	2000      	movs	r0, #0
}
 8003084:	4770      	bx	lr
 8003086:	bf00      	nop
 8003088:	40012c00 	.word	0x40012c00

0800308c <HAL_TIM_OC_DelayElapsedCallback>:
}
 800308c:	4770      	bx	lr

0800308e <HAL_TIM_IC_CaptureCallback>:
}
 800308e:	4770      	bx	lr

08003090 <HAL_TIM_PWM_PulseFinishedCallback>:
}
 8003090:	4770      	bx	lr

08003092 <HAL_TIM_TriggerCallback>:
}
 8003092:	4770      	bx	lr

08003094 <HAL_TIM_IRQHandler>:
{
 8003094:	b570      	push	{r4, r5, r6, lr}
 8003096:	4604      	mov	r4, r0
  uint32_t itsource = htim->Instance->DIER;
 8003098:	6803      	ldr	r3, [r0, #0]
 800309a:	68de      	ldr	r6, [r3, #12]
  uint32_t itflag   = htim->Instance->SR;
 800309c:	691d      	ldr	r5, [r3, #16]
  if ((itflag & (TIM_FLAG_CC1)) == (TIM_FLAG_CC1))
 800309e:	f015 0f02 	tst.w	r5, #2
 80030a2:	d010      	beq.n	80030c6 <HAL_TIM_IRQHandler+0x32>
    if ((itsource & (TIM_IT_CC1)) == (TIM_IT_CC1))
 80030a4:	f016 0f02 	tst.w	r6, #2
 80030a8:	d00d      	beq.n	80030c6 <HAL_TIM_IRQHandler+0x32>
        __HAL_TIM_CLEAR_FLAG(htim, TIM_FLAG_CC1);
 80030aa:	f06f 0202 	mvn.w	r2, #2
 80030ae:	611a      	str	r2, [r3, #16]
        htim->Channel = HAL_TIM_ACTIVE_CHANNEL_1;
 80030b0:	2301      	movs	r3, #1
 80030b2:	7703      	strb	r3, [r0, #28]
        if ((htim->Instance->CCMR1 & TIM_CCMR1_CC1S) != 0x00U)
 80030b4:	6803      	ldr	r3, [r0, #0]
 80030b6:	699b      	ldr	r3, [r3, #24]
 80030b8:	f013 0f03 	tst.w	r3, #3
 80030bc:	d05e      	beq.n	800317c <HAL_TIM_IRQHandler+0xe8>
          HAL_TIM_IC_CaptureCallback(htim);
 80030be:	f7ff ffe6 	bl	800308e <HAL_TIM_IC_CaptureCallback>
        htim->Channel = HAL_TIM_ACTIVE_CHANNEL_CLEARED;
 80030c2:	2300      	movs	r3, #0
 80030c4:	7723      	strb	r3, [r4, #28]
  if ((itflag & (TIM_FLAG_CC2)) == (TIM_FLAG_CC2))
 80030c6:	f015 0f04 	tst.w	r5, #4
 80030ca:	d012      	beq.n	80030f2 <HAL_TIM_IRQHandler+0x5e>
    if ((itsource & (TIM_IT_CC2)) == (TIM_IT_CC2))
 80030cc:	f016 0f04 	tst.w	r6, #4
 80030d0:	d00f      	beq.n	80030f2 <HAL_TIM_IRQHandler+0x5e>
      __HAL_TIM_CLEAR_FLAG(htim, TIM_FLAG_CC2);
 80030d2:	6823      	ldr	r3, [r4, #0]
 80030d4:	f06f 0204 	mvn.w	r2, #4
 80030d8:	611a      	str	r2, [r3, #16]
      htim->Channel = HAL_TIM_ACTIVE_CHANNEL_2;
 80030da:	2302      	movs	r3, #2
 80030dc:	7723      	strb	r3, [r4, #28]
      if ((htim->Instance->CCMR1 & TIM_CCMR1_CC2S) != 0x00U)
 80030de:	6823      	ldr	r3, [r4, #0]
 80030e0:	699b      	ldr	r3, [r3, #24]
 80030e2:	f413 7f40 	tst.w	r3, #768	@ 0x300
 80030e6:	d04f      	beq.n	8003188 <HAL_TIM_IRQHandler+0xf4>
        HAL_TIM_IC_CaptureCallback(htim);
 80030e8:	4620      	mov	r0, r4
 80030ea:	f7ff ffd0 	bl	800308e <HAL_TIM_IC_CaptureCallback>
      htim->Channel = HAL_TIM_ACTIVE_CHANNEL_CLEARED;
 80030ee:	2300      	movs	r3, #0
 80030f0:	7723      	strb	r3, [r4, #28]
  if ((itflag & (TIM_FLAG_CC3)) == (TIM_FLAG_CC3))
 80030f2:	f015 0f08 	tst.w	r5, #8
 80030f6:	d012      	beq.n	800311e <HAL_TIM_IRQHandler+0x8a>
    if ((itsource & (TIM_IT_CC3)) == (TIM_IT_CC3))
 80030f8:	f016 0f08 	tst.w	r6, #8
 80030fc:	d00f      	beq.n	800311e <HAL_TIM_IRQHandler+0x8a>
      __HAL_TIM_CLEAR_FLAG(htim, TIM_FLAG_CC3);
 80030fe:	6823      	ldr	r3, [r4, #0]
 8003100:	f06f 0208 	mvn.w	r2, #8
 8003104:	611a      	str	r2, [r3, #16]
      htim->Channel = HAL_TIM_ACTIVE_CHANNEL_3;
 8003106:	2304      	movs	r3, #4
 8003108:	7723      	strb	r3, [r4, #28]
      if ((htim->Instance->CCMR2 & TIM_CCMR2_CC3S) != 0x00U)
 800310a:	6823      	ldr	r3, [r4, #0]
 800310c:	69db      	ldr	r3, [r3, #28]
 800310e:	f013 0f03 	tst.w	r3, #3
 8003112:	d040      	beq.n	8003196 <HAL_TIM_IRQHandler+0x102>
        HAL_TIM_IC_CaptureCallback(htim);
 8003114:	4620      	mov	r0, r4
 8003116:	f7ff ffba 	bl	800308e <HAL_TIM_IC_CaptureCallback>
      htim->Channel = HAL_TIM_ACTIVE_CHANNEL_CLEARED;
 800311a:	2300      	movs	r3, #0
 800311c:	7723      	strb	r3, [r4, #28]
  if ((itflag & (TIM_FLAG_CC4)) == (TIM_FLAG_CC4))
 800311e:	f015 0f10 	tst.w	r5, #16
 8003122:	d012      	beq.n	800314a <HAL_TIM_IRQHandler+0xb6>
    if ((itsource & (TIM_IT_CC4)) == (TIM_IT_CC4))
 8003124:	f016 0f10 	tst.w	r6, #16
 8003128:	d00f      	beq.n	800314a <HAL_TIM_IRQHandler+0xb6>
      __HAL_TIM_CLEAR_FLAG(htim, TIM_FLAG_CC4);
 800312a:	6823      	ldr	r3, [r4, #0]
 800312c:	f06f 0210 	mvn.w	r2, #16
 8003130:	611a      	str	r2, [r3, #16]
      htim->Channel = HAL_TIM_ACTIVE_CHANNEL_4;
 8003132:	2308      	movs	r3, #8
 8003134:	7723      	strb	r3, [r4, #28]
      if ((htim->Instance->CCMR2 & TIM_CCMR2_CC4S) != 0x00U)
 8003136:	6823      	ldr	r3, [r4, #0]
 8003138:	69db      	ldr	r3, [r3, #28]
 800313a:	f413 7f40 	tst.w	r3, #768	@ 0x300
 800313e:	d031      	beq.n	80031a4 <HAL_TIM_IRQHandler+0x110>
        HAL_TIM_IC_CaptureCallback(htim);
 8003140:	4620      	mov	r0, r4
 8003142:	f7ff ffa4 	bl	800308e <HAL_TIM_IC_CaptureCallback>
      htim->Channel = HAL_TIM_ACTIVE_CHANNEL_CLEARED;
 8003146:	2300      	movs	r3, #0
 8003148:	7723      	strb	r3, [r4, #28]
  if ((itflag & (TIM_FLAG_UPDATE)) == (TIM_FLAG_UPDATE))
 800314a:	f015 0f01 	tst.w	r5, #1
 800314e:	d002      	beq.n	8003156 <HAL_TIM_IRQHandler+0xc2>
    if ((itsource & (TIM_IT_UPDATE)) == (TIM_IT_UPDATE))
 8003150:	f016 0f01 	tst.w	r6, #1
 8003154:	d12d      	bne.n	80031b2 <HAL_TIM_IRQHandler+0x11e>
  if ((itflag & (TIM_FLAG_BREAK)) == (TIM_FLAG_BREAK))
 8003156:	f015 0f80 	tst.w	r5, #128	@ 0x80
 800315a:	d002      	beq.n	8003162 <HAL_TIM_IRQHandler+0xce>
    if ((itsource & (TIM_IT_BREAK)) == (TIM_IT_BREAK))
 800315c:	f016 0f80 	tst.w	r6, #128	@ 0x80
 8003160:	d12f      	bne.n	80031c2 <HAL_TIM_IRQHandler+0x12e>
  if ((itflag & (TIM_FLAG_TRIGGER)) == (TIM_FLAG_TRIGGER))
 8003162:	f015 0f40 	tst.w	r5, #64	@ 0x40
 8003166:	d002      	beq.n	800316e <HAL_TIM_IRQHandler+0xda>
    if ((itsource & (TIM_IT_TRIGGER)) == (TIM_IT_TRIGGER))
 8003168:	f016 0f40 	tst.w	r6, #64	@ 0x40
 800316c:	d131      	bne.n	80031d2 <HAL_TIM_IRQHandler+0x13e>
  if ((itflag & (TIM_FLAG_COM)) == (TIM_FLAG_COM))
 800316e:	f015 0f20 	tst.w	r5, #32
 8003172:	d002      	beq.n	800317a <HAL_TIM_IRQHandler+0xe6>
    if ((itsource & (TIM_IT_COM)) == (TIM_IT_COM))
 8003174:	f016 0f20 	tst.w	r6, #32
 8003178:	d133      	bne.n	80031e2 <HAL_TIM_IRQHandler+0x14e>
}
 800317a:	bd70      	pop	{r4, r5, r6, pc}
          HAL_TIM_OC_DelayElapsedCallback(htim);
 800317c:	f7ff ff86 	bl	800308c <HAL_TIM_OC_DelayElapsedCallback>
          HAL_TIM_PWM_PulseFinishedCallback(htim);
 8003180:	4620      	mov	r0, r4
 8003182:	f7ff ff85 	bl	8003090 <HAL_TIM_PWM_PulseFinishedCallback>
 8003186:	e79c      	b.n	80030c2 <HAL_TIM_IRQHandler+0x2e>
        HAL_TIM_OC_DelayElapsedCallback(htim);
 8003188:	4620      	mov	r0, r4
 800318a:	f7ff ff7f 	bl	800308c <HAL_TIM_OC_DelayElapsedCallback>
        HAL_TIM_PWM_PulseFinishedCallback(htim);
 800318e:	4620      	mov	r0, r4
 8003190:	f7ff ff7e 	bl	8003090 <HAL_TIM_PWM_PulseFinishedCallback>
 8003194:	e7ab      	b.n	80030ee <HAL_TIM_IRQHandler+0x5a>
        HAL_TIM_OC_DelayElapsedCallback(htim);
 8003196:	4620      	mov	r0, r4
 8003198:	f7ff ff78 	bl	800308c <HAL_TIM_OC_DelayElapsedCallback>
        HAL_TIM_PWM_PulseFinishedCallback(htim);
 800319c:	4620      	mov	r0, r4
 800319e:	f7ff ff77 	bl	8003090 <HAL_TIM_PWM_PulseFinishedCallback>
 80031a2:	e7ba      	b.n	800311a <HAL_TIM_IRQHandler+0x86>
        HAL_TIM_OC_DelayElapsedCallback(htim);
 80031a4:	4620      	mov	r0, r4
 80031a6:	f7ff ff71 	bl	800308c <HAL_TIM_OC_DelayElapsedCallback>
        HAL_TIM_PWM_PulseFinishedCallback(htim);
 80031aa:	4620      	mov	r0, r4
 80031ac:	f7ff ff70 	bl	8003090 <HAL_TIM_PWM_PulseFinishedCallback>
 80031b0:	e7c9      	b.n	8003146 <HAL_TIM_IRQHandler+0xb2>
      __HAL_TIM_CLEAR_FLAG(htim, TIM_FLAG_UPDATE);
 80031b2:	6823      	ldr	r3, [r4, #0]
 80031b4:	f06f 0201 	mvn.w	r2, #1
 80031b8:	611a      	str	r2, [r3, #16]
      HAL_TIM_PeriodElapsedCallback(htim);
 80031ba:	4620      	mov	r0, r4
 80031bc:	f7fd fb3c 	bl	8000838 <HAL_TIM_PeriodElapsedCallback>
 80031c0:	e7c9      	b.n	8003156 <HAL_TIM_IRQHandler+0xc2>
      __HAL_TIM_CLEAR_FLAG(htim, TIM_FLAG_BREAK);
 80031c2:	6823      	ldr	r3, [r4, #0]
 80031c4:	f06f 0280 	mvn.w	r2, #128	@ 0x80
 80031c8:	611a      	str	r2, [r3, #16]
      HAL_TIMEx_BreakCallback(htim);
 80031ca:	4620      	mov	r0, r4
 80031cc:	f000 faeb 	bl	80037a6 <HAL_TIMEx_BreakCallback>
 80031d0:	e7c7      	b.n	8003162 <HAL_TIM_IRQHandler+0xce>
      __HAL_TIM_CLEAR_FLAG(htim, TIM_FLAG_TRIGGER);
 80031d2:	6823      	ldr	r3, [r4, #0]
 80031d4:	f06f 0240 	mvn.w	r2, #64	@ 0x40
 80031d8:	611a      	str	r2, [r3, #16]
      HAL_TIM_TriggerCallback(htim);
 80031da:	4620      	mov	r0, r4
 80031dc:	f7ff ff59 	bl	8003092 <HAL_TIM_TriggerCallback>
 80031e0:	e7c5      	b.n	800316e <HAL_TIM_IRQHandler+0xda>
      __HAL_TIM_CLEAR_FLAG(htim, TIM_FLAG_COM);
 80031e2:	6823      	ldr	r3, [r4, #0]
 80031e4:	f06f 0220 	mvn.w	r2, #32
 80031e8:	611a      	str	r2, [r3, #16]
      HAL_TIMEx_CommutCallback(htim);
 80031ea:	4620      	mov	r0, r4
 80031ec:	f000 fada 	bl	80037a4 <HAL_TIMEx_CommutCallback>
}
 80031f0:	e7c3      	b.n	800317a <HAL_TIM_IRQHandler+0xe6>
	...

080031f4 <TIM_Base_SetConfig>:
  tmpcr1 = TIMx->CR1;
 80031f4:	6803      	ldr	r3, [r0, #0]
  if (IS_TIM_COUNTER_MODE_SELECT_INSTANCE(TIMx))
 80031f6:	4a1f      	ldr	r2, [pc, #124]	@ (8003274 <TIM_Base_SetConfig+0x80>)
 80031f8:	4290      	cmp	r0, r2
 80031fa:	d00a      	beq.n	8003212 <TIM_Base_SetConfig+0x1e>
 80031fc:	f1b0 4f80 	cmp.w	r0, #1073741824	@ 0x40000000
 8003200:	d007      	beq.n	8003212 <TIM_Base_SetConfig+0x1e>
 8003202:	f5a2 3294 	sub.w	r2, r2, #75776	@ 0x12800
 8003206:	4290      	cmp	r0, r2
 8003208:	d003      	beq.n	8003212 <TIM_Base_SetConfig+0x1e>
 800320a:	f502 6280 	add.w	r2, r2, #1024	@ 0x400
 800320e:	4290      	cmp	r0, r2
 8003210:	d103      	bne.n	800321a <TIM_Base_SetConfig+0x26>
    tmpcr1 &= ~(TIM_CR1_DIR | TIM_CR1_CMS);
 8003212:	f023 0370 	bic.w	r3, r3, #112	@ 0x70
    tmpcr1 |= Structure->CounterMode;
 8003216:	684a      	ldr	r2, [r1, #4]
 8003218:	4313      	orrs	r3, r2
  if (IS_TIM_CLOCK_DIVISION_INSTANCE(TIMx))
 800321a:	4a16      	ldr	r2, [pc, #88]	@ (8003274 <TIM_Base_SetConfig+0x80>)
 800321c:	4290      	cmp	r0, r2
 800321e:	d00a      	beq.n	8003236 <TIM_Base_SetConfig+0x42>
 8003220:	f1b0 4f80 	cmp.w	r0, #1073741824	@ 0x40000000
 8003224:	d007      	beq.n	8003236 <TIM_Base_SetConfig+0x42>
 8003226:	f5a2 3294 	sub.w	r2, r2, #75776	@ 0x12800
 800322a:	4290      	cmp	r0, r2
 800322c:	d003      	beq.n	8003236 <TIM_Base_SetConfig+0x42>
 800322e:	f502 6280 	add.w	r2, r2, #1024	@ 0x400
 8003232:	4290      	cmp	r0, r2
 8003234:	d103      	bne.n	800323e <TIM_Base_SetConfig+0x4a>
    tmpcr1 &= ~TIM_CR1_CKD;
 8003236:	f423 7340 	bic.w	r3, r3, #768	@ 0x300
    tmpcr1 |= (uint32_t)Structure->ClockDivision;
 800323a:	68ca      	ldr	r2, [r1, #12]
 800323c:	4313      	orrs	r3, r2
  MODIFY_REG(tmpcr1, TIM_CR1_ARPE, Structure->AutoReloadPreload);
 800323e:	f023 0380 	bic.w	r3, r3, #128	@ 0x80
 8003242:	694a      	ldr	r2, [r1, #20]
 8003244:	4313      	orrs	r3, r2
  TIMx->CR1 = tmpcr1;
 8003246:	6003      	str	r3, [r0, #0]
  TIMx->ARR = (uint32_t)Structure->Period ;
 8003248:	688b      	ldr	r3, [r1, #8]
 800324a:	62c3      	str	r3, [r0, #44]	@ 0x2c
  TIMx->PSC = Structure->Prescaler;
 800324c:	680b      	ldr	r3, [r1, #0]
 800324e:	6283      	str	r3, [r0, #40]	@ 0x28
  if (IS_TIM_REPETITION_COUNTER_INSTANCE(TIMx))
 8003250:	4b08      	ldr	r3, [pc, #32]	@ (8003274 <TIM_Base_SetConfig+0x80>)
 8003252:	4298      	cmp	r0, r3
 8003254:	d00a      	beq.n	800326c <TIM_Base_SetConfig+0x78>
  TIMx->EGR = TIM_EGR_UG;
 8003256:	2301      	movs	r3, #1
 8003258:	6143      	str	r3, [r0, #20]
  if (HAL_IS_BIT_SET(TIMx->SR, TIM_FLAG_UPDATE))
 800325a:	6903      	ldr	r3, [r0, #16]
 800325c:	f013 0f01 	tst.w	r3, #1
 8003260:	d003      	beq.n	800326a <TIM_Base_SetConfig+0x76>
    CLEAR_BIT(TIMx->SR, TIM_FLAG_UPDATE);
 8003262:	6903      	ldr	r3, [r0, #16]
 8003264:	f023 0301 	bic.w	r3, r3, #1
 8003268:	6103      	str	r3, [r0, #16]
}
 800326a:	4770      	bx	lr
    TIMx->RCR = Structure->RepetitionCounter;
 800326c:	690b      	ldr	r3, [r1, #16]
 800326e:	6303      	str	r3, [r0, #48]	@ 0x30
 8003270:	e7f1      	b.n	8003256 <TIM_Base_SetConfig+0x62>
 8003272:	bf00      	nop
 8003274:	40012c00 	.word	0x40012c00

08003278 <HAL_TIM_PWM_Init>:
  if (htim == NULL)
 8003278:	b340      	cbz	r0, 80032cc <HAL_TIM_PWM_Init+0x54>
{
 800327a:	b510      	push	{r4, lr}
 800327c:	4604      	mov	r4, r0
  if (htim->State == HAL_TIM_STATE_RESET)
 800327e:	f890 303d 	ldrb.w	r3, [r0, #61]	@ 0x3d
 8003282:	b1f3      	cbz	r3, 80032c2 <HAL_TIM_PWM_Init+0x4a>
  htim->State = HAL_TIM_STATE_BUSY;
 8003284:	2302      	movs	r3, #2
 8003286:	f884 303d 	strb.w	r3, [r4, #61]	@ 0x3d
  TIM_Base_SetConfig(htim->Instance, &htim->Init);
 800328a:	4621      	mov	r1, r4
 800328c:	f851 0b04 	ldr.w	r0, [r1], #4
 8003290:	f7ff ffb0 	bl	80031f4 <TIM_Base_SetConfig>
  htim->DMABurstState = HAL_DMA_BURST_STATE_READY;
 8003294:	2301      	movs	r3, #1
 8003296:	f884 3046 	strb.w	r3, [r4, #70]	@ 0x46
  TIM_CHANNEL_STATE_SET_ALL(htim, HAL_TIM_CHANNEL_STATE_READY);
 800329a:	f884 303e 	strb.w	r3, [r4, #62]	@ 0x3e
 800329e:	f884 303f 	strb.w	r3, [r4, #63]	@ 0x3f
 80032a2:	f884 3040 	strb.w	r3, [r4, #64]	@ 0x40
 80032a6:	f884 3041 	strb.w	r3, [r4, #65]	@ 0x41
  TIM_CHANNEL_N_STATE_SET_ALL(htim, HAL_TIM_CHANNEL_STATE_READY);
 80032aa:	f884 3042 	strb.w	r3, [r4, #66]	@ 0x42
 80032ae:	f884 3043 	strb.w	r3, [r4, #67]	@ 0x43
 80032b2:	f884 3044 	strb.w	r3, [r4, #68]	@ 0x44
 80032b6:	f884 3045 	strb.w	r3, [r4, #69]	@ 0x45
  htim->State = HAL_TIM_STATE_READY;
 80032ba:	f884 303d 	strb.w	r3, [r4, #61]	@ 0x3d
  return HAL_OK;
 80032be:	2000      	movs	r0, #0
}
 80032c0:	bd10      	pop	{r4, pc}
    htim->Lock = HAL_UNLOCKED;
 80032c2:	f880 303c 	strb.w	r3, [r0, #60]	@ 0x3c
    HAL_TIM_PWM_MspInit(htim);
 80032c6:	f7fd febb 	bl	8001040 <HAL_TIM_PWM_MspInit>
 80032ca:	e7db      	b.n	8003284 <HAL_TIM_PWM_Init+0xc>
    return HAL_ERROR;
 80032cc:	2001      	movs	r0, #1
}
 80032ce:	4770      	bx	lr

080032d0 <HAL_TIM_IC_Init>:
  if (htim == NULL)
 80032d0:	b340      	cbz	r0, 8003324 <HAL_TIM_IC_Init+0x54>
{
 80032d2:	b510      	push	{r4, lr}
 80032d4:	4604      	mov	r4, r0
  if (htim->State == HAL_TIM_STATE_RESET)
 80032d6:	f890 303d 	ldrb.w	r3, [r0, #61]	@ 0x3d
 80032da:	b1f3      	cbz	r3, 800331a <HAL_TIM_IC_Init+0x4a>
  htim->State = HAL_TIM_STATE_BUSY;
 80032dc:	2302      	movs	r3, #2
 80032de:	f884 303d 	strb.w	r3, [r4, #61]	@ 0x3d
  TIM_Base_SetConfig(htim->Instance, &htim->Init);
 80032e2:	4621      	mov	r1, r4
 80032e4:	f851 0b04 	ldr.w	r0, [r1], #4
 80032e8:	f7ff ff84 	bl	80031f4 <TIM_Base_SetConfig>
  htim->DMABurstState = HAL_DMA_BURST_STATE_READY;
 80032ec:	2301      	movs	r3, #1
 80032ee:	f884 3046 	strb.w	r3, [r4, #70]	@ 0x46
  TIM_CHANNEL_STATE_SET_ALL(htim, HAL_TIM_CHANNEL_STATE_READY);
 80032f2:	f884 303e 	strb.w	r3, [r4, #62]	@ 0x3e
 80032f6:	f884 303f 	strb.w	r3, [r4, #63]	@ 0x3f
 80032fa:	f884 3040 	strb.w	r3, [r4, #64]	@ 0x40
 80032fe:	f884 3041 	strb.w	r3, [r4, #65]	@ 0x41
  TIM_CHANNEL_N_STATE_SET_ALL(htim, HAL_TIM_CHANNEL_STATE_READY);
 8003302:	f884 3042 	strb.w	r3, [r4, #66]	@ 0x42
 8003306:	f884 3043 	strb.w	r3, [r4, #67]	@ 0x43
 800330a:	f884 3044 	strb.w	r3, [r4, #68]	@ 0x44
 800330e:	f884 3045 	strb.w	r3, [r4, #69]	@ 0x45
  htim->State = HAL_TIM_STATE_READY;
 8003312:	f884 303d 	strb.w	r3, [r4, #61]	@ 0x3d
  return HAL_OK;
 8003316:	2000      	movs	r0, #0
}
 8003318:	bd10      	pop	{r4, pc}
    htim->Lock = HAL_UNLOCKED;
 800331a:	f880 303c 	strb.w	r3, [r0, #60]	@ 0x3c
    HAL_TIM_IC_MspInit(htim);
 800331e:	f7fd feaf 	bl	8001080 <HAL_TIM_IC_MspInit>
 8003322:	e7db      	b.n	80032dc <HAL_TIM_IC_Init+0xc>
    return HAL_ERROR;
 8003324:	2001      	movs	r0, #1
}
 8003326:	4770      	bx	lr

08003328 <HAL_TIM_Encoder_Init>:
  if (htim == NULL)
 8003328:	2800      	cmp	r0, #0
 800332a:	d056      	beq.n	80033da <HAL_TIM_Encoder_Init+0xb2>
{
 800332c:	b570      	push	{r4, r5, r6, lr}
 800332e:	460d      	mov	r5, r1
 8003330:	4604      	mov	r4, r0
  if (htim->State == HAL_TIM_STATE_RESET)
 8003332:	f890 303d 	ldrb.w	r3, [r0, #61]	@ 0x3d
 8003336:	2b00      	cmp	r3, #0
 8003338:	d04a      	beq.n	80033d0 <HAL_TIM_Encoder_Init+0xa8>
  htim->State = HAL_TIM_STATE_BUSY;
 800333a:	2302      	movs	r3, #2
 800333c:	f884 303d 	strb.w	r3, [r4, #61]	@ 0x3d
  htim->Instance->SMCR &= ~(TIM_SMCR_SMS | TIM_SMCR_ECE);
 8003340:	6822      	ldr	r2, [r4, #0]
 8003342:	6893      	ldr	r3, [r2, #8]
 8003344:	f423 4380 	bic.w	r3, r3, #16384	@ 0x4000
 8003348:	f023 0307 	bic.w	r3, r3, #7
 800334c:	6093      	str	r3, [r2, #8]
  TIM_Base_SetConfig(htim->Instance, &htim->Init);
 800334e:	4621      	mov	r1, r4
 8003350:	f851 0b04 	ldr.w	r0, [r1], #4
 8003354:	f7ff ff4e 	bl	80031f4 <TIM_Base_SetConfig>
  tmpsmcr = htim->Instance->SMCR;
 8003358:	6821      	ldr	r1, [r4, #0]
 800335a:	688b      	ldr	r3, [r1, #8]
  tmpccmr1 = htim->Instance->CCMR1;
 800335c:	698a      	ldr	r2, [r1, #24]
  tmpccer = htim->Instance->CCER;
 800335e:	6a0e      	ldr	r6, [r1, #32]
  tmpsmcr |= sConfig->EncoderMode;
 8003360:	6828      	ldr	r0, [r5, #0]
 8003362:	4318      	orrs	r0, r3
  tmpccmr1 &= ~(TIM_CCMR1_CC1S | TIM_CCMR1_CC2S);
 8003364:	f422 7240 	bic.w	r2, r2, #768	@ 0x300
 8003368:	f022 0203 	bic.w	r2, r2, #3
  tmpccmr1 |= (sConfig->IC1Selection | (sConfig->IC2Selection << 8U));
 800336c:	68ab      	ldr	r3, [r5, #8]
 800336e:	f8d5 c018 	ldr.w	ip, [r5, #24]
 8003372:	ea43 230c 	orr.w	r3, r3, ip, lsl #8
 8003376:	4313      	orrs	r3, r2
  tmpccmr1 &= ~(TIM_CCMR1_IC1F | TIM_CCMR1_IC2F);
 8003378:	f423 437c 	bic.w	r3, r3, #64512	@ 0xfc00
 800337c:	f023 03fc 	bic.w	r3, r3, #252	@ 0xfc
  tmpccmr1 |= sConfig->IC1Prescaler | (sConfig->IC2Prescaler << 8U);
 8003380:	68ea      	ldr	r2, [r5, #12]
 8003382:	f8d5 c01c 	ldr.w	ip, [r5, #28]
 8003386:	ea42 220c 	orr.w	r2, r2, ip, lsl #8
 800338a:	431a      	orrs	r2, r3
  tmpccmr1 |= (sConfig->IC1Filter << 4U) | (sConfig->IC2Filter << 12U);
 800338c:	6a2b      	ldr	r3, [r5, #32]
 800338e:	031b      	lsls	r3, r3, #12
 8003390:	f8d5 c010 	ldr.w	ip, [r5, #16]
 8003394:	ea43 130c 	orr.w	r3, r3, ip, lsl #4
 8003398:	4313      	orrs	r3, r2
  tmpccer &= ~(TIM_CCER_CC1P | TIM_CCER_CC2P);
 800339a:	f026 0622 	bic.w	r6, r6, #34	@ 0x22
  tmpccer |= sConfig->IC1Polarity | (sConfig->IC2Polarity << 4U);
 800339e:	686a      	ldr	r2, [r5, #4]
 80033a0:	696d      	ldr	r5, [r5, #20]
 80033a2:	ea42 1205 	orr.w	r2, r2, r5, lsl #4
 80033a6:	4332      	orrs	r2, r6
  htim->Instance->SMCR = tmpsmcr;
 80033a8:	6088      	str	r0, [r1, #8]
  htim->Instance->CCMR1 = tmpccmr1;
 80033aa:	6821      	ldr	r1, [r4, #0]
 80033ac:	618b      	str	r3, [r1, #24]
  htim->Instance->CCER = tmpccer;
 80033ae:	6823      	ldr	r3, [r4, #0]
 80033b0:	621a      	str	r2, [r3, #32]
  htim->DMABurstState = HAL_DMA_BURST_STATE_READY;
 80033b2:	2301      	movs	r3, #1
 80033b4:	f884 3046 	strb.w	r3, [r4, #70]	@ 0x46
  TIM_CHANNEL_STATE_SET(htim, TIM_CHANNEL_1, HAL_TIM_CHANNEL_STATE_READY);
 80033b8:	f884 303e 	strb.w	r3, [r4, #62]	@ 0x3e
  TIM_CHANNEL_STATE_SET(htim, TIM_CHANNEL_2, HAL_TIM_CHANNEL_STATE_READY);
 80033bc:	f884 303f 	strb.w	r3, [r4, #63]	@ 0x3f
  TIM_CHANNEL_N_STATE_SET(htim, TIM_CHANNEL_1, HAL_TIM_CHANNEL_STATE_READY);
 80033c0:	f884 3042 	strb.w	r3, [r4, #66]	@ 0x42
  TIM_CHANNEL_N_STATE_SET(htim, TIM_CHANNEL_2, HAL_TIM_CHANNEL_STATE_READY);
 80033c4:	f884 3043 	strb.w	r3, [r4, #67]	@ 0x43
  htim->State = HAL_TIM_STATE_READY;
 80033c8:	f884 303d 	strb.w	r3, [r4, #61]	@ 0x3d
  return HAL_OK;
 80033cc:	2000      	movs	r0, #0
}
 80033ce:	bd70      	pop	{r4, r5, r6, pc}
    htim->Lock = HAL_UNLOCKED;
 80033d0:	f880 303c 	strb.w	r3, [r0, #60]	@ 0x3c
    HAL_TIM_Encoder_MspInit(htim);
 80033d4:	f7fd fdc6 	bl	8000f64 <HAL_TIM_Encoder_MspInit>
 80033d8:	e7af      	b.n	800333a <HAL_TIM_Encoder_Init+0x12>
    return HAL_ERROR;
 80033da:	2001      	movs	r0, #1
}
 80033dc:	4770      	bx	lr
	...

080033e0 <TIM_OC2_SetConfig>:
{
 80033e0:	b430      	push	{r4, r5}
  tmpccer = TIMx->CCER;
 80033e2:	6a03      	ldr	r3, [r0, #32]
  TIMx->CCER &= ~TIM_CCER_CC2E;
 80033e4:	6a02      	ldr	r2, [r0, #32]
 80033e6:	f022 0210 	bic.w	r2, r2, #16
 80033ea:	6202      	str	r2, [r0, #32]
  tmpcr2 =  TIMx->CR2;
 80033ec:	6844      	ldr	r4, [r0, #4]
  tmpccmrx = TIMx->CCMR1;
 80033ee:	6982      	ldr	r2, [r0, #24]
  tmpccmrx &= ~TIM_CCMR1_CC2S;
 80033f0:	f422 42e6 	bic.w	r2, r2, #29440	@ 0x7300
  tmpccmrx |= (OC_Config->OCMode << 8U);
 80033f4:	680d      	ldr	r5, [r1, #0]
 80033f6:	ea42 2205 	orr.w	r2, r2, r5, lsl #8
  tmpccer &= ~TIM_CCER_CC2P;
 80033fa:	f023 0320 	bic.w	r3, r3, #32
  tmpccer |= (OC_Config->OCPolarity << 4U);
 80033fe:	688d      	ldr	r5, [r1, #8]
 8003400:	ea43 1305 	orr.w	r3, r3, r5, lsl #4
  if (IS_TIM_CCXN_INSTANCE(TIMx, TIM_CHANNEL_2))
 8003404:	4d0c      	ldr	r5, [pc, #48]	@ (8003438 <TIM_OC2_SetConfig+0x58>)
 8003406:	42a8      	cmp	r0, r5
 8003408:	d006      	beq.n	8003418 <TIM_OC2_SetConfig+0x38>
  TIMx->CR2 = tmpcr2;
 800340a:	6044      	str	r4, [r0, #4]
  TIMx->CCMR1 = tmpccmrx;
 800340c:	6182      	str	r2, [r0, #24]
  TIMx->CCR2 = OC_Config->Pulse;
 800340e:	684a      	ldr	r2, [r1, #4]
 8003410:	6382      	str	r2, [r0, #56]	@ 0x38
  TIMx->CCER = tmpccer;
 8003412:	6203      	str	r3, [r0, #32]
}
 8003414:	bc30      	pop	{r4, r5}
 8003416:	4770      	bx	lr
    tmpccer &= ~TIM_CCER_CC2NP;
 8003418:	f023 0380 	bic.w	r3, r3, #128	@ 0x80
    tmpccer |= (OC_Config->OCNPolarity << 4U);
 800341c:	68cd      	ldr	r5, [r1, #12]
 800341e:	ea43 1305 	orr.w	r3, r3, r5, lsl #4
    tmpccer &= ~TIM_CCER_CC2NE;
 8003422:	f023 0340 	bic.w	r3, r3, #64	@ 0x40
    tmpcr2 &= ~TIM_CR2_OIS2N;
 8003426:	f424 6440 	bic.w	r4, r4, #3072	@ 0xc00
    tmpcr2 |= (OC_Config->OCIdleState << 2U);
 800342a:	694d      	ldr	r5, [r1, #20]
 800342c:	ea44 0485 	orr.w	r4, r4, r5, lsl #2
    tmpcr2 |= (OC_Config->OCNIdleState << 2U);
 8003430:	698d      	ldr	r5, [r1, #24]
 8003432:	ea44 0485 	orr.w	r4, r4, r5, lsl #2
 8003436:	e7e8      	b.n	800340a <TIM_OC2_SetConfig+0x2a>
 8003438:	40012c00 	.word	0x40012c00

0800343c <HAL_TIM_PWM_ConfigChannel>:
{
 800343c:	b538      	push	{r3, r4, r5, lr}
  __HAL_LOCK(htim);
 800343e:	f890 303c 	ldrb.w	r3, [r0, #60]	@ 0x3c
 8003442:	2b01      	cmp	r3, #1
 8003444:	d066      	beq.n	8003514 <HAL_TIM_PWM_ConfigChannel+0xd8>
 8003446:	4604      	mov	r4, r0
 8003448:	460d      	mov	r5, r1
 800344a:	2301      	movs	r3, #1
 800344c:	f880 303c 	strb.w	r3, [r0, #60]	@ 0x3c
  switch (Channel)
 8003450:	2a0c      	cmp	r2, #12
 8003452:	d85a      	bhi.n	800350a <HAL_TIM_PWM_ConfigChannel+0xce>
 8003454:	e8df f002 	tbb	[pc, r2]
 8003458:	59595907 	.word	0x59595907
 800345c:	5959591b 	.word	0x5959591b
 8003460:	59595930 	.word	0x59595930
 8003464:	44          	.byte	0x44
 8003465:	00          	.byte	0x00
      TIM_OC1_SetConfig(htim->Instance, sConfig);
 8003466:	6800      	ldr	r0, [r0, #0]
 8003468:	f7ff fd0e 	bl	8002e88 <TIM_OC1_SetConfig>
      htim->Instance->CCMR1 |= TIM_CCMR1_OC1PE;
 800346c:	6822      	ldr	r2, [r4, #0]
 800346e:	6993      	ldr	r3, [r2, #24]
 8003470:	f043 0308 	orr.w	r3, r3, #8
 8003474:	6193      	str	r3, [r2, #24]
      htim->Instance->CCMR1 &= ~TIM_CCMR1_OC1FE;
 8003476:	6822      	ldr	r2, [r4, #0]
 8003478:	6993      	ldr	r3, [r2, #24]
 800347a:	f023 0304 	bic.w	r3, r3, #4
 800347e:	6193      	str	r3, [r2, #24]
      htim->Instance->CCMR1 |= sConfig->OCFastMode;
 8003480:	6822      	ldr	r2, [r4, #0]
 8003482:	6993      	ldr	r3, [r2, #24]
 8003484:	6929      	ldr	r1, [r5, #16]
 8003486:	430b      	orrs	r3, r1
 8003488:	6193      	str	r3, [r2, #24]
  HAL_StatusTypeDef status = HAL_OK;
 800348a:	2000      	movs	r0, #0
      break;
 800348c:	e03e      	b.n	800350c <HAL_TIM_PWM_ConfigChannel+0xd0>
      TIM_OC2_SetConfig(htim->Instance, sConfig);
 800348e:	6800      	ldr	r0, [r0, #0]
 8003490:	f7ff ffa6 	bl	80033e0 <TIM_OC2_SetConfig>
      htim->Instance->CCMR1 |= TIM_CCMR1_OC2PE;
 8003494:	6822      	ldr	r2, [r4, #0]
 8003496:	6993      	ldr	r3, [r2, #24]
 8003498:	f443 6300 	orr.w	r3, r3, #2048	@ 0x800
 800349c:	6193      	str	r3, [r2, #24]
      htim->Instance->CCMR1 &= ~TIM_CCMR1_OC2FE;
 800349e:	6822      	ldr	r2, [r4, #0]
 80034a0:	6993      	ldr	r3, [r2, #24]
 80034a2:	f423 6380 	bic.w	r3, r3, #1024	@ 0x400
 80034a6:	6193      	str	r3, [r2, #24]
      htim->Instance->CCMR1 |= sConfig->OCFastMode << 8U;
 80034a8:	6822      	ldr	r2, [r4, #0]
 80034aa:	6993      	ldr	r3, [r2, #24]
 80034ac:	6929      	ldr	r1, [r5, #16]
 80034ae:	ea43 2301 	orr.w	r3, r3, r1, lsl #8
 80034b2:	6193      	str	r3, [r2, #24]
  HAL_StatusTypeDef status = HAL_OK;
 80034b4:	2000      	movs	r0, #0
      break;
 80034b6:	e029      	b.n	800350c <HAL_TIM_PWM_ConfigChannel+0xd0>
      TIM_OC3_SetConfig(htim->Instance, sConfig);
 80034b8:	6800      	ldr	r0, [r0, #0]
 80034ba:	f7ff fd0f 	bl	8002edc <TIM_OC3_SetConfig>
      htim->Instance->CCMR2 |= TIM_CCMR2_OC3PE;
 80034be:	6822      	ldr	r2, [r4, #0]
 80034c0:	69d3      	ldr	r3, [r2, #28]
 80034c2:	f043 0308 	orr.w	r3, r3, #8
 80034c6:	61d3      	str	r3, [r2, #28]
      htim->Instance->CCMR2 &= ~TIM_CCMR2_OC3FE;
 80034c8:	6822      	ldr	r2, [r4, #0]
 80034ca:	69d3      	ldr	r3, [r2, #28]
 80034cc:	f023 0304 	bic.w	r3, r3, #4
 80034d0:	61d3      	str	r3, [r2, #28]
      htim->Instance->CCMR2 |= sConfig->OCFastMode;
 80034d2:	6822      	ldr	r2, [r4, #0]
 80034d4:	69d3      	ldr	r3, [r2, #28]
 80034d6:	6929      	ldr	r1, [r5, #16]
 80034d8:	430b      	orrs	r3, r1
 80034da:	61d3      	str	r3, [r2, #28]
  HAL_StatusTypeDef status = HAL_OK;
 80034dc:	2000      	movs	r0, #0
      break;
 80034de:	e015      	b.n	800350c <HAL_TIM_PWM_ConfigChannel+0xd0>
      TIM_OC4_SetConfig(htim->Instance, sConfig);
 80034e0:	6800      	ldr	r0, [r0, #0]
 80034e2:	f7ff fd29 	bl	8002f38 <TIM_OC4_SetConfig>
      htim->Instance->CCMR2 |= TIM_CCMR2_OC4PE;
 80034e6:	6822      	ldr	r2, [r4, #0]
 80034e8:	69d3      	ldr	r3, [r2, #28]
 80034ea:	f443 6300 	orr.w	r3, r3, #2048	@ 0x800
 80034ee:	61d3      	str	r3, [r2, #28]
      htim->Instance->CCMR2 &= ~TIM_CCMR2_OC4FE;
 80034f0:	6822      	ldr	r2, [r4, #0]
 80034f2:	69d3      	ldr	r3, [r2, #28]
 80034f4:	f423 6380 	bic.w	r3, r3, #1024	@ 0x400
 80034f8:	61d3      	str	r3, [r2, #28]
      htim->Instance->CCMR2 |= sConfig->OCFastMode << 8U;
 80034fa:	6822      	ldr	r2, [r4, #0]
 80034fc:	69d3      	ldr	r3, [r2, #28]
 80034fe:	6929      	ldr	r1, [r5, #16]
 8003500:	ea43 2301 	orr.w	r3, r3, r1, lsl #8
 8003504:	61d3      	str	r3, [r2, #28]
  HAL_StatusTypeDef status = HAL_OK;
 8003506:	2000      	movs	r0, #0
      break;
 8003508:	e000      	b.n	800350c <HAL_TIM_PWM_ConfigChannel+0xd0>
  switch (Channel)
 800350a:	2001      	movs	r0, #1
  __HAL_UNLOCK(htim);
 800350c:	2300      	movs	r3, #0
 800350e:	f884 303c 	strb.w	r3, [r4, #60]	@ 0x3c
}
 8003512:	bd38      	pop	{r3, r4, r5, pc}
  __HAL_LOCK(htim);
 8003514:	2002      	movs	r0, #2
 8003516:	e7fc      	b.n	8003512 <HAL_TIM_PWM_ConfigChannel+0xd6>

08003518 <TIM_TI1_SetConfig>:
{
 8003518:	b470      	push	{r4, r5, r6}
  tmpccer = TIMx->CCER;
 800351a:	6a05      	ldr	r5, [r0, #32]
  TIMx->CCER &= ~TIM_CCER_CC1E;
 800351c:	6a04      	ldr	r4, [r0, #32]
 800351e:	f024 0401 	bic.w	r4, r4, #1
 8003522:	6204      	str	r4, [r0, #32]
  tmpccmr1 = TIMx->CCMR1;
 8003524:	6984      	ldr	r4, [r0, #24]
  if (IS_TIM_CC2_INSTANCE(TIMx) != RESET)
 8003526:	4e11      	ldr	r6, [pc, #68]	@ (800356c <TIM_TI1_SetConfig+0x54>)
 8003528:	42b0      	cmp	r0, r6
 800352a:	d00d      	beq.n	8003548 <TIM_TI1_SetConfig+0x30>
 800352c:	f1b0 4f80 	cmp.w	r0, #1073741824	@ 0x40000000
 8003530:	d00a      	beq.n	8003548 <TIM_TI1_SetConfig+0x30>
 8003532:	f5a6 3694 	sub.w	r6, r6, #75776	@ 0x12800
 8003536:	42b0      	cmp	r0, r6
 8003538:	d006      	beq.n	8003548 <TIM_TI1_SetConfig+0x30>
 800353a:	f506 6680 	add.w	r6, r6, #1024	@ 0x400
 800353e:	42b0      	cmp	r0, r6
 8003540:	d002      	beq.n	8003548 <TIM_TI1_SetConfig+0x30>
    tmpccmr1 |= TIM_CCMR1_CC1S_0;
 8003542:	f044 0201 	orr.w	r2, r4, #1
 8003546:	e002      	b.n	800354e <TIM_TI1_SetConfig+0x36>
    tmpccmr1 &= ~TIM_CCMR1_CC1S;
 8003548:	f024 0403 	bic.w	r4, r4, #3
    tmpccmr1 |= TIM_ICSelection;
 800354c:	4322      	orrs	r2, r4
  tmpccmr1 &= ~TIM_CCMR1_IC1F;
 800354e:	f022 02f0 	bic.w	r2, r2, #240	@ 0xf0
  tmpccmr1 |= ((TIM_ICFilter << 4U) & TIM_CCMR1_IC1F);
 8003552:	011b      	lsls	r3, r3, #4
 8003554:	b2db      	uxtb	r3, r3
 8003556:	4313      	orrs	r3, r2
  tmpccer &= ~(TIM_CCER_CC1P | TIM_CCER_CC1NP);
 8003558:	f025 020a 	bic.w	r2, r5, #10
  tmpccer |= (TIM_ICPolarity & (TIM_CCER_CC1P | TIM_CCER_CC1NP));
 800355c:	f001 010a 	and.w	r1, r1, #10
 8003560:	4311      	orrs	r1, r2
  TIMx->CCMR1 = tmpccmr1;
 8003562:	6183      	str	r3, [r0, #24]
  TIMx->CCER = tmpccer;
 8003564:	6201      	str	r1, [r0, #32]
}
 8003566:	bc70      	pop	{r4, r5, r6}
 8003568:	4770      	bx	lr
 800356a:	bf00      	nop
 800356c:	40012c00 	.word	0x40012c00

08003570 <HAL_TIM_IC_ConfigChannel>:
{
 8003570:	b538      	push	{r3, r4, r5, lr}
  __HAL_LOCK(htim);
 8003572:	f890 303c 	ldrb.w	r3, [r0, #60]	@ 0x3c
 8003576:	2b01      	cmp	r3, #1
 8003578:	d05e      	beq.n	8003638 <HAL_TIM_IC_ConfigChannel+0xc8>
 800357a:	4604      	mov	r4, r0
 800357c:	460d      	mov	r5, r1
 800357e:	2301      	movs	r3, #1
 8003580:	f880 303c 	strb.w	r3, [r0, #60]	@ 0x3c
  if (Channel == TIM_CHANNEL_1)
 8003584:	2a0c      	cmp	r2, #12
 8003586:	d852      	bhi.n	800362e <HAL_TIM_IC_ConfigChannel+0xbe>
 8003588:	e8df f002 	tbb	[pc, r2]
 800358c:	51515107 	.word	0x51515107
 8003590:	51515119 	.word	0x51515119
 8003594:	5151512c 	.word	0x5151512c
 8003598:	3e          	.byte	0x3e
 8003599:	00          	.byte	0x00
    TIM_TI1_SetConfig(htim->Instance,
 800359a:	68cb      	ldr	r3, [r1, #12]
 800359c:	684a      	ldr	r2, [r1, #4]
 800359e:	6809      	ldr	r1, [r1, #0]
 80035a0:	6800      	ldr	r0, [r0, #0]
 80035a2:	f7ff ffb9 	bl	8003518 <TIM_TI1_SetConfig>
    htim->Instance->CCMR1 &= ~TIM_CCMR1_IC1PSC;
 80035a6:	6822      	ldr	r2, [r4, #0]
 80035a8:	6993      	ldr	r3, [r2, #24]
 80035aa:	f023 030c 	bic.w	r3, r3, #12
 80035ae:	6193      	str	r3, [r2, #24]
    htim->Instance->CCMR1 |= sConfig->ICPrescaler;
 80035b0:	6822      	ldr	r2, [r4, #0]
 80035b2:	6993      	ldr	r3, [r2, #24]
 80035b4:	68a9      	ldr	r1, [r5, #8]
 80035b6:	430b      	orrs	r3, r1
 80035b8:	6193      	str	r3, [r2, #24]
  HAL_StatusTypeDef status = HAL_OK;
 80035ba:	2000      	movs	r0, #0
 80035bc:	e038      	b.n	8003630 <HAL_TIM_IC_ConfigChannel+0xc0>
    TIM_TI2_SetConfig(htim->Instance,
 80035be:	68cb      	ldr	r3, [r1, #12]
 80035c0:	684a      	ldr	r2, [r1, #4]
 80035c2:	6809      	ldr	r1, [r1, #0]
 80035c4:	6800      	ldr	r0, [r0, #0]
 80035c6:	f7ff fcdb 	bl	8002f80 <TIM_TI2_SetConfig>
    htim->Instance->CCMR1 &= ~TIM_CCMR1_IC2PSC;
 80035ca:	6822      	ldr	r2, [r4, #0]
 80035cc:	6993      	ldr	r3, [r2, #24]
 80035ce:	f423 6340 	bic.w	r3, r3, #3072	@ 0xc00
 80035d2:	6193      	str	r3, [r2, #24]
    htim->Instance->CCMR1 |= (sConfig->ICPrescaler << 8U);
 80035d4:	6822      	ldr	r2, [r4, #0]
 80035d6:	6993      	ldr	r3, [r2, #24]
 80035d8:	68a9      	ldr	r1, [r5, #8]
 80035da:	ea43 2301 	orr.w	r3, r3, r1, lsl #8
 80035de:	6193      	str	r3, [r2, #24]
  HAL_StatusTypeDef status = HAL_OK;
 80035e0:	2000      	movs	r0, #0
 80035e2:	e025      	b.n	8003630 <HAL_TIM_IC_ConfigChannel+0xc0>
    TIM_TI3_SetConfig(htim->Instance,
 80035e4:	68cb      	ldr	r3, [r1, #12]
 80035e6:	684a      	ldr	r2, [r1, #4]
 80035e8:	6809      	ldr	r1, [r1, #0]
 80035ea:	6800      	ldr	r0, [r0, #0]
 80035ec:	f7ff fce3 	bl	8002fb6 <TIM_TI3_SetConfig>
    htim->Instance->CCMR2 &= ~TIM_CCMR2_IC3PSC;
 80035f0:	6822      	ldr	r2, [r4, #0]
 80035f2:	69d3      	ldr	r3, [r2, #28]
 80035f4:	f023 030c 	bic.w	r3, r3, #12
 80035f8:	61d3      	str	r3, [r2, #28]
    htim->Instance->CCMR2 |= sConfig->ICPrescaler;
 80035fa:	6822      	ldr	r2, [r4, #0]
 80035fc:	69d3      	ldr	r3, [r2, #28]
 80035fe:	68a9      	ldr	r1, [r5, #8]
 8003600:	430b      	orrs	r3, r1
 8003602:	61d3      	str	r3, [r2, #28]
  HAL_StatusTypeDef status = HAL_OK;
 8003604:	2000      	movs	r0, #0
 8003606:	e013      	b.n	8003630 <HAL_TIM_IC_ConfigChannel+0xc0>
    TIM_TI4_SetConfig(htim->Instance,
 8003608:	68cb      	ldr	r3, [r1, #12]
 800360a:	684a      	ldr	r2, [r1, #4]
 800360c:	6809      	ldr	r1, [r1, #0]
 800360e:	6800      	ldr	r0, [r0, #0]
 8003610:	f7ff fcec 	bl	8002fec <TIM_TI4_SetConfig>
    htim->Instance->CCMR2 &= ~TIM_CCMR2_IC4PSC;
 8003614:	6822      	ldr	r2, [r4, #0]
 8003616:	69d3      	ldr	r3, [r2, #28]
 8003618:	f423 6340 	bic.w	r3, r3, #3072	@ 0xc00
 800361c:	61d3      	str	r3, [r2, #28]
    htim->Instance->CCMR2 |= (sConfig->ICPrescaler << 8U);
 800361e:	6822      	ldr	r2, [r4, #0]
 8003620:	69d3      	ldr	r3, [r2, #28]
 8003622:	68a9      	ldr	r1, [r5, #8]
 8003624:	ea43 2301 	orr.w	r3, r3, r1, lsl #8
 8003628:	61d3      	str	r3, [r2, #28]
  HAL_StatusTypeDef status = HAL_OK;
 800362a:	2000      	movs	r0, #0
 800362c:	e000      	b.n	8003630 <HAL_TIM_IC_ConfigChannel+0xc0>
  __HAL_LOCK(htim);
 800362e:	2001      	movs	r0, #1
  __HAL_UNLOCK(htim);
 8003630:	2300      	movs	r3, #0
 8003632:	f884 303c 	strb.w	r3, [r4, #60]	@ 0x3c
}
 8003636:	bd38      	pop	{r3, r4, r5, pc}
  __HAL_LOCK(htim);
 8003638:	2002      	movs	r0, #2
 800363a:	e7fc      	b.n	8003636 <HAL_TIM_IC_ConfigChannel+0xc6>

0800363c <TIM_CCxChannelCmd>:

  /* Check the parameters */
  assert_param(IS_TIM_CC1_INSTANCE(TIMx));
  assert_param(IS_TIM_CHANNELS(Channel));

  tmp = TIM_CCER_CC1E << (Channel & 0x1FU); /* 0x1FU = 31 bits max shift */
 800363c:	f001 011f 	and.w	r1, r1, #31
 8003640:	f04f 0c01 	mov.w	ip, #1
 8003644:	fa0c fc01 	lsl.w	ip, ip, r1

  /* Reset the CCxE Bit */
  TIMx->CCER &= ~tmp;
 8003648:	6a03      	ldr	r3, [r0, #32]
 800364a:	ea23 030c 	bic.w	r3, r3, ip
 800364e:	6203      	str	r3, [r0, #32]

  /* Set or reset the CCxE Bit */
  TIMx->CCER |= (uint32_t)(ChannelState << (Channel & 0x1FU)); /* 0x1FU = 31 bits max shift */
 8003650:	6a03      	ldr	r3, [r0, #32]
 8003652:	408a      	lsls	r2, r1
 8003654:	4313      	orrs	r3, r2
 8003656:	6203      	str	r3, [r0, #32]
}
 8003658:	4770      	bx	lr
	...

0800365c <HAL_TIM_PWM_Start>:
{
 800365c:	b510      	push	{r4, lr}
 800365e:	4604      	mov	r4, r0
  if (TIM_CHANNEL_STATE_GET(htim, Channel) != HAL_TIM_CHANNEL_STATE_READY)
 8003660:	4608      	mov	r0, r1
 8003662:	bb51      	cbnz	r1, 80036ba <HAL_TIM_PWM_Start+0x5e>
 8003664:	f894 303e 	ldrb.w	r3, [r4, #62]	@ 0x3e
 8003668:	b2db      	uxtb	r3, r3
 800366a:	3b01      	subs	r3, #1
 800366c:	bf18      	it	ne
 800366e:	2301      	movne	r3, #1
 8003670:	2b00      	cmp	r3, #0
 8003672:	d15b      	bne.n	800372c <HAL_TIM_PWM_Start+0xd0>
  TIM_CHANNEL_STATE_SET(htim, Channel, HAL_TIM_CHANNEL_STATE_BUSY);
 8003674:	2800      	cmp	r0, #0
 8003676:	d139      	bne.n	80036ec <HAL_TIM_PWM_Start+0x90>
 8003678:	2302      	movs	r3, #2
 800367a:	f884 303e 	strb.w	r3, [r4, #62]	@ 0x3e
  TIM_CCxChannelCmd(htim->Instance, Channel, TIM_CCx_ENABLE);
 800367e:	2201      	movs	r2, #1
 8003680:	4601      	mov	r1, r0
 8003682:	6820      	ldr	r0, [r4, #0]
 8003684:	f7ff ffda 	bl	800363c <TIM_CCxChannelCmd>
  if (IS_TIM_BREAK_INSTANCE(htim->Instance) != RESET)
 8003688:	6823      	ldr	r3, [r4, #0]
 800368a:	4a2a      	ldr	r2, [pc, #168]	@ (8003734 <HAL_TIM_PWM_Start+0xd8>)
 800368c:	4293      	cmp	r3, r2
 800368e:	d03d      	beq.n	800370c <HAL_TIM_PWM_Start+0xb0>
  if (IS_TIM_SLAVE_INSTANCE(htim->Instance))
 8003690:	6823      	ldr	r3, [r4, #0]
 8003692:	4a28      	ldr	r2, [pc, #160]	@ (8003734 <HAL_TIM_PWM_Start+0xd8>)
 8003694:	4293      	cmp	r3, r2
 8003696:	d03e      	beq.n	8003716 <HAL_TIM_PWM_Start+0xba>
 8003698:	f1b3 4f80 	cmp.w	r3, #1073741824	@ 0x40000000
 800369c:	d03b      	beq.n	8003716 <HAL_TIM_PWM_Start+0xba>
 800369e:	f5a2 3294 	sub.w	r2, r2, #75776	@ 0x12800
 80036a2:	4293      	cmp	r3, r2
 80036a4:	d037      	beq.n	8003716 <HAL_TIM_PWM_Start+0xba>
 80036a6:	f502 6280 	add.w	r2, r2, #1024	@ 0x400
 80036aa:	4293      	cmp	r3, r2
 80036ac:	d033      	beq.n	8003716 <HAL_TIM_PWM_Start+0xba>
    __HAL_TIM_ENABLE(htim);
 80036ae:	681a      	ldr	r2, [r3, #0]
 80036b0:	f042 0201 	orr.w	r2, r2, #1
 80036b4:	601a      	str	r2, [r3, #0]
  return HAL_OK;
 80036b6:	2000      	movs	r0, #0
 80036b8:	e039      	b.n	800372e <HAL_TIM_PWM_Start+0xd2>
  if (TIM_CHANNEL_STATE_GET(htim, Channel) != HAL_TIM_CHANNEL_STATE_READY)
 80036ba:	2904      	cmp	r1, #4
 80036bc:	d008      	beq.n	80036d0 <HAL_TIM_PWM_Start+0x74>
 80036be:	2908      	cmp	r1, #8
 80036c0:	d00d      	beq.n	80036de <HAL_TIM_PWM_Start+0x82>
 80036c2:	f894 3041 	ldrb.w	r3, [r4, #65]	@ 0x41
 80036c6:	b2db      	uxtb	r3, r3
 80036c8:	3b01      	subs	r3, #1
 80036ca:	bf18      	it	ne
 80036cc:	2301      	movne	r3, #1
 80036ce:	e7cf      	b.n	8003670 <HAL_TIM_PWM_Start+0x14>
 80036d0:	f894 303f 	ldrb.w	r3, [r4, #63]	@ 0x3f
 80036d4:	b2db      	uxtb	r3, r3
 80036d6:	3b01      	subs	r3, #1
 80036d8:	bf18      	it	ne
 80036da:	2301      	movne	r3, #1
 80036dc:	e7c8      	b.n	8003670 <HAL_TIM_PWM_Start+0x14>
 80036de:	f894 3040 	ldrb.w	r3, [r4, #64]	@ 0x40
 80036e2:	b2db      	uxtb	r3, r3
 80036e4:	3b01      	subs	r3, #1
 80036e6:	bf18      	it	ne
 80036e8:	2301      	movne	r3, #1
 80036ea:	e7c1      	b.n	8003670 <HAL_TIM_PWM_Start+0x14>
  TIM_CHANNEL_STATE_SET(htim, Channel, HAL_TIM_CHANNEL_STATE_BUSY);
 80036ec:	2804      	cmp	r0, #4
 80036ee:	d005      	beq.n	80036fc <HAL_TIM_PWM_Start+0xa0>
 80036f0:	2808      	cmp	r0, #8
 80036f2:	d007      	beq.n	8003704 <HAL_TIM_PWM_Start+0xa8>
 80036f4:	2302      	movs	r3, #2
 80036f6:	f884 3041 	strb.w	r3, [r4, #65]	@ 0x41
 80036fa:	e7c0      	b.n	800367e <HAL_TIM_PWM_Start+0x22>
 80036fc:	2302      	movs	r3, #2
 80036fe:	f884 303f 	strb.w	r3, [r4, #63]	@ 0x3f
 8003702:	e7bc      	b.n	800367e <HAL_TIM_PWM_Start+0x22>
 8003704:	2302      	movs	r3, #2
 8003706:	f884 3040 	strb.w	r3, [r4, #64]	@ 0x40
 800370a:	e7b8      	b.n	800367e <HAL_TIM_PWM_Start+0x22>
    __HAL_TIM_MOE_ENABLE(htim);
 800370c:	6c5a      	ldr	r2, [r3, #68]	@ 0x44
 800370e:	f442 4200 	orr.w	r2, r2, #32768	@ 0x8000
 8003712:	645a      	str	r2, [r3, #68]	@ 0x44
 8003714:	e7bc      	b.n	8003690 <HAL_TIM_PWM_Start+0x34>
    tmpsmcr = htim->Instance->SMCR & TIM_SMCR_SMS;
 8003716:	689a      	ldr	r2, [r3, #8]
 8003718:	f002 0207 	and.w	r2, r2, #7
    if (!IS_TIM_SLAVEMODE_TRIGGER_ENABLED(tmpsmcr))
 800371c:	2a06      	cmp	r2, #6
 800371e:	d007      	beq.n	8003730 <HAL_TIM_PWM_Start+0xd4>
      __HAL_TIM_ENABLE(htim);
 8003720:	681a      	ldr	r2, [r3, #0]
 8003722:	f042 0201 	orr.w	r2, r2, #1
 8003726:	601a      	str	r2, [r3, #0]
  return HAL_OK;
 8003728:	2000      	movs	r0, #0
 800372a:	e000      	b.n	800372e <HAL_TIM_PWM_Start+0xd2>
    return HAL_ERROR;
 800372c:	2001      	movs	r0, #1
}
 800372e:	bd10      	pop	{r4, pc}
  return HAL_OK;
 8003730:	2000      	movs	r0, #0
 8003732:	e7fc      	b.n	800372e <HAL_TIM_PWM_Start+0xd2>
 8003734:	40012c00 	.word	0x40012c00

08003738 <HAL_TIMEx_MasterConfigSynchronization>:
  assert_param(IS_TIM_MASTER_INSTANCE(htim->Instance));
  assert_param(IS_TIM_TRGO_SOURCE(sMasterConfig->MasterOutputTrigger));
  assert_param(IS_TIM_MSM_STATE(sMasterConfig->MasterSlaveMode));

  /* Check input state */
  __HAL_LOCK(htim);
 8003738:	f890 203c 	ldrb.w	r2, [r0, #60]	@ 0x3c
 800373c:	2a01      	cmp	r2, #1
 800373e:	d02c      	beq.n	800379a <HAL_TIMEx_MasterConfigSynchronization+0x62>
{
 8003740:	b410      	push	{r4}
 8003742:	4603      	mov	r3, r0
  __HAL_LOCK(htim);
 8003744:	2201      	movs	r2, #1
 8003746:	f880 203c 	strb.w	r2, [r0, #60]	@ 0x3c

  /* Change the handler state */
  htim->State = HAL_TIM_STATE_BUSY;
 800374a:	2202      	movs	r2, #2
 800374c:	f880 203d 	strb.w	r2, [r0, #61]	@ 0x3d

  /* Get the TIMx CR2 register value */
  tmpcr2 = htim->Instance->CR2;
 8003750:	6802      	ldr	r2, [r0, #0]
 8003752:	6850      	ldr	r0, [r2, #4]

  /* Get the TIMx SMCR register value */
  tmpsmcr = htim->Instance->SMCR;
 8003754:	6894      	ldr	r4, [r2, #8]

  /* Reset the MMS Bits */
  tmpcr2 &= ~TIM_CR2_MMS;
 8003756:	f020 0c70 	bic.w	ip, r0, #112	@ 0x70
  /* Select the TRGO source */
  tmpcr2 |=  sMasterConfig->MasterOutputTrigger;
 800375a:	6808      	ldr	r0, [r1, #0]
 800375c:	ea40 000c 	orr.w	r0, r0, ip

  /* Update TIMx CR2 */
  htim->Instance->CR2 = tmpcr2;
 8003760:	6050      	str	r0, [r2, #4]

  if (IS_TIM_SLAVE_INSTANCE(htim->Instance))
 8003762:	681a      	ldr	r2, [r3, #0]
 8003764:	480e      	ldr	r0, [pc, #56]	@ (80037a0 <HAL_TIMEx_MasterConfigSynchronization+0x68>)
 8003766:	4282      	cmp	r2, r0
 8003768:	d00a      	beq.n	8003780 <HAL_TIMEx_MasterConfigSynchronization+0x48>
 800376a:	f1b2 4f80 	cmp.w	r2, #1073741824	@ 0x40000000
 800376e:	d007      	beq.n	8003780 <HAL_TIMEx_MasterConfigSynchronization+0x48>
 8003770:	f5a0 3094 	sub.w	r0, r0, #75776	@ 0x12800
 8003774:	4282      	cmp	r2, r0
 8003776:	d003      	beq.n	8003780 <HAL_TIMEx_MasterConfigSynchronization+0x48>
 8003778:	f500 6080 	add.w	r0, r0, #1024	@ 0x400
 800377c:	4282      	cmp	r2, r0
 800377e:	d104      	bne.n	800378a <HAL_TIMEx_MasterConfigSynchronization+0x52>
  {
    /* Reset the MSM Bit */
    tmpsmcr &= ~TIM_SMCR_MSM;
 8003780:	f024 0480 	bic.w	r4, r4, #128	@ 0x80
    /* Set master mode */
    tmpsmcr |= sMasterConfig->MasterSlaveMode;
 8003784:	6849      	ldr	r1, [r1, #4]
 8003786:	4321      	orrs	r1, r4

    /* Update TIMx SMCR */
    htim->Instance->SMCR = tmpsmcr;
 8003788:	6091      	str	r1, [r2, #8]
  }

  /* Change the htim state */
  htim->State = HAL_TIM_STATE_READY;
 800378a:	2201      	movs	r2, #1
 800378c:	f883 203d 	strb.w	r2, [r3, #61]	@ 0x3d

  __HAL_UNLOCK(htim);
 8003790:	2000      	movs	r0, #0
 8003792:	f883 003c 	strb.w	r0, [r3, #60]	@ 0x3c

  return HAL_OK;
}
 8003796:	bc10      	pop	{r4}
 8003798:	4770      	bx	lr
  __HAL_LOCK(htim);
 800379a:	2002      	movs	r0, #2
}
 800379c:	4770      	bx	lr
 800379e:	bf00      	nop
 80037a0:	40012c00 	.word	0x40012c00

080037a4 <HAL_TIMEx_CommutCallback>:
  UNUSED(htim);

  /* NOTE : This function should not be modified, when the callback is needed,
            the HAL_TIMEx_CommutCallback could be implemented in the user file
   */
}
 80037a4:	4770      	bx	lr

080037a6 <HAL_TIMEx_BreakCallback>:
  UNUSED(htim);

  /* NOTE : This function should not be modified, when the callback is needed,
            the HAL_TIMEx_BreakCallback could be implemented in the user file
   */
}
 80037a6:	4770      	bx	lr

080037a8 <UART_SetConfig>:
  * @param  huart  Pointer to a UART_HandleTypeDef structure that contains
  *                the configuration information for the specified UART module.
  * @retval None
  */
static void UART_SetConfig(UART_HandleTypeDef *huart)
{
 80037a8:	b510      	push	{r4, lr}
 80037aa:	4604      	mov	r4, r0
  assert_param(IS_UART_MODE(huart->Init.Mode));

  /*-------------------------- USART CR2 Configuration -----------------------*/
  /* Configure the UART Stop Bits: Set STOP[13:12] bits
     according to huart->Init.StopBits value */
  MODIFY_REG(huart->Instance->CR2, USART_CR2_STOP, huart->Init.StopBits);
 80037ac:	6802      	ldr	r2, [r0, #0]
 80037ae:	6913      	ldr	r3, [r2, #16]
 80037b0:	f423 5340 	bic.w	r3, r3, #12288	@ 0x3000
 80037b4:	68c1      	ldr	r1, [r0, #12]
 80037b6:	430b      	orrs	r3, r1
 80037b8:	6113      	str	r3, [r2, #16]
  tmpreg = (uint32_t)huart->Init.WordLength | huart->Init.Parity | huart->Init.Mode | huart->Init.OverSampling;
  MODIFY_REG(huart->Instance->CR1,
             (uint32_t)(USART_CR1_M | USART_CR1_PCE | USART_CR1_PS | USART_CR1_TE | USART_CR1_RE | USART_CR1_OVER8),
             tmpreg);
#else
  tmpreg = (uint32_t)huart->Init.WordLength | huart->Init.Parity | huart->Init.Mode;
 80037ba:	6883      	ldr	r3, [r0, #8]
 80037bc:	6902      	ldr	r2, [r0, #16]
 80037be:	4313      	orrs	r3, r2
 80037c0:	6942      	ldr	r2, [r0, #20]
 80037c2:	431a      	orrs	r2, r3
  MODIFY_REG(huart->Instance->CR1,
 80037c4:	6801      	ldr	r1, [r0, #0]
 80037c6:	68cb      	ldr	r3, [r1, #12]
 80037c8:	f423 53b0 	bic.w	r3, r3, #5632	@ 0x1600
 80037cc:	f023 030c 	bic.w	r3, r3, #12
 80037d0:	4313      	orrs	r3, r2
 80037d2:	60cb      	str	r3, [r1, #12]
             tmpreg);
#endif /* USART_CR1_OVER8 */

  /*-------------------------- USART CR3 Configuration -----------------------*/
  /* Configure the UART HFC: Set CTSE and RTSE bits according to huart->Init.HwFlowCtl value */
  MODIFY_REG(huart->Instance->CR3, (USART_CR3_RTSE | USART_CR3_CTSE), huart->Init.HwFlowCtl);
 80037d4:	6802      	ldr	r2, [r0, #0]
 80037d6:	6953      	ldr	r3, [r2, #20]
 80037d8:	f423 7340 	bic.w	r3, r3, #768	@ 0x300
 80037dc:	6981      	ldr	r1, [r0, #24]
 80037de:	430b      	orrs	r3, r1
 80037e0:	6153      	str	r3, [r2, #20]


  if(huart->Instance == USART1)
 80037e2:	6802      	ldr	r2, [r0, #0]
 80037e4:	4b13      	ldr	r3, [pc, #76]	@ (8003834 <UART_SetConfig+0x8c>)
 80037e6:	429a      	cmp	r2, r3
 80037e8:	d020      	beq.n	800382c <UART_SetConfig+0x84>
  {
    pclk = HAL_RCC_GetPCLK2Freq();
  }
  else
  {
    pclk = HAL_RCC_GetPCLK1Freq();
 80037ea:	f7fe fe1d 	bl	8002428 <HAL_RCC_GetPCLK1Freq>
 80037ee:	4602      	mov	r2, r0
  else
  {
    huart->Instance->BRR = UART_BRR_SAMPLING16(pclk, huart->Init.BaudRate);
  }
#else
  huart->Instance->BRR = UART_BRR_SAMPLING16(pclk, huart->Init.BaudRate);
 80037f0:	eb02 0282 	add.w	r2, r2, r2, lsl #2
 80037f4:	eb02 0282 	add.w	r2, r2, r2, lsl #2
 80037f8:	6863      	ldr	r3, [r4, #4]
 80037fa:	009b      	lsls	r3, r3, #2
 80037fc:	fbb2 f2f3 	udiv	r2, r2, r3
 8003800:	480d      	ldr	r0, [pc, #52]	@ (8003838 <UART_SetConfig+0x90>)
 8003802:	fba0 3102 	umull	r3, r1, r0, r2
 8003806:	0949      	lsrs	r1, r1, #5
 8003808:	2364      	movs	r3, #100	@ 0x64
 800380a:	fb03 2311 	mls	r3, r3, r1, r2
 800380e:	011b      	lsls	r3, r3, #4
 8003810:	3332      	adds	r3, #50	@ 0x32
 8003812:	fba0 0303 	umull	r0, r3, r0, r3
 8003816:	095b      	lsrs	r3, r3, #5
 8003818:	f003 02f0 	and.w	r2, r3, #240	@ 0xf0
 800381c:	eb02 1201 	add.w	r2, r2, r1, lsl #4
 8003820:	f003 030f 	and.w	r3, r3, #15
 8003824:	6821      	ldr	r1, [r4, #0]
 8003826:	4413      	add	r3, r2
 8003828:	608b      	str	r3, [r1, #8]
#endif /* USART_CR1_OVER8 */
}
 800382a:	bd10      	pop	{r4, pc}
    pclk = HAL_RCC_GetPCLK2Freq();
 800382c:	f7fe fe0c 	bl	8002448 <HAL_RCC_GetPCLK2Freq>
 8003830:	4602      	mov	r2, r0
 8003832:	e7dd      	b.n	80037f0 <UART_SetConfig+0x48>
 8003834:	40013800 	.word	0x40013800
 8003838:	51eb851f 	.word	0x51eb851f

0800383c <HAL_UART_Init>:
  if (huart == NULL)
 800383c:	b360      	cbz	r0, 8003898 <HAL_UART_Init+0x5c>
{
 800383e:	b510      	push	{r4, lr}
 8003840:	4604      	mov	r4, r0
  if (huart->gState == HAL_UART_STATE_RESET)
 8003842:	f890 3041 	ldrb.w	r3, [r0, #65]	@ 0x41
 8003846:	b313      	cbz	r3, 800388e <HAL_UART_Init+0x52>
  huart->gState = HAL_UART_STATE_BUSY;
 8003848:	2324      	movs	r3, #36	@ 0x24
 800384a:	f884 3041 	strb.w	r3, [r4, #65]	@ 0x41
  __HAL_UART_DISABLE(huart);
 800384e:	6822      	ldr	r2, [r4, #0]
 8003850:	68d3      	ldr	r3, [r2, #12]
 8003852:	f423 5300 	bic.w	r3, r3, #8192	@ 0x2000
 8003856:	60d3      	str	r3, [r2, #12]
  UART_SetConfig(huart);
 8003858:	4620      	mov	r0, r4
 800385a:	f7ff ffa5 	bl	80037a8 <UART_SetConfig>
  CLEAR_BIT(huart->Instance->CR2, (USART_CR2_LINEN | USART_CR2_CLKEN));
 800385e:	6822      	ldr	r2, [r4, #0]
 8003860:	6913      	ldr	r3, [r2, #16]
 8003862:	f423 4390 	bic.w	r3, r3, #18432	@ 0x4800
 8003866:	6113      	str	r3, [r2, #16]
  CLEAR_BIT(huart->Instance->CR3, (USART_CR3_SCEN | USART_CR3_HDSEL | USART_CR3_IREN));
 8003868:	6822      	ldr	r2, [r4, #0]
 800386a:	6953      	ldr	r3, [r2, #20]
 800386c:	f023 032a 	bic.w	r3, r3, #42	@ 0x2a
 8003870:	6153      	str	r3, [r2, #20]
  __HAL_UART_ENABLE(huart);
 8003872:	6822      	ldr	r2, [r4, #0]
 8003874:	68d3      	ldr	r3, [r2, #12]
 8003876:	f443 5300 	orr.w	r3, r3, #8192	@ 0x2000
 800387a:	60d3      	str	r3, [r2, #12]
  huart->ErrorCode = HAL_UART_ERROR_NONE;
 800387c:	2000      	movs	r0, #0
 800387e:	6460      	str	r0, [r4, #68]	@ 0x44
  huart->gState = HAL_UART_STATE_READY;
 8003880:	2320      	movs	r3, #32
 8003882:	f884 3041 	strb.w	r3, [r4, #65]	@ 0x41
  huart->RxState = HAL_UART_STATE_READY;
 8003886:	f884 3042 	strb.w	r3, [r4, #66]	@ 0x42
  huart->RxEventType = HAL_UART_RXEVENT_TC;
 800388a:	6360      	str	r0, [r4, #52]	@ 0x34
}
 800388c:	bd10      	pop	{r4, pc}
    huart->Lock = HAL_UNLOCKED;
 800388e:	f880 3040 	strb.w	r3, [r0, #64]	@ 0x40
    HAL_UART_MspInit(huart);
 8003892:	f7fd fcb9 	bl	8001208 <HAL_UART_MspInit>
 8003896:	e7d7      	b.n	8003848 <HAL_UART_Init+0xc>
    return HAL_ERROR;
 8003898:	2001      	movs	r0, #1
}
 800389a:	4770      	bx	lr

0800389c <Reset_Handler>:
  .weak Reset_Handler
  .type Reset_Handler, %function
Reset_Handler:

/* Call the clock system initialization function.*/
    bl  SystemInit
 800389c:	f7fd faba 	bl	8000e14 <SystemInit>

/* Copy the data segment initializers from flash to SRAM */
  ldr r0, =_sdata
 80038a0:	480b      	ldr	r0, [pc, #44]	@ (80038d0 <LoopFillZerobss+0xe>)
  ldr r1, =_edata
 80038a2:	490c      	ldr	r1, [pc, #48]	@ (80038d4 <LoopFillZerobss+0x12>)
  ldr r2, =_sidata
 80038a4:	4a0c      	ldr	r2, [pc, #48]	@ (80038d8 <LoopFillZerobss+0x16>)
  movs r3, #0
 80038a6:	2300      	movs	r3, #0
  b LoopCopyDataInit
 80038a8:	e002      	b.n	80038b0 <LoopCopyDataInit>

080038aa <CopyDataInit>:

CopyDataInit:
  ldr r4, [r2, r3]
 80038aa:	58d4      	ldr	r4, [r2, r3]
  str r4, [r0, r3]
 80038ac:	50c4      	str	r4, [r0, r3]
  adds r3, r3, #4
 80038ae:	3304      	adds	r3, #4

080038b0 <LoopCopyDataInit>:

LoopCopyDataInit:
  adds r4, r0, r3
 80038b0:	18c4      	adds	r4, r0, r3
  cmp r4, r1
 80038b2:	428c      	cmp	r4, r1
  bcc CopyDataInit
 80038b4:	d3f9      	bcc.n	80038aa <CopyDataInit>
  
/* Zero fill the bss segment. */
  ldr r2, =_sbss
 80038b6:	4a09      	ldr	r2, [pc, #36]	@ (80038dc <LoopFillZerobss+0x1a>)
  ldr r4, =_ebss
 80038b8:	4c09      	ldr	r4, [pc, #36]	@ (80038e0 <LoopFillZerobss+0x1e>)
  movs r3, #0
 80038ba:	2300      	movs	r3, #0
  b LoopFillZerobss
 80038bc:	e001      	b.n	80038c2 <LoopFillZerobss>

080038be <FillZerobss>:

FillZerobss:
  str  r3, [r2]
 80038be:	6013      	str	r3, [r2, #0]
  adds r2, r2, #4
 80038c0:	3204      	adds	r2, #4

080038c2 <LoopFillZerobss>:

LoopFillZerobss:
  cmp r2, r4
 80038c2:	42a2      	cmp	r2, r4
  bcc FillZerobss
 80038c4:	d3fb      	bcc.n	80038be <FillZerobss>

/* Call static constructors */
    bl __libc_init_array
 80038c6:	f000 f817 	bl	80038f8 <__libc_init_array>
/* Call the application's entry point.*/
  bl main
 80038ca:	f7fd f88b 	bl	80009e4 <main>
  bx lr
 80038ce:	4770      	bx	lr
  ldr r0, =_sdata
 80038d0:	20000000 	.word	0x20000000
  ldr r1, =_edata
 80038d4:	20000088 	.word	0x20000088
  ldr r2, =_sidata
 80038d8:	080039a0 	.word	0x080039a0
  ldr r2, =_sbss
 80038dc:	20000088 	.word	0x20000088
  ldr r4, =_ebss
 80038e0:	2000041c 	.word	0x2000041c

080038e4 <ADC1_2_IRQHandler>:
 * @retval : None
*/
    .section .text.Default_Handler,"ax",%progbits
Default_Handler:
Infinite_Loop:
  b Infinite_Loop
 80038e4:	e7fe      	b.n	80038e4 <ADC1_2_IRQHandler>

080038e6 <memset>:
 80038e6:	4603      	mov	r3, r0
 80038e8:	4402      	add	r2, r0
 80038ea:	4293      	cmp	r3, r2
 80038ec:	d100      	bne.n	80038f0 <memset+0xa>
 80038ee:	4770      	bx	lr
 80038f0:	f803 1b01 	strb.w	r1, [r3], #1
 80038f4:	e7f9      	b.n	80038ea <memset+0x4>
	...

080038f8 <__libc_init_array>:
 80038f8:	b570      	push	{r4, r5, r6, lr}
 80038fa:	2600      	movs	r6, #0
 80038fc:	4d0c      	ldr	r5, [pc, #48]	@ (8003930 <__libc_init_array+0x38>)
 80038fe:	4c0d      	ldr	r4, [pc, #52]	@ (8003934 <__libc_init_array+0x3c>)
 8003900:	1b64      	subs	r4, r4, r5
 8003902:	10a4      	asrs	r4, r4, #2
 8003904:	42a6      	cmp	r6, r4
 8003906:	d109      	bne.n	800391c <__libc_init_array+0x24>
 8003908:	f000 f81a 	bl	8003940 <_init>
 800390c:	2600      	movs	r6, #0
 800390e:	4d0a      	ldr	r5, [pc, #40]	@ (8003938 <__libc_init_array+0x40>)
 8003910:	4c0a      	ldr	r4, [pc, #40]	@ (800393c <__libc_init_array+0x44>)
 8003912:	1b64      	subs	r4, r4, r5
 8003914:	10a4      	asrs	r4, r4, #2
 8003916:	42a6      	cmp	r6, r4
 8003918:	d105      	bne.n	8003926 <__libc_init_array+0x2e>
 800391a:	bd70      	pop	{r4, r5, r6, pc}
 800391c:	f855 3b04 	ldr.w	r3, [r5], #4
 8003920:	4798      	blx	r3
 8003922:	3601      	adds	r6, #1
 8003924:	e7ee      	b.n	8003904 <__libc_init_array+0xc>
 8003926:	f855 3b04 	ldr.w	r3, [r5], #4
 800392a:	4798      	blx	r3
 800392c:	3601      	adds	r6, #1
 800392e:	e7f2      	b.n	8003916 <__libc_init_array+0x1e>
 8003930:	08003998 	.word	0x08003998
 8003934:	08003998 	.word	0x08003998
 8003938:	08003998 	.word	0x08003998
 800393c:	0800399c 	.word	0x0800399c

08003940 <_init>:
 8003940:	b5f8      	push	{r3, r4, r5, r6, r7, lr}
 8003942:	bf00      	nop
 8003944:	bcf8      	pop	{r3, r4, r5, r6, r7}
 8003946:	bc08      	pop	{r3}
 8003948:	469e      	mov	lr, r3
 800394a:	4770      	bx	lr

0800394c <_fini>:
 800394c:	b5f8      	push	{r3, r4, r5, r6, r7, lr}
 800394e:	bf00      	nop
 8003950:	bcf8      	pop	{r3, r4, r5, r6, r7}
 8003952:	bc08      	pop	{r3}
 8003954:	469e      	mov	lr, r3
 8003956:	4770      	bx	lr
